///////////////////////////////////////////////////////////////////////////////
//                                                                            /
// IAR C/C++ Compiler V8.10.1.10194/W32 for 8051        18/May/2013  01:29:33 /
// Copyright 2004-2011 IAR Systems AB.                                        /
//                                                                            /
//    Core               =  plain                                             /
//    Code model         =  banked                                            /
//    Data model         =  large                                             /
//    Calling convention =  xdata reentrant                                   /
//    Constant location  =  data_rom                                          /
//    Dptr setup         =  1,16                                              /
//    Source file        =  C:\Texas Instruments\ZStack-CC2530-IOT\Projects\S /
//                          appWsn\Source\SAPP_Device.c                       /
//    Command line       =  -f "C:\Texas Instruments\ZStack-CC2530-IOT\Projec /
//                          ts\SappWsn\..\zstack\Tools\CC2530DB\f8wRouter.cfg /
//                          " (-DCPU32MHZ -DROOT=__near_func                  /
//                          -DMAC_CFG_APP_PENDING_QUEUE=TRUE                  /
//                          -DMAC_CFG_TX_DATA_MAX=5 -DMAC_CFG_TX_MAX=8        /
//                          -DMAC_CFG_RX_MAX=5 -DRTR_NWK) -f "C:\Texas        /
//                          Instruments\ZStack-CC2530-IOT\Projects\SappWsn\.. /
//                          \zstack\Tools\CC2530DB\f8wConfig.cfg"             /
//                          (-DZIGBEEPRO -DSECURE=0 -DZG_SECURE_DYNAMIC=0     /
//                          -DREFLECTOR -DDEFAULT_CHANLIST=0x02000000         /
//                          -DZDAPP_CONFIG_PAN_ID=31 -DNWK_START_DELAY=100    /
//                          -DEXTENDED_JOINING_RANDOM_MASK=0x007F             /
//                          -DBEACON_REQUEST_DELAY=100                        /
//                          -DBEACON_REQ_DELAY_MASK=0x00FF                    /
//                          -DLINK_STATUS_JITTER_MASK=0x007F                  /
//                          -DROUTE_EXPIRY_TIME=30 -DAPSC_ACK_WAIT_DURATION_P /
//                          OLLED=3000 -DNWK_INDIRECT_MSG_TIMEOUT=7           /
//                          -DMAX_RREQ_ENTRIES=8 -DAPSC_MAX_FRAME_RETRIES=3   /
//                          -DNWK_MAX_DATA_RETRIES=2                          /
//                          -DMAX_POLL_FAILURE_RETRIES=2 -DMAX_BCAST=9        /
//                          -DAPS_MAX_GROUPS=16 -DMAX_RTG_ENTRIES=40          /
//                          -DNWK_MAX_BINDING_ENTRIES=4                       /
//                          -DMAX_BINDING_CLUSTER_IDS=4                       /
//                          "-DDEFAULT_KEY={0x01, 0x03, 0x05, 0x07, 0x09,     /
//                          0x0B, 0x0D, 0x0F, 0x00, 0x02, 0x04, 0x06, 0x08,   /
//                          0x0A, 0x0C, 0x0D}" -DMAC_MAX_FRAME_SIZE=116       /
//                          -DZDNWKMGR_MIN_TRANSMISSIONS=20 "-DCONST=const    /
//                          __code" -DGENERIC=__generic                       /
//                          -DRFD_RCVC_ALWAYS_ON=FALSE -DPOLL_RATE=1000       /
//                          -DQUEUED_POLL_RATE=100 -DRESPONSE_POLL_RATE=100)  /
//                          -DREJOIN_POLL_RATE=440 "C:\Texas                  /
//                          Instruments\ZStack-CC2530-IOT\Projects\SappWsn\So /
//                          urce\SAPP_Device.c" -D ZTOOL_P1 -D MT_TASK -D     /
//                          MT_SYS_FUNC -D MT_ZDO_FUNC -D                     /
//                          LCD_SUPPORTED=DEBUG -lC "C:\Texas                 /
//                          Instruments\ZStack-CC2530-IOT\Projects\SappWsn\Ro /
//                          uterEB\List\" -lA "C:\Texas                       /
//                          Instruments\ZStack-CC2530-IOT\Projects\SappWsn\Ro /
//                          uterEB\List\" --diag_suppress Pe001,Pa010 -o      /
//                          "C:\Texas Instruments\ZStack-CC2530-IOT\Projects\ /
//                          SappWsn\RouterEB\Obj\" -e --no_code_motion        /
//                          --debug --core=plain --dptr=16,1                  /
//                          --data_model=large --code_model=banked            /
//                          --calling_convention=xdata_reentrant              /
//                          --place_constants=data_rom --nr_virtual_regs 16   /
//                          -I "C:\Texas Instruments\ZStack-CC2530-IOT\Projec /
//                          ts\SappWsn\" -I "C:\Texas                         /
//                          Instruments\ZStack-CC2530-IOT\Projects\SappWsn\So /
//                          urce\" -I "C:\Texas Instruments\ZStack-CC2530-IOT /
//                          \Projects\SappWsn\..\zstack\ZMain\TI2530DB\" -I   /
//                          "C:\Texas Instruments\ZStack-CC2530-IOT\Projects\ /
//                          SappWsn\..\..\Components\hal\include\" -I         /
//                          "C:\Texas Instruments\ZStack-CC2530-IOT\Projects\ /
//                          SappWsn\..\..\Components\hal\target\CC2530EB\"    /
//                          -I "C:\Texas Instruments\ZStack-CC2530-IOT\Projec /
//                          ts\SappWsn\..\..\Components\mac\include\" -I      /
//                          "C:\Texas Instruments\ZStack-CC2530-IOT\Projects\ /
//                          SappWsn\..\..\Components\mac\high_level\" -I      /
//                          "C:\Texas Instruments\ZStack-CC2530-IOT\Projects\ /
//                          SappWsn\..\..\Components\mac\low_level\srf04\"    /
//                          -I "C:\Texas Instruments\ZStack-CC2530-IOT\Projec /
//                          ts\SappWsn\..\..\Components\mac\low_level\srf04\s /
//                          ingle_chip\" -I "C:\Texas                         /
//                          Instruments\ZStack-CC2530-IOT\Projects\SappWsn\.. /
//                          \..\Components\mt\" -I "C:\Texas                  /
//                          Instruments\ZStack-CC2530-IOT\Projects\SappWsn\.. /
//                          \..\Components\osal\include\" -I "C:\Texas        /
//                          Instruments\ZStack-CC2530-IOT\Projects\SappWsn\.. /
//                          \..\Components\services\saddr\" -I "C:\Texas      /
//                          Instruments\ZStack-CC2530-IOT\Projects\SappWsn\.. /
//                          \..\Components\services\sdata\" -I "C:\Texas      /
//                          Instruments\ZStack-CC2530-IOT\Projects\SappWsn\.. /
//                          \..\Components\stack\af\" -I "C:\Texas            /
//                          Instruments\ZStack-CC2530-IOT\Projects\SappWsn\.. /
//                          \..\Components\stack\nwk\" -I "C:\Texas           /
//                          Instruments\ZStack-CC2530-IOT\Projects\SappWsn\.. /
//                          \..\Components\stack\sapi\" -I "C:\Texas          /
//                          Instruments\ZStack-CC2530-IOT\Projects\SappWsn\.. /
//                          \..\Components\stack\sec\" -I "C:\Texas           /
//                          Instruments\ZStack-CC2530-IOT\Projects\SappWsn\.. /
//                          \..\Components\stack\sys\" -I "C:\Texas           /
//                          Instruments\ZStack-CC2530-IOT\Projects\SappWsn\.. /
//                          \..\Components\stack\zdo\" -I "C:\Texas           /
//                          Instruments\ZStack-CC2530-IOT\Projects\SappWsn\.. /
//                          \..\Components\zmac\" -I "C:\Texas                /
//                          Instruments\ZStack-CC2530-IOT\Projects\SappWsn\.. /
//                          \..\Components\zmac\f8w\" -Ohz                    /
//                          --require_prototypes                              /
//    List file          =  C:\Texas Instruments\ZStack-CC2530-IOT\Projects\S /
//                          appWsn\RouterEB\List\SAPP_Device.s51              /
//                                                                            /
//                                                                            /
///////////////////////////////////////////////////////////////////////////////

        NAME SAPP_Device

        RTMODEL "__SystemLibrary", "CLib"
        RTMODEL "__calling_convention", "xdata_reentrant"
        RTMODEL "__code_model", "banked"
        RTMODEL "__core", "plain"
        RTMODEL "__data_model", "large"
        RTMODEL "__dptr_size", "16"
        RTMODEL "__extended_stack", "disabled"
        RTMODEL "__location_for_constants", "data"
        RTMODEL "__number_of_dptrs", "1"
        RTMODEL "__rt_version", "1"

        RSEG DOVERLAY:DATA:NOROOT(0)
        RSEG IOVERLAY:IDATA:NOROOT(0)
        RSEG ISTACK:IDATA:NOROOT(0)
        RSEG PSTACK:XDATA:NOROOT(0)
        RSEG XSTACK:XDATA:NOROOT(0)

        EXTERN ?ALLOC_XSTACK8
        EXTERN ?BANKED_ENTER_XDATA
        EXTERN ?BANKED_LEAVE_XDATA
        EXTERN ?BDISPATCH
        EXTERN ?BRET
        EXTERN ?DEALLOC_XSTACK8
        EXTERN ?FLT_ADD
        EXTERN ?FLT_DIV
        EXTERN ?FLT_MUL
        EXTERN ?FLT_SUB
        EXTERN ?FLT_TO_L
        EXTERN ?L_MOV_X
        EXTERN ?PUSH_XSTACK_I_ONE
        EXTERN ?UL_SHR
        EXTERN ?UL_TO_FLT
        EXTERN ?US_SHR
        EXTERN ?V0
        EXTERN ?XSP
        EXTERN ?XSTACK_DISP0_8
        EXTERN __INIT_XDATA_I
        EXTERN __INIT_XDATA_Z

        PUBWEAK `??P1_ISR??INTVEC 123`
        PUBLIC ??SendASignal?relay
        FUNCTION ??SendASignal?relay,0203H
        PUBLIC ??SensorBd0ResAvailable?relay
        FUNCTION ??SensorBd0ResAvailable?relay,0203H
        PUBLIC ??SensorBd0Timeout?relay
        FUNCTION ??SensorBd0Timeout?relay,0203H
        PUBWEAK P1IFG
        PUBLIC P1_ISR
        FUNCTION P1_ISR,0233H
        ARGFRAME XSTACK, 0, STACK
        LOCFRAME ISTACK, 4, STACK
        PUBLIC RfidStatus
        PUBLIC SendASignal
        FUNCTION SendASignal,080203H
        ARGFRAME XSTACK, 0, STACK
        PUBLIC SensorBd0ResAvailable
        FUNCTION SensorBd0ResAvailable,021603H
        ARGFRAME XSTACK, 0, STACK
        LOCFRAME XSTACK, 9, STACK
        PUBLIC SensorBd0Timeout
        FUNCTION SensorBd0Timeout,021603H
        ARGFRAME XSTACK, 0, STACK
        LOCFRAME ISTACK, 1, STACK
        LOCFRAME XSTACK, 38, STACK
        PUBLIC WaterFlowCount
        PUBWEAK _A_IRCON2
        PUBWEAK _A_P0
        PUBWEAK _A_P1
        PUBWEAK __Constant_3c000000
        PUBWEAK __Constant_3c23d70a
        PUBWEAK __Constant_3d25e354
        PUBWEAK __Constant_40333333
        PUBWEAK __Constant_41c80000
        PUBWEAK __Constant_43a50000
        PUBWEAK __Constant_44b90000
        PUBWEAK __Constant_49742400
        PUBWEAK __Constant_c0800000
        PUBWEAK __Constant_c21e8f5c
        PUBWEAK __Constant_c2480000
        PUBLIC fLibrate
        PUBLIC funcCount
        PUBLIC funcList
        PUBLIC rxByte
        PUBLIC rxBytePtr
        PUBLIC seg7table
        
        CFI Names cfiNames0
        CFI StackFrame CFA_SP SP IDATA
        CFI StackFrame CFA_PSP16 PSP16 XDATA
        CFI StackFrame CFA_XSP16 XSP16 XDATA
        CFI StaticOverlayFrame CFA_IOVERLAY IOVERLAY
        CFI StaticOverlayFrame CFA_DOVERLAY DOVERLAY
        CFI Resource `PSW.CY`:1, `B.BR0`:1, `B.BR1`:1, `B.BR2`:1, `B.BR3`:1
        CFI Resource `B.BR4`:1, `B.BR5`:1, `B.BR6`:1, `B.BR7`:1, `VB.BR8`:1
        CFI Resource `VB.BR9`:1, `VB.BR10`:1, `VB.BR11`:1, `VB.BR12`:1
        CFI Resource `VB.BR13`:1, `VB.BR14`:1, `VB.BR15`:1, VB:8, B:8, A:8
        CFI Resource PSW:8, DPL0:8, DPH0:8, R0:8, R1:8, R2:8, R3:8, R4:8, R5:8
        CFI Resource R6:8, R7:8, V0:8, V1:8, V2:8, V3:8, V4:8, V5:8, V6:8, V7:8
        CFI Resource V8:8, V9:8, V10:8, V11:8, V12:8, V13:8, V14:8, V15:8, SP:8
        CFI Resource PSPH:8, PSPL:8, PSP16:16, XSPH:8, XSPL:8, XSP16:16
        CFI VirtualResource ?RET:24
        CFI Resource ?BRET_EXT:8
        CFI VirtualResource ?RET_HIGH:8, ?RET_LOW:8
        CFI ResourceParts PSP16 PSPH, PSPL
        CFI ResourceParts XSP16 XSPH, XSPL
        CFI ResourceParts ?RET ?BRET_EXT, ?RET_HIGH, ?RET_LOW
        CFI EndNames cfiNames0
        
        CFI Common cfiCommon0 Using cfiNames0
        CFI CodeAlign 1
        CFI DataAlign -1
        CFI ReturnAddress ?RET CODE
        CFI CFA_DOVERLAY Used
        CFI CFA_IOVERLAY Used
        CFI CFA_SP SP+-2
        CFI CFA_PSP16 PSP16+0
        CFI CFA_XSP16 XSP16+0
        CFI `PSW.CY` SameValue
        CFI `B.BR0` SameValue
        CFI `B.BR1` SameValue
        CFI `B.BR2` SameValue
        CFI `B.BR3` SameValue
        CFI `B.BR4` SameValue
        CFI `B.BR5` SameValue
        CFI `B.BR6` SameValue
        CFI `B.BR7` SameValue
        CFI `VB.BR8` SameValue
        CFI `VB.BR9` SameValue
        CFI `VB.BR10` SameValue
        CFI `VB.BR11` SameValue
        CFI `VB.BR12` SameValue
        CFI `VB.BR13` SameValue
        CFI `VB.BR14` SameValue
        CFI `VB.BR15` SameValue
        CFI VB SameValue
        CFI B SameValue
        CFI A SameValue
        CFI PSW SameValue
        CFI DPL0 SameValue
        CFI DPH0 SameValue
        CFI R0 SameValue
        CFI R1 SameValue
        CFI R2 SameValue
        CFI R3 SameValue
        CFI R4 SameValue
        CFI R5 SameValue
        CFI R6 SameValue
        CFI R7 SameValue
        CFI V0 SameValue
        CFI V1 SameValue
        CFI V2 SameValue
        CFI V3 SameValue
        CFI V4 SameValue
        CFI V5 SameValue
        CFI V6 SameValue
        CFI V7 SameValue
        CFI V8 SameValue
        CFI V9 SameValue
        CFI V10 SameValue
        CFI V11 SameValue
        CFI V12 SameValue
        CFI V13 SameValue
        CFI V14 SameValue
        CFI V15 SameValue
        CFI PSPH Undefined
        CFI PSPL Undefined
        CFI XSPH Undefined
        CFI XSPL Undefined
        CFI ?RET Concat
        CFI ?BRET_EXT SameValue
        CFI ?RET_HIGH Frame(CFA_SP, 2)
        CFI ?RET_LOW Frame(CFA_SP, 1)
        CFI EndCommon cfiCommon0
        
        
        CFI Common cfiCommon1 Using cfiNames0
        CFI CodeAlign 1
        CFI DataAlign -1
        CFI ReturnAddress ?RET CODE
        CFI CFA_DOVERLAY Used
        CFI CFA_IOVERLAY Used
        CFI CFA_SP SP+-3
        CFI CFA_PSP16 PSP16+0
        CFI CFA_XSP16 XSP16+0
        CFI `PSW.CY` SameValue
        CFI `B.BR0` SameValue
        CFI `B.BR1` SameValue
        CFI `B.BR2` SameValue
        CFI `B.BR3` SameValue
        CFI `B.BR4` SameValue
        CFI `B.BR5` SameValue
        CFI `B.BR6` SameValue
        CFI `B.BR7` SameValue
        CFI `VB.BR8` SameValue
        CFI `VB.BR9` SameValue
        CFI `VB.BR10` SameValue
        CFI `VB.BR11` SameValue
        CFI `VB.BR12` SameValue
        CFI `VB.BR13` SameValue
        CFI `VB.BR14` SameValue
        CFI `VB.BR15` SameValue
        CFI VB SameValue
        CFI B Undefined
        CFI A Undefined
        CFI PSW SameValue
        CFI DPL0 SameValue
        CFI DPH0 SameValue
        CFI R0 Undefined
        CFI R1 Undefined
        CFI R2 Undefined
        CFI R3 Undefined
        CFI R4 Undefined
        CFI R5 Undefined
        CFI R6 SameValue
        CFI R7 SameValue
        CFI V0 SameValue
        CFI V1 SameValue
        CFI V2 SameValue
        CFI V3 SameValue
        CFI V4 SameValue
        CFI V5 SameValue
        CFI V6 SameValue
        CFI V7 SameValue
        CFI V8 SameValue
        CFI V9 SameValue
        CFI V10 SameValue
        CFI V11 SameValue
        CFI V12 SameValue
        CFI V13 SameValue
        CFI V14 SameValue
        CFI V15 SameValue
        CFI PSPH Undefined
        CFI PSPL Undefined
        CFI XSPH Undefined
        CFI XSPL Undefined
        CFI ?RET Concat
        CFI ?BRET_EXT Frame(CFA_SP, 3)
        CFI ?RET_HIGH Frame(CFA_SP, 2)
        CFI ?RET_LOW Frame(CFA_SP, 1)
        CFI EndCommon cfiCommon1
        
Sensor_PIN_INT      SYMBOL "Sensor_PIN_INT"
NLME_GetCoordShortAddr SYMBOL "NLME_GetCoordShortAddr"
ReadAdcValue        SYMBOL "ReadAdcValue"
ReadSHT1            SYMBOL "ReadSHT1"
SendData            SYMBOL "SendData"
??NLME_GetCoordShortAddr?relay SYMBOL "?relay", NLME_GetCoordShortAddr
??ReadAdcValue?relay SYMBOL "?relay", ReadAdcValue
??ReadSHT1?relay    SYMBOL "?relay", ReadSHT1
`?<Name RouterIncomingRoutin 8>` SYMBOL "RouterIncomingRoutine"
??RouterIncomingRoutine?relay SYMBOL "?relay", `?<Name RouterIncomingRoutin 8>`
`?<Name RouterTimeoutRoutine 10>` SYMBOL "RouterTimeoutRoutine"
??RouterTimeoutRoutine?relay SYMBOL "?relay", `?<Name RouterTimeoutRoutine 10>`
??SendData?relay    SYMBOL "?relay", SendData
??Sensor_PIN_INT?relay SYMBOL "?relay", Sensor_PIN_INT
P1_ISR              SYMBOL "P1_ISR"
`??P1_ISR??INTVEC 123` SYMBOL "??INTVEC 123", P1_ISR
SendASignal         SYMBOL "SendASignal"
??SendASignal?relay SYMBOL "?relay", SendASignal
SensorBd0ResAvailable SYMBOL "SensorBd0ResAvailable"
??SensorBd0ResAvailable?relay SYMBOL "?relay", SensorBd0ResAvailable
SensorBd0Timeout    SYMBOL "SensorBd0Timeout"
??SensorBd0Timeout?relay SYMBOL "?relay", SensorBd0Timeout

        EXTERN Sensor_PIN_INT
        FUNCTION Sensor_PIN_INT,0202H
        ARGFRAME ISTACK, 0, STACK
        ARGFRAME PSTACK, 0, STACK
        ARGFRAME XSTACK, 9, STACK
        ARGFRAME IOVERLAY, 0, STATIC
        ARGFRAME DOVERLAY, 0, STATIC
        EXTERN NLME_GetCoordShortAddr
        FUNCTION NLME_GetCoordShortAddr,0202H
        ARGFRAME ISTACK, 0, STACK
        ARGFRAME PSTACK, 0, STACK
        ARGFRAME XSTACK, 36, STACK
        ARGFRAME IOVERLAY, 0, STATIC
        ARGFRAME DOVERLAY, 0, STATIC
        EXTERN ReadAdcValue
        FUNCTION ReadAdcValue,0202H
        ARGFRAME ISTACK, 0, STACK
        ARGFRAME PSTACK, 0, STACK
        ARGFRAME XSTACK, 36, STACK
        ARGFRAME IOVERLAY, 0, STATIC
        ARGFRAME DOVERLAY, 0, STATIC
        EXTERN ReadSHT1
        FUNCTION ReadSHT1,0202H
        ARGFRAME ISTACK, 0, STACK
        ARGFRAME PSTACK, 0, STACK
        ARGFRAME XSTACK, 36, STACK
        ARGFRAME IOVERLAY, 0, STATIC
        ARGFRAME DOVERLAY, 0, STATIC
        EXTERN SendData
        FUNCTION SendData,0202H
        ARGFRAME ISTACK, 0, STACK
        ARGFRAME PSTACK, 0, STACK
        ARGFRAME XSTACK, 38, STACK
        ARGFRAME IOVERLAY, 0, STATIC
        ARGFRAME DOVERLAY, 0, STATIC
        EXTERN ??NLME_GetCoordShortAddr?relay
        FUNCTION ??NLME_GetCoordShortAddr?relay,00H
        EXTERN ??ReadAdcValue?relay
        FUNCTION ??ReadAdcValue?relay,00H
        EXTERN ??ReadSHT1?relay
        FUNCTION ??ReadSHT1?relay,00H
        EXTERN ??RouterIncomingRoutine?relay
        FUNCTION ??RouterIncomingRoutine?relay,00H
        EXTERN ??RouterTimeoutRoutine?relay
        FUNCTION ??RouterTimeoutRoutine?relay,00H
        EXTERN ??SendData?relay
        FUNCTION ??SendData?relay,00H
        EXTERN ??Sensor_PIN_INT?relay
        FUNCTION ??Sensor_PIN_INT?relay,00H

// C:\Texas Instruments\ZStack-CC2530-IOT\Projects\SappWsn\Source\SAPP_Device.c
//    1 #include "SAPP_Device.h"

        ASEGN SFR_AN:DATA:NOROOT,080H
// union <unnamed> volatile __sfr _A_P0
_A_P0:
        DATA8
        DS 1

        ASEGN SFR_AN:DATA:NOROOT,08aH
// unsigned char volatile __sfr P1IFG
P1IFG:
        DATA8
        DS 1

        ASEGN SFR_AN:DATA:NOROOT,090H
// union <unnamed> volatile __sfr _A_P1
_A_P1:
        DATA8
        DS 1

        ASEGN SFR_AN:DATA:NOROOT,0e8H
// union <unnamed> volatile __sfr _A_IRCON2
_A_IRCON2:
        DATA8
        DS 1
//    2 #include "Sensor.h"
//    3 #include <string.h>
//    4 void SendASignal(void);

        RSEG XDATA_Z:XDATA:NOROOT(0)
        DATA16
//    5 uint16 WaterFlowCount;
WaterFlowCount:
        DS 2
        REQUIRE __INIT_XDATA_Z

        RSEG XDATA_Z:XDATA:NOROOT(0)
        DATA8
//    6 uint8 RfidStatus = 0;
RfidStatus:
        DS 1
        REQUIRE __INIT_XDATA_Z

        RSEG XDATA_Z:XDATA:NOROOT(0)
        DATA8
//    7 uint8 rxBytePtr = 0;
rxBytePtr:
        DS 1
        REQUIRE __INIT_XDATA_Z

        RSEG XDATA_Z:XDATA:NOROOT(0)
        DATA8
//    8 uint8 rxByte[8];
rxByte:
        DS 8
        REQUIRE __INIT_XDATA_Z

        RSEG XDATA_ROM_C:CONST:REORDER:NOROOT(0)
        DATA8
//    9 const unsigned char seg7table[16] = {
seg7table:
        DB 192
        DB 249
        DB 164
        DB 176
        DB 153
        DB 146
        DB 130
        DB 248
        DB 128
        DB 144
        DB 136
        DB 131
        DB 198
        DB 161
        DB 134
        DB 142
//   10     /* 0       1       2       3       4       5       6      7*/
//   11     0xc0,   0xf9,   0xa4,   0xb0,   0x99,   0x92,   0x82,   0xf8,
//   12     /* 8       9      A        B       C       D       E      F*/
//   13     0x80,   0x90,   0x88,   0x83,   0xc6,   0xa1,   0x86,   0x8e };
//   14 
//   15 /**************************************************************/
//   16 /* 传感器列表                                                 */
//   17 /**************************************************************/
//   18 /********************************/
//   19 /* 燃气传感器                   */
//   20 /********************************/
//   21 #if !defined(ZDO_COORDINATOR)    

        RSEG XDATA_Z:XDATA:NOROOT(0)
        DATA8
//   22     bool fLibrate = 0;//1:有振动;0:无振动
fLibrate:
        DS 1
        REQUIRE __INIT_XDATA_Z
//   23 __interrupt void P1_ISR(void);    
//   24 #pragma vector = 0x007B 

        RSEG NEAR_CODE:CODE:NOROOT(0)
//   25 __interrupt void P1_ISR(void)
P1_ISR:
        CFI Block cfiBlock0 Using cfiCommon0
        CFI Function P1_ISR
        CODE
//   26 { 
        PUSH    A
        CFI A Frame(CFA_SP, 3)
        CFI CFA_SP SP+-3
        PUSH    PSW
        CFI PSW Frame(CFA_SP, 4)
        CFI CFA_SP SP+-4
        PUSH    DPL
        CFI DPL0 Frame(CFA_SP, 5)
        CFI CFA_SP SP+-5
        PUSH    DPH
        CFI DPH0 Frame(CFA_SP, 6)
        CFI CFA_SP SP+-6
        ; Saved register size: 4
        ; Auto size: 0
//   27 #if defined(SENSORBOARD0)     
//   28     if(P1IFG & (0x1<<3))
        MOV     A,0x8a
        MOV     C,0xE0 /* A   */.3
        JNC     ??P1_ISR_0
//   29         fLibrate = 1;    
        MOV     DPTR,#fLibrate
        MOV     A,#0x1
        MOVX    @DPTR,A
//   30 #endif    
//   31 #if defined(SENSORBOARD3)
//   32     if(P1IFG & (0x1<<6))
//   33         WaterFlowCount++;
//   34 #endif    
//   35     P1IFG = 0;
??P1_ISR_0:
        MOV     0x8a,#0x0
//   36     P1IF = 0;
        CLR     0xe8.3
//   37 }
        POP     DPH
        CFI DPH0 SameValue
        CFI CFA_SP SP+-5
        POP     DPL
        CFI DPL0 SameValue
        CFI CFA_SP SP+-4
        POP     PSW
        CFI PSW SameValue
        CFI CFA_SP SP+-3
        POP     A
        CFI A SameValue
        CFI CFA_SP SP+-2
        RETI
        CFI EndBlock cfiBlock0
        REQUIRE P1IFG
        REQUIRE _A_IRCON2
//   38 #endif
//   39 //传感器板0处理
//   40 #if defined(SENSORBOARD0)
//   41 void SensorBd0ResAvailable(struct ep_info_t *ep, RES_TYPE type, void *res);

        RSEG BANKED_CODE:CODE:NOROOT(0)
//   42 void SensorBd0ResAvailable(struct ep_info_t *ep, RES_TYPE type, void *res)
SensorBd0ResAvailable:
        CFI Block cfiBlock1 Using cfiCommon1
        CFI Function SensorBd0ResAvailable
        CODE
//   43 {
        FUNCALL SensorBd0ResAvailable, Sensor_PIN_INT
        LOCFRAME ISTACK, 0, STACK
        LOCFRAME PSTACK, 0, STACK
        LOCFRAME XSTACK, 9, STACK
        LOCFRAME IOVERLAY, 0, STATIC
        LOCFRAME DOVERLAY, 0, STATIC
        ARGFRAME ISTACK, 0, STACK
        ARGFRAME PSTACK, 0, STACK
        ARGFRAME XSTACK, 9, STACK
        ARGFRAME IOVERLAY, 0, STATIC
        ARGFRAME DOVERLAY, 0, STATIC
        MOV     A,#-0x9
        LCALL   ?BANKED_ENTER_XDATA
        CFI DPH0 load(1, XDATA, add(CFA_XSP16, literal(-1)))
        CFI DPL0 load(1, XDATA, add(CFA_XSP16, literal(-2)))
        CFI ?BRET_EXT load(1, XDATA, add(CFA_XSP16, literal(-3)))
        CFI ?RET_HIGH load(1, XDATA, add(CFA_XSP16, literal(-4)))
        CFI ?RET_LOW load(1, XDATA, add(CFA_XSP16, literal(-5)))
        CFI R7 load(1, XDATA, add(CFA_XSP16, literal(-6)))
        CFI V0 load(1, XDATA, add(CFA_XSP16, literal(-7)))
        CFI VB load(1, XDATA, add(CFA_XSP16, literal(-8)))
        CFI R6 load(1, XDATA, add(CFA_XSP16, literal(-9)))
        CFI CFA_SP SP+0
        CFI CFA_XSP16 add(XSP16, 9)
        ; Saved register size: 9
        ; Auto size: 0
        MOV     A,R1
        MOV     R6,A
//   44     if(type == ResInit)
        MOV     A,#0x1
        XRL     A,R6
        JNZ     ??SensorBd0ResAvailable_0
//   45     {
//   46         Sensor_PIN_INT(0);
        ; Setup parameters for call to function Sensor_PIN_INT
        MOV     R1,#0x0
        LCALL   ??Sensor_PIN_INT?relay
//   47     }
//   48 }
??SensorBd0ResAvailable_0:
        MOV     R7,#0x1
        LJMP    ?BANKED_LEAVE_XDATA
        CFI EndBlock cfiBlock1
//   49 void SensorBd0Timeout(struct ep_info_t *ep);

        RSEG BANKED_CODE:CODE:NOROOT(0)
//   50 void SensorBd0Timeout(struct ep_info_t *ep)
SensorBd0Timeout:
        CFI Block cfiBlock2 Using cfiCommon1
        CFI Function SensorBd0Timeout
        CODE
//   51 {       
        FUNCALL SensorBd0Timeout, NLME_GetCoordShortAddr
        LOCFRAME ISTACK, 0, STACK
        LOCFRAME PSTACK, 0, STACK
        LOCFRAME XSTACK, 36, STACK
        LOCFRAME IOVERLAY, 0, STATIC
        LOCFRAME DOVERLAY, 0, STATIC
        ARGFRAME ISTACK, 0, STACK
        ARGFRAME PSTACK, 0, STACK
        ARGFRAME XSTACK, 36, STACK
        ARGFRAME IOVERLAY, 0, STATIC
        ARGFRAME DOVERLAY, 0, STATIC
        FUNCALL SensorBd0Timeout, ReadAdcValue
        LOCFRAME ISTACK, 0, STACK
        LOCFRAME PSTACK, 0, STACK
        LOCFRAME XSTACK, 36, STACK
        LOCFRAME IOVERLAY, 0, STATIC
        LOCFRAME DOVERLAY, 0, STATIC
        ARGFRAME ISTACK, 0, STACK
        ARGFRAME PSTACK, 0, STACK
        ARGFRAME XSTACK, 36, STACK
        ARGFRAME IOVERLAY, 0, STATIC
        ARGFRAME DOVERLAY, 0, STATIC
        FUNCALL SensorBd0Timeout, ReadAdcValue
        LOCFRAME ISTACK, 0, STACK
        LOCFRAME PSTACK, 0, STACK
        LOCFRAME XSTACK, 36, STACK
        LOCFRAME IOVERLAY, 0, STATIC
        LOCFRAME DOVERLAY, 0, STATIC
        ARGFRAME ISTACK, 0, STACK
        ARGFRAME PSTACK, 0, STACK
        ARGFRAME XSTACK, 36, STACK
        ARGFRAME IOVERLAY, 0, STATIC
        ARGFRAME DOVERLAY, 0, STATIC
        FUNCALL SensorBd0Timeout, ReadAdcValue
        LOCFRAME ISTACK, 0, STACK
        LOCFRAME PSTACK, 0, STACK
        LOCFRAME XSTACK, 36, STACK
        LOCFRAME IOVERLAY, 0, STATIC
        LOCFRAME DOVERLAY, 0, STATIC
        ARGFRAME ISTACK, 0, STACK
        ARGFRAME PSTACK, 0, STACK
        ARGFRAME XSTACK, 36, STACK
        ARGFRAME IOVERLAY, 0, STATIC
        ARGFRAME DOVERLAY, 0, STATIC
        FUNCALL SensorBd0Timeout, ReadSHT1
        LOCFRAME ISTACK, 0, STACK
        LOCFRAME PSTACK, 0, STACK
        LOCFRAME XSTACK, 36, STACK
        LOCFRAME IOVERLAY, 0, STATIC
        LOCFRAME DOVERLAY, 0, STATIC
        ARGFRAME ISTACK, 0, STACK
        ARGFRAME PSTACK, 0, STACK
        ARGFRAME XSTACK, 36, STACK
        ARGFRAME IOVERLAY, 0, STATIC
        ARGFRAME DOVERLAY, 0, STATIC
        FUNCALL SensorBd0Timeout, ReadSHT1
        LOCFRAME ISTACK, 0, STACK
        LOCFRAME PSTACK, 0, STACK
        LOCFRAME XSTACK, 36, STACK
        LOCFRAME IOVERLAY, 0, STATIC
        LOCFRAME DOVERLAY, 0, STATIC
        ARGFRAME ISTACK, 0, STACK
        ARGFRAME PSTACK, 0, STACK
        ARGFRAME XSTACK, 36, STACK
        ARGFRAME IOVERLAY, 0, STATIC
        ARGFRAME DOVERLAY, 0, STATIC
        FUNCALL SensorBd0Timeout, ReadAdcValue
        LOCFRAME ISTACK, 0, STACK
        LOCFRAME PSTACK, 0, STACK
        LOCFRAME XSTACK, 36, STACK
        LOCFRAME IOVERLAY, 0, STATIC
        LOCFRAME DOVERLAY, 0, STATIC
        ARGFRAME ISTACK, 0, STACK
        ARGFRAME PSTACK, 0, STACK
        ARGFRAME XSTACK, 36, STACK
        ARGFRAME IOVERLAY, 0, STATIC
        ARGFRAME DOVERLAY, 0, STATIC
        FUNCALL SensorBd0Timeout, SendData
        LOCFRAME ISTACK, 0, STACK
        LOCFRAME PSTACK, 0, STACK
        LOCFRAME XSTACK, 38, STACK
        LOCFRAME IOVERLAY, 0, STATIC
        LOCFRAME DOVERLAY, 0, STATIC
        ARGFRAME ISTACK, 0, STACK
        ARGFRAME PSTACK, 0, STACK
        ARGFRAME XSTACK, 38, STACK
        ARGFRAME IOVERLAY, 0, STATIC
        ARGFRAME DOVERLAY, 0, STATIC
        MOV     A,#-0x18
        LCALL   ?BANKED_ENTER_XDATA
        CFI DPH0 load(1, XDATA, add(CFA_XSP16, literal(-1)))
        CFI DPL0 load(1, XDATA, add(CFA_XSP16, literal(-2)))
        CFI ?BRET_EXT load(1, XDATA, add(CFA_XSP16, literal(-3)))
        CFI ?RET_HIGH load(1, XDATA, add(CFA_XSP16, literal(-4)))
        CFI ?RET_LOW load(1, XDATA, add(CFA_XSP16, literal(-5)))
        CFI R7 load(1, XDATA, add(CFA_XSP16, literal(-6)))
        CFI V15 load(1, XDATA, add(CFA_XSP16, literal(-7)))
        CFI V14 load(1, XDATA, add(CFA_XSP16, literal(-8)))
        CFI V13 load(1, XDATA, add(CFA_XSP16, literal(-9)))
        CFI V12 load(1, XDATA, add(CFA_XSP16, literal(-10)))
        CFI V11 load(1, XDATA, add(CFA_XSP16, literal(-11)))
        CFI V10 load(1, XDATA, add(CFA_XSP16, literal(-12)))
        CFI V9 load(1, XDATA, add(CFA_XSP16, literal(-13)))
        CFI V8 load(1, XDATA, add(CFA_XSP16, literal(-14)))
        CFI V7 load(1, XDATA, add(CFA_XSP16, literal(-15)))
        CFI V6 load(1, XDATA, add(CFA_XSP16, literal(-16)))
        CFI V5 load(1, XDATA, add(CFA_XSP16, literal(-17)))
        CFI V4 load(1, XDATA, add(CFA_XSP16, literal(-18)))
        CFI V3 load(1, XDATA, add(CFA_XSP16, literal(-19)))
        CFI V2 load(1, XDATA, add(CFA_XSP16, literal(-20)))
        CFI V1 load(1, XDATA, add(CFA_XSP16, literal(-21)))
        CFI V0 load(1, XDATA, add(CFA_XSP16, literal(-22)))
        CFI VB load(1, XDATA, add(CFA_XSP16, literal(-23)))
        CFI R6 load(1, XDATA, add(CFA_XSP16, literal(-24)))
        CFI CFA_SP SP+0
        CFI CFA_XSP16 add(XSP16, 24)
        ; Saved register size: 24
        ; Auto size: 12
        MOV     A,#-0xc
        LCALL   ?ALLOC_XSTACK8
        CFI CFA_XSP16 add(XSP16, 36)
        MOV     A,R2
        MOV     R6,A
        MOV     A,R3
        MOV     R7,A
//   52     uint8 SendBuf[12];
//   53     uint16 AdValue;  
//   54     float RHTValue;
//   55     uint32 lTemp;
//   56     uint16 ParentShortAddr;
//   57     ParentShortAddr = NLME_GetCoordShortAddr();
        ; Setup parameters for call to function NLME_GetCoordShortAddr
        LCALL   ??NLME_GetCoordShortAddr?relay
//   58     SendBuf[0] = (unsigned char)(ParentShortAddr);
        MOV     A,R2
        MOV     DPL,?XSP + 0
        MOV     DPH,?XSP + 1
        MOVX    @DPTR,A
//   59     SendBuf[1] = (unsigned char)(ParentShortAddr>>8);
        MOV     A,#0x1
        LCALL   ?XSTACK_DISP0_8
        MOV     A,R3
        MOVX    @DPTR,A
//   60 #if defined(RTR_NWK)
//   61     SendBuf[2] = 0x40 | 0;
        MOV     A,#0x2
        LCALL   ?XSTACK_DISP0_8
        MOV     A,#0x40
        LCALL   ??Subroutine2_0 & 0xFFFF
//   62 #else
//   63     SendBuf[2] = 0x80 | 0;
//   64 #endif
//   65     AdValue = ReadAdcValue(0x1,3,2);
//   66     SendBuf[3] = (uint8)(AdValue>>6);//A/D采集                                                                                       
??CrossCallReturnLabel_5:
        MOV     R1,#0x1
        LCALL   ?Subroutine0 & 0xFFFF
??CrossCallReturnLabel_0:
        LCALL   ?US_SHR
        MOV     A,#0x3
        LCALL   ?XSTACK_DISP0_8
        LCALL   ?Subroutine1 & 0xFFFF
//   67     AdValue = ReadAdcValue(0xe,3,2);   
//   68     RHTValue = AdValue;
//   69     RHTValue = RHTValue /1480 * 25;    
//   70     SendBuf[4] = (uint8)(RHTValue);//主板温度   
??CrossCallReturnLabel_3:
        MOV     R1,#0xe
        LCALL   ??ReadAdcValue?relay
        MOV     ?V0 + 0,R2
        MOV     ?V0 + 1,R3
        CLR     A
        MOV     ?V0 + 2,A
        MOV     ?V0 + 3,A
        MOV     R0,#?V0 + 0
        LCALL   ?UL_TO_FLT
        MOV     DPTR,#__Constant_44b90000
        MOV     R0,#?V0 + 4
        LCALL   ?L_MOV_X
        MOV     R0,#?V0 + 0
        MOV     R1,#?V0 + 4
        LCALL   ?FLT_DIV
        MOV     DPTR,#__Constant_41c80000
        MOV     R0,#?V0 + 4
        LCALL   ?L_MOV_X
        MOV     R0,#?V0 + 0
        MOV     R1,#?V0 + 4
        LCALL   ?FLT_MUL
        MOV     R0,#?V0 + 0
        LCALL   ?FLT_TO_L
        MOV     A,#0x4
        LCALL   ?XSTACK_DISP0_8
        LCALL   ?Subroutine1 & 0xFFFF
//   71     
//   72     AdValue = ReadAdcValue(0x6,3,2);
//   73     AdValue = AdValue>>6;
//   74     RHTValue = AdValue;
//   75     RHTValue = 330*RHTValue/128-50;
//   76     SendBuf[5] = (uint8)RHTValue;//传感器板温度   
??CrossCallReturnLabel_4:
        MOV     R1,#0x6
        LCALL   ?Subroutine0 & 0xFFFF
??CrossCallReturnLabel_1:
        LCALL   ?US_SHR
        MOV     ?V0 + 2,A
        MOV     ?V0 + 3,A
        MOV     R0,#?V0 + 0
        LCALL   ?UL_TO_FLT
        MOV     DPTR,#__Constant_43a50000
        MOV     R0,#?V0 + 4
        LCALL   ?L_MOV_X
        MOV     R0,#?V0 + 0
        MOV     R1,#?V0 + 4
        LCALL   ?FLT_MUL
        MOV     DPTR,#__Constant_3c000000
        MOV     R0,#?V0 + 4
        LCALL   ?L_MOV_X
        MOV     R0,#?V0 + 0
        MOV     R1,#?V0 + 4
        LCALL   ?FLT_MUL
        MOV     DPTR,#__Constant_c2480000
        MOV     R0,#?V0 + 4
        LCALL   ?L_MOV_X
        MOV     R0,#?V0 + 0
        MOV     R1,#?V0 + 4
        LCALL   ?FLT_ADD
        MOV     R0,#?V0 + 0
        LCALL   ?FLT_TO_L
        MOV     A,#0x5
        LCALL   ?XSTACK_DISP0_8
        MOV     A,?V0 + 0
        MOVX    @DPTR,A
//   77                   
//   78     //SHT1_WriteReg(0x1);
//   79     //Temp = SHT1_ReadReg();                            
//   80     lTemp = ReadSHT1(3);//14bit温度
//   81     lTemp = lTemp >> 8;
//   82     RHTValue = lTemp;
//   83     RHTValue = 0.01 * RHTValue - 39.64;                   
//   84     SendBuf[6] = (uint8)RHTValue;//温湿度传感器温度  
        ; Setup parameters for call to function ReadSHT1
        MOV     R1,#0x3
        LCALL   ??ReadSHT1?relay
        MOV     ?V0 + 0,R2
        MOV     ?V0 + 1,R3
        MOV     ?V0 + 2,R4
        MOV     ?V0 + 3,R5
        MOV     A,#0x8
        MOV     R0,#?V0 + 0
        LCALL   ?UL_SHR
        MOV     R0,#?V0 + 0
        LCALL   ?UL_TO_FLT
        MOV     DPTR,#__Constant_3c23d70a
        MOV     R0,#?V0 + 4
        LCALL   ?L_MOV_X
        MOV     R0,#?V0 + 0
        MOV     R1,#?V0 + 4
        LCALL   ?FLT_MUL
        MOV     DPTR,#__Constant_c21e8f5c
        MOV     R0,#?V0 + 4
        LCALL   ?L_MOV_X
        MOV     R0,#?V0 + 0
        MOV     R1,#?V0 + 4
        LCALL   ?FLT_ADD
        MOV     R0,#?V0 + 0
        LCALL   ?FLT_TO_L
        MOV     A,#0x6
        LCALL   ?XSTACK_DISP0_8
        MOV     A,?V0 + 0
        MOVX    @DPTR,A
//   85                   
//   86     lTemp = ReadSHT1(5);//12bit湿度                  
//   87     lTemp = lTemp >> 8;
//   88     RHTValue = lTemp;
        ; Setup parameters for call to function ReadSHT1
        MOV     R1,#0x5
        LCALL   ??ReadSHT1?relay
        MOV     ?V0 + 4,R2
        MOV     ?V0 + 5,R3
        MOV     ?V0 + 6,R4
        MOV     ?V0 + 7,R5
        MOV     A,#0x8
        MOV     R0,#?V0 + 4
        LCALL   ?UL_SHR
        MOV     R0,#?V0 + 4
        LCALL   ?UL_TO_FLT
//   89     RHTValue = 0.0405 * RHTValue -4 - 2.8*RHTValue*RHTValue/1000000;                                                      
//   90     SendBuf[7] = (uint8)RHTValue;//温湿度传感器湿度 
        MOV     ?V0 + 8,?V0 + 4
        MOV     ?V0 + 9,?V0 + 5
        MOV     ?V0 + 10,?V0 + 6
        MOV     ?V0 + 11,?V0 + 7
        MOV     DPTR,#__Constant_3d25e354
        MOV     R0,#?V0 + 0
        LCALL   ?L_MOV_X
        MOV     R0,#?V0 + 8
        MOV     R1,#?V0 + 0
        LCALL   ?FLT_MUL
        MOV     DPTR,#__Constant_c0800000
        MOV     R0,#?V0 + 0
        LCALL   ?L_MOV_X
        MOV     R0,#?V0 + 8
        MOV     R1,#?V0 + 0
        LCALL   ?FLT_ADD
        MOV     ?V0 + 0,?V0 + 4
        MOV     ?V0 + 1,?V0 + 5
        MOV     ?V0 + 2,?V0 + 6
        MOV     ?V0 + 3,?V0 + 7
        MOV     DPTR,#__Constant_40333333
        MOV     R0,#?V0 + 12
        LCALL   ?L_MOV_X
        MOV     R0,#?V0 + 0
        MOV     R1,#?V0 + 12
        LCALL   ?FLT_MUL
        MOV     R0,#?V0 + 0
        MOV     R1,#?V0 + 4
        LCALL   ?FLT_MUL
        MOV     DPTR,#__Constant_49742400
        MOV     R0,#?V0 + 4
        LCALL   ?L_MOV_X
        MOV     R0,#?V0 + 0
        MOV     R1,#?V0 + 4
        LCALL   ?FLT_DIV
        MOV     R0,#?V0 + 8
        MOV     R1,#?V0 + 0
        LCALL   ?FLT_SUB
        MOV     R0,#?V0 + 8
        LCALL   ?FLT_TO_L
        MOV     A,#0x7
        LCALL   ?XSTACK_DISP0_8
        MOV     A,?V0 + 8
        LCALL   ??Subroutine2_0 & 0xFFFF
//   91                   
//   92     AdValue = ReadAdcValue(0x4,3,2);
//   93     SendBuf[8] = (uint8)(AdValue>>6);//光照
??CrossCallReturnLabel_6:
        MOV     R1,#0x4
        LCALL   ?Subroutine0 & 0xFFFF
??CrossCallReturnLabel_2:
        LCALL   ?US_SHR
        MOV     A,#0x8
        LCALL   ?XSTACK_DISP0_8
        MOV     A,?V0 + 0
        MOVX    @DPTR,A
//   94                   
//   95     SendBuf[9] = (uint8)fLibrate;//振动
        MOV     DPTR,#fLibrate
        MOVX    A,@DPTR
        PUSH    A
        CFI CFA_SP SP+-1
        MOV     A,#0x9
        LCALL   ?XSTACK_DISP0_8
        POP     A
        CFI CFA_SP SP+0
        MOVX    @DPTR,A
//   96     fLibrate = 0;
        MOV     DPTR,#fLibrate
        CLR     A
        MOVX    @DPTR,A
//   97     SendBuf[10] = (P0>>5)&0x1;//人体感应                             	
        MOV     C,0x80.5
        RLC     A
        PUSH    A
        CFI CFA_SP SP+-1
        MOV     A,#0xa
        LCALL   ?XSTACK_DISP0_8
        POP     A
        CFI CFA_SP SP+0
        MOVX    @DPTR,A
//   98     SendData(ep->ep, &SendBuf[0], 0x0000, TRANSFER_ENDPOINT, 11);
        ; Setup parameters for call to function SendData
        MOV     ?V0 + 0,#0xb
        MOV     R0,#?V0 + 0
        LCALL   ?PUSH_XSTACK_I_ONE
        CFI CFA_XSP16 add(XSP16, 37)
        MOV     ?V0 + 0,#0x1
        MOV     R0,#?V0 + 0
        LCALL   ?PUSH_XSTACK_I_ONE
        CFI CFA_XSP16 add(XSP16, 38)
        MOV     R4,#0x0
        MOV     R5,#0x0
        MOV     A,#0x2
        LCALL   ?XSTACK_DISP0_8
        MOV     R2,DPL
        MOV     R3,DPH
        MOV     A,R6
        ADD     A,#0xb
        MOV     DPL,A
        MOV     A,R7
        ADDC    A,#0x0
        MOV     DPH,A
        MOVX    A,@DPTR
        MOV     R1,A
        LCALL   ??SendData?relay
        MOV     A,#0x2
        LCALL   ?DEALLOC_XSTACK8
        CFI CFA_XSP16 add(XSP16, 36)
//   99 }   
        MOV     A,#0xc
        LCALL   ?DEALLOC_XSTACK8
        CFI CFA_XSP16 add(XSP16, 24)
        MOV     R7,#0x10
        LJMP    ?BANKED_LEAVE_XDATA
        CFI EndBlock cfiBlock2
        REQUIRE _A_P0

        RSEG BANKED_CODE:CODE:NOROOT(0)
?Subroutine1:
        CFI Block cfiCond3 Using cfiCommon1
        CFI NoFunction
        CFI Conditional ??CrossCallReturnLabel_3
        CFI R6 load(1, XDATA, add(CFA_XSP16, literal(-24)))
        CFI VB load(1, XDATA, add(CFA_XSP16, literal(-23)))
        CFI V0 load(1, XDATA, add(CFA_XSP16, literal(-22)))
        CFI V1 load(1, XDATA, add(CFA_XSP16, literal(-21)))
        CFI V2 load(1, XDATA, add(CFA_XSP16, literal(-20)))
        CFI V3 load(1, XDATA, add(CFA_XSP16, literal(-19)))
        CFI V4 load(1, XDATA, add(CFA_XSP16, literal(-18)))
        CFI V5 load(1, XDATA, add(CFA_XSP16, literal(-17)))
        CFI V6 load(1, XDATA, add(CFA_XSP16, literal(-16)))
        CFI V7 load(1, XDATA, add(CFA_XSP16, literal(-15)))
        CFI V8 load(1, XDATA, add(CFA_XSP16, literal(-14)))
        CFI V9 load(1, XDATA, add(CFA_XSP16, literal(-13)))
        CFI V10 load(1, XDATA, add(CFA_XSP16, literal(-12)))
        CFI V11 load(1, XDATA, add(CFA_XSP16, literal(-11)))
        CFI V12 load(1, XDATA, add(CFA_XSP16, literal(-10)))
        CFI V13 load(1, XDATA, add(CFA_XSP16, literal(-9)))
        CFI V14 load(1, XDATA, add(CFA_XSP16, literal(-8)))
        CFI V15 load(1, XDATA, add(CFA_XSP16, literal(-7)))
        CFI R7 load(1, XDATA, add(CFA_XSP16, literal(-6)))
        CFI ?RET_LOW load(1, XDATA, add(CFA_XSP16, literal(-5)))
        CFI ?RET_HIGH load(1, XDATA, add(CFA_XSP16, literal(-4)))
        CFI ?BRET_EXT load(1, XDATA, add(CFA_XSP16, literal(-3)))
        CFI DPL0 load(1, XDATA, add(CFA_XSP16, literal(-2)))
        CFI DPH0 load(1, XDATA, add(CFA_XSP16, literal(-1)))
        CFI CFA_SP SP+0
        CFI CFA_XSP16 add(XSP16, 36)
        CFI Block cfiCond4 Using cfiCommon1
        CFI (cfiCond4) NoFunction
        CFI (cfiCond4) Conditional ??CrossCallReturnLabel_4
        CFI (cfiCond4) R6 load(1, XDATA, add(CFA_XSP16, literal(-24)))
        CFI (cfiCond4) VB load(1, XDATA, add(CFA_XSP16, literal(-23)))
        CFI (cfiCond4) V0 load(1, XDATA, add(CFA_XSP16, literal(-22)))
        CFI (cfiCond4) V1 load(1, XDATA, add(CFA_XSP16, literal(-21)))
        CFI (cfiCond4) V2 load(1, XDATA, add(CFA_XSP16, literal(-20)))
        CFI (cfiCond4) V3 load(1, XDATA, add(CFA_XSP16, literal(-19)))
        CFI (cfiCond4) V4 load(1, XDATA, add(CFA_XSP16, literal(-18)))
        CFI (cfiCond4) V5 load(1, XDATA, add(CFA_XSP16, literal(-17)))
        CFI (cfiCond4) V6 load(1, XDATA, add(CFA_XSP16, literal(-16)))
        CFI (cfiCond4) V7 load(1, XDATA, add(CFA_XSP16, literal(-15)))
        CFI (cfiCond4) V8 load(1, XDATA, add(CFA_XSP16, literal(-14)))
        CFI (cfiCond4) V9 load(1, XDATA, add(CFA_XSP16, literal(-13)))
        CFI (cfiCond4) V10 load(1, XDATA, add(CFA_XSP16, literal(-12)))
        CFI (cfiCond4) V11 load(1, XDATA, add(CFA_XSP16, literal(-11)))
        CFI (cfiCond4) V12 load(1, XDATA, add(CFA_XSP16, literal(-10)))
        CFI (cfiCond4) V13 load(1, XDATA, add(CFA_XSP16, literal(-9)))
        CFI (cfiCond4) V14 load(1, XDATA, add(CFA_XSP16, literal(-8)))
        CFI (cfiCond4) V15 load(1, XDATA, add(CFA_XSP16, literal(-7)))
        CFI (cfiCond4) R7 load(1, XDATA, add(CFA_XSP16, literal(-6)))
        CFI (cfiCond4) ?RET_LOW load(1, XDATA, add(CFA_XSP16, literal(-5)))
        CFI (cfiCond4) ?RET_HIGH load(1, XDATA, add(CFA_XSP16, literal(-4)))
        CFI (cfiCond4) ?BRET_EXT load(1, XDATA, add(CFA_XSP16, literal(-3)))
        CFI (cfiCond4) DPL0 load(1, XDATA, add(CFA_XSP16, literal(-2)))
        CFI (cfiCond4) DPH0 load(1, XDATA, add(CFA_XSP16, literal(-1)))
        CFI (cfiCond4) CFA_SP SP+0
        CFI (cfiCond4) CFA_XSP16 add(XSP16, 36)
        CFI Block cfiPicker5 Using cfiCommon0
        CFI (cfiPicker5) NoFunction
        CFI (cfiPicker5) Picker
        MOV     A,?V0 + 0
        CFI EndBlock cfiCond3
        CFI EndBlock cfiCond4
        CFI EndBlock cfiPicker5
        REQUIRE ??Subroutine2_0
        ; // Fall through to label ??Subroutine2_0

        RSEG BANKED_CODE:CODE:NOROOT(0)
??Subroutine2_0:
        CFI Block cfiCond6 Using cfiCommon1
        CFI NoFunction
        CFI Conditional ??CrossCallReturnLabel_5
        CFI R6 load(1, XDATA, add(CFA_XSP16, literal(-24)))
        CFI VB load(1, XDATA, add(CFA_XSP16, literal(-23)))
        CFI V0 load(1, XDATA, add(CFA_XSP16, literal(-22)))
        CFI V1 load(1, XDATA, add(CFA_XSP16, literal(-21)))
        CFI V2 load(1, XDATA, add(CFA_XSP16, literal(-20)))
        CFI V3 load(1, XDATA, add(CFA_XSP16, literal(-19)))
        CFI V4 load(1, XDATA, add(CFA_XSP16, literal(-18)))
        CFI V5 load(1, XDATA, add(CFA_XSP16, literal(-17)))
        CFI V6 load(1, XDATA, add(CFA_XSP16, literal(-16)))
        CFI V7 load(1, XDATA, add(CFA_XSP16, literal(-15)))
        CFI V8 load(1, XDATA, add(CFA_XSP16, literal(-14)))
        CFI V9 load(1, XDATA, add(CFA_XSP16, literal(-13)))
        CFI V10 load(1, XDATA, add(CFA_XSP16, literal(-12)))
        CFI V11 load(1, XDATA, add(CFA_XSP16, literal(-11)))
        CFI V12 load(1, XDATA, add(CFA_XSP16, literal(-10)))
        CFI V13 load(1, XDATA, add(CFA_XSP16, literal(-9)))
        CFI V14 load(1, XDATA, add(CFA_XSP16, literal(-8)))
        CFI V15 load(1, XDATA, add(CFA_XSP16, literal(-7)))
        CFI R7 load(1, XDATA, add(CFA_XSP16, literal(-6)))
        CFI ?RET_LOW load(1, XDATA, add(CFA_XSP16, literal(-5)))
        CFI ?RET_HIGH load(1, XDATA, add(CFA_XSP16, literal(-4)))
        CFI ?BRET_EXT load(1, XDATA, add(CFA_XSP16, literal(-3)))
        CFI DPL0 load(1, XDATA, add(CFA_XSP16, literal(-2)))
        CFI DPH0 load(1, XDATA, add(CFA_XSP16, literal(-1)))
        CFI CFA_SP SP+0
        CFI CFA_XSP16 add(XSP16, 36)
        CFI Block cfiCond7 Using cfiCommon1
        CFI (cfiCond7) NoFunction
        CFI (cfiCond7) Conditional ??CrossCallReturnLabel_6
        CFI (cfiCond7) R6 load(1, XDATA, add(CFA_XSP16, literal(-24)))
        CFI (cfiCond7) VB load(1, XDATA, add(CFA_XSP16, literal(-23)))
        CFI (cfiCond7) V0 load(1, XDATA, add(CFA_XSP16, literal(-22)))
        CFI (cfiCond7) V1 load(1, XDATA, add(CFA_XSP16, literal(-21)))
        CFI (cfiCond7) V2 load(1, XDATA, add(CFA_XSP16, literal(-20)))
        CFI (cfiCond7) V3 load(1, XDATA, add(CFA_XSP16, literal(-19)))
        CFI (cfiCond7) V4 load(1, XDATA, add(CFA_XSP16, literal(-18)))
        CFI (cfiCond7) V5 load(1, XDATA, add(CFA_XSP16, literal(-17)))
        CFI (cfiCond7) V6 load(1, XDATA, add(CFA_XSP16, literal(-16)))
        CFI (cfiCond7) V7 load(1, XDATA, add(CFA_XSP16, literal(-15)))
        CFI (cfiCond7) V8 load(1, XDATA, add(CFA_XSP16, literal(-14)))
        CFI (cfiCond7) V9 load(1, XDATA, add(CFA_XSP16, literal(-13)))
        CFI (cfiCond7) V10 load(1, XDATA, add(CFA_XSP16, literal(-12)))
        CFI (cfiCond7) V11 load(1, XDATA, add(CFA_XSP16, literal(-11)))
        CFI (cfiCond7) V12 load(1, XDATA, add(CFA_XSP16, literal(-10)))
        CFI (cfiCond7) V13 load(1, XDATA, add(CFA_XSP16, literal(-9)))
        CFI (cfiCond7) V14 load(1, XDATA, add(CFA_XSP16, literal(-8)))
        CFI (cfiCond7) V15 load(1, XDATA, add(CFA_XSP16, literal(-7)))
        CFI (cfiCond7) R7 load(1, XDATA, add(CFA_XSP16, literal(-6)))
        CFI (cfiCond7) ?RET_LOW load(1, XDATA, add(CFA_XSP16, literal(-5)))
        CFI (cfiCond7) ?RET_HIGH load(1, XDATA, add(CFA_XSP16, literal(-4)))
        CFI (cfiCond7) ?BRET_EXT load(1, XDATA, add(CFA_XSP16, literal(-3)))
        CFI (cfiCond7) DPL0 load(1, XDATA, add(CFA_XSP16, literal(-2)))
        CFI (cfiCond7) DPH0 load(1, XDATA, add(CFA_XSP16, literal(-1)))
        CFI (cfiCond7) CFA_SP SP+0
        CFI (cfiCond7) CFA_XSP16 add(XSP16, 36)
        CFI Block cfiCond8 Using cfiCommon1
        CFI (cfiCond8) NoFunction
        CFI (cfiCond8) Conditional ??CrossCallReturnLabel_3
        CFI (cfiCond8) R6 load(1, XDATA, add(CFA_XSP16, literal(-24)))
        CFI (cfiCond8) VB load(1, XDATA, add(CFA_XSP16, literal(-23)))
        CFI (cfiCond8) V0 load(1, XDATA, add(CFA_XSP16, literal(-22)))
        CFI (cfiCond8) V1 load(1, XDATA, add(CFA_XSP16, literal(-21)))
        CFI (cfiCond8) V2 load(1, XDATA, add(CFA_XSP16, literal(-20)))
        CFI (cfiCond8) V3 load(1, XDATA, add(CFA_XSP16, literal(-19)))
        CFI (cfiCond8) V4 load(1, XDATA, add(CFA_XSP16, literal(-18)))
        CFI (cfiCond8) V5 load(1, XDATA, add(CFA_XSP16, literal(-17)))
        CFI (cfiCond8) V6 load(1, XDATA, add(CFA_XSP16, literal(-16)))
        CFI (cfiCond8) V7 load(1, XDATA, add(CFA_XSP16, literal(-15)))
        CFI (cfiCond8) V8 load(1, XDATA, add(CFA_XSP16, literal(-14)))
        CFI (cfiCond8) V9 load(1, XDATA, add(CFA_XSP16, literal(-13)))
        CFI (cfiCond8) V10 load(1, XDATA, add(CFA_XSP16, literal(-12)))
        CFI (cfiCond8) V11 load(1, XDATA, add(CFA_XSP16, literal(-11)))
        CFI (cfiCond8) V12 load(1, XDATA, add(CFA_XSP16, literal(-10)))
        CFI (cfiCond8) V13 load(1, XDATA, add(CFA_XSP16, literal(-9)))
        CFI (cfiCond8) V14 load(1, XDATA, add(CFA_XSP16, literal(-8)))
        CFI (cfiCond8) V15 load(1, XDATA, add(CFA_XSP16, literal(-7)))
        CFI (cfiCond8) R7 load(1, XDATA, add(CFA_XSP16, literal(-6)))
        CFI (cfiCond8) ?RET_LOW load(1, XDATA, add(CFA_XSP16, literal(-5)))
        CFI (cfiCond8) ?RET_HIGH load(1, XDATA, add(CFA_XSP16, literal(-4)))
        CFI (cfiCond8) ?BRET_EXT load(1, XDATA, add(CFA_XSP16, literal(-3)))
        CFI (cfiCond8) DPL0 load(1, XDATA, add(CFA_XSP16, literal(-2)))
        CFI (cfiCond8) DPH0 load(1, XDATA, add(CFA_XSP16, literal(-1)))
        CFI (cfiCond8) CFA_SP SP+0
        CFI (cfiCond8) CFA_XSP16 add(XSP16, 36)
        CFI Block cfiCond9 Using cfiCommon1
        CFI (cfiCond9) NoFunction
        CFI (cfiCond9) Conditional ??CrossCallReturnLabel_4
        CFI (cfiCond9) R6 load(1, XDATA, add(CFA_XSP16, literal(-24)))
        CFI (cfiCond9) VB load(1, XDATA, add(CFA_XSP16, literal(-23)))
        CFI (cfiCond9) V0 load(1, XDATA, add(CFA_XSP16, literal(-22)))
        CFI (cfiCond9) V1 load(1, XDATA, add(CFA_XSP16, literal(-21)))
        CFI (cfiCond9) V2 load(1, XDATA, add(CFA_XSP16, literal(-20)))
        CFI (cfiCond9) V3 load(1, XDATA, add(CFA_XSP16, literal(-19)))
        CFI (cfiCond9) V4 load(1, XDATA, add(CFA_XSP16, literal(-18)))
        CFI (cfiCond9) V5 load(1, XDATA, add(CFA_XSP16, literal(-17)))
        CFI (cfiCond9) V6 load(1, XDATA, add(CFA_XSP16, literal(-16)))
        CFI (cfiCond9) V7 load(1, XDATA, add(CFA_XSP16, literal(-15)))
        CFI (cfiCond9) V8 load(1, XDATA, add(CFA_XSP16, literal(-14)))
        CFI (cfiCond9) V9 load(1, XDATA, add(CFA_XSP16, literal(-13)))
        CFI (cfiCond9) V10 load(1, XDATA, add(CFA_XSP16, literal(-12)))
        CFI (cfiCond9) V11 load(1, XDATA, add(CFA_XSP16, literal(-11)))
        CFI (cfiCond9) V12 load(1, XDATA, add(CFA_XSP16, literal(-10)))
        CFI (cfiCond9) V13 load(1, XDATA, add(CFA_XSP16, literal(-9)))
        CFI (cfiCond9) V14 load(1, XDATA, add(CFA_XSP16, literal(-8)))
        CFI (cfiCond9) V15 load(1, XDATA, add(CFA_XSP16, literal(-7)))
        CFI (cfiCond9) R7 load(1, XDATA, add(CFA_XSP16, literal(-6)))
        CFI (cfiCond9) ?RET_LOW load(1, XDATA, add(CFA_XSP16, literal(-5)))
        CFI (cfiCond9) ?RET_HIGH load(1, XDATA, add(CFA_XSP16, literal(-4)))
        CFI (cfiCond9) ?BRET_EXT load(1, XDATA, add(CFA_XSP16, literal(-3)))
        CFI (cfiCond9) DPL0 load(1, XDATA, add(CFA_XSP16, literal(-2)))
        CFI (cfiCond9) DPH0 load(1, XDATA, add(CFA_XSP16, literal(-1)))
        CFI (cfiCond9) CFA_SP SP+0
        CFI (cfiCond9) CFA_XSP16 add(XSP16, 36)
        CFI Block cfiPicker10 Using cfiCommon0
        CFI (cfiPicker10) NoFunction
        CFI (cfiPicker10) Picker
        MOVX    @DPTR,A
        ; Setup parameters for call to function ReadAdcValue
        ; Setup parameters for call to function ReadAdcValue
        ; Setup parameters for call to function ReadAdcValue
        ; Setup parameters for call to function ReadAdcValue
        MOV     R3,#0x2
        MOV     R2,#0x3
        RET
        CFI EndBlock cfiCond6
        CFI EndBlock cfiCond7
        CFI EndBlock cfiCond8
        CFI EndBlock cfiCond9
        CFI EndBlock cfiPicker10

        RSEG BANKED_CODE:CODE:NOROOT(0)
?Subroutine0:
        CFI Block cfiCond11 Using cfiCommon1
        CFI NoFunction
        CFI Conditional ??CrossCallReturnLabel_0
        CFI R6 load(1, XDATA, add(CFA_XSP16, literal(-24)))
        CFI VB load(1, XDATA, add(CFA_XSP16, literal(-23)))
        CFI V0 load(1, XDATA, add(CFA_XSP16, literal(-22)))
        CFI V1 load(1, XDATA, add(CFA_XSP16, literal(-21)))
        CFI V2 load(1, XDATA, add(CFA_XSP16, literal(-20)))
        CFI V3 load(1, XDATA, add(CFA_XSP16, literal(-19)))
        CFI V4 load(1, XDATA, add(CFA_XSP16, literal(-18)))
        CFI V5 load(1, XDATA, add(CFA_XSP16, literal(-17)))
        CFI V6 load(1, XDATA, add(CFA_XSP16, literal(-16)))
        CFI V7 load(1, XDATA, add(CFA_XSP16, literal(-15)))
        CFI V8 load(1, XDATA, add(CFA_XSP16, literal(-14)))
        CFI V9 load(1, XDATA, add(CFA_XSP16, literal(-13)))
        CFI V10 load(1, XDATA, add(CFA_XSP16, literal(-12)))
        CFI V11 load(1, XDATA, add(CFA_XSP16, literal(-11)))
        CFI V12 load(1, XDATA, add(CFA_XSP16, literal(-10)))
        CFI V13 load(1, XDATA, add(CFA_XSP16, literal(-9)))
        CFI V14 load(1, XDATA, add(CFA_XSP16, literal(-8)))
        CFI V15 load(1, XDATA, add(CFA_XSP16, literal(-7)))
        CFI R7 load(1, XDATA, add(CFA_XSP16, literal(-6)))
        CFI ?RET_LOW load(1, XDATA, add(CFA_XSP16, literal(-5)))
        CFI ?RET_HIGH load(1, XDATA, add(CFA_XSP16, literal(-4)))
        CFI ?BRET_EXT load(1, XDATA, add(CFA_XSP16, literal(-3)))
        CFI DPL0 load(1, XDATA, add(CFA_XSP16, literal(-2)))
        CFI DPH0 load(1, XDATA, add(CFA_XSP16, literal(-1)))
        CFI CFA_SP SP+0
        CFI CFA_XSP16 add(XSP16, 36)
        CFI Block cfiCond12 Using cfiCommon1
        CFI (cfiCond12) NoFunction
        CFI (cfiCond12) Conditional ??CrossCallReturnLabel_1
        CFI (cfiCond12) R6 load(1, XDATA, add(CFA_XSP16, literal(-24)))
        CFI (cfiCond12) VB load(1, XDATA, add(CFA_XSP16, literal(-23)))
        CFI (cfiCond12) V0 load(1, XDATA, add(CFA_XSP16, literal(-22)))
        CFI (cfiCond12) V1 load(1, XDATA, add(CFA_XSP16, literal(-21)))
        CFI (cfiCond12) V2 load(1, XDATA, add(CFA_XSP16, literal(-20)))
        CFI (cfiCond12) V3 load(1, XDATA, add(CFA_XSP16, literal(-19)))
        CFI (cfiCond12) V4 load(1, XDATA, add(CFA_XSP16, literal(-18)))
        CFI (cfiCond12) V5 load(1, XDATA, add(CFA_XSP16, literal(-17)))
        CFI (cfiCond12) V6 load(1, XDATA, add(CFA_XSP16, literal(-16)))
        CFI (cfiCond12) V7 load(1, XDATA, add(CFA_XSP16, literal(-15)))
        CFI (cfiCond12) V8 load(1, XDATA, add(CFA_XSP16, literal(-14)))
        CFI (cfiCond12) V9 load(1, XDATA, add(CFA_XSP16, literal(-13)))
        CFI (cfiCond12) V10 load(1, XDATA, add(CFA_XSP16, literal(-12)))
        CFI (cfiCond12) V11 load(1, XDATA, add(CFA_XSP16, literal(-11)))
        CFI (cfiCond12) V12 load(1, XDATA, add(CFA_XSP16, literal(-10)))
        CFI (cfiCond12) V13 load(1, XDATA, add(CFA_XSP16, literal(-9)))
        CFI (cfiCond12) V14 load(1, XDATA, add(CFA_XSP16, literal(-8)))
        CFI (cfiCond12) V15 load(1, XDATA, add(CFA_XSP16, literal(-7)))
        CFI (cfiCond12) R7 load(1, XDATA, add(CFA_XSP16, literal(-6)))
        CFI (cfiCond12) ?RET_LOW load(1, XDATA, add(CFA_XSP16, literal(-5)))
        CFI (cfiCond12) ?RET_HIGH load(1, XDATA, add(CFA_XSP16, literal(-4)))
        CFI (cfiCond12) ?BRET_EXT load(1, XDATA, add(CFA_XSP16, literal(-3)))
        CFI (cfiCond12) DPL0 load(1, XDATA, add(CFA_XSP16, literal(-2)))
        CFI (cfiCond12) DPH0 load(1, XDATA, add(CFA_XSP16, literal(-1)))
        CFI (cfiCond12) CFA_SP SP+0
        CFI (cfiCond12) CFA_XSP16 add(XSP16, 36)
        CFI Block cfiCond13 Using cfiCommon1
        CFI (cfiCond13) NoFunction
        CFI (cfiCond13) Conditional ??CrossCallReturnLabel_2
        CFI (cfiCond13) R6 load(1, XDATA, add(CFA_XSP16, literal(-24)))
        CFI (cfiCond13) VB load(1, XDATA, add(CFA_XSP16, literal(-23)))
        CFI (cfiCond13) V0 load(1, XDATA, add(CFA_XSP16, literal(-22)))
        CFI (cfiCond13) V1 load(1, XDATA, add(CFA_XSP16, literal(-21)))
        CFI (cfiCond13) V2 load(1, XDATA, add(CFA_XSP16, literal(-20)))
        CFI (cfiCond13) V3 load(1, XDATA, add(CFA_XSP16, literal(-19)))
        CFI (cfiCond13) V4 load(1, XDATA, add(CFA_XSP16, literal(-18)))
        CFI (cfiCond13) V5 load(1, XDATA, add(CFA_XSP16, literal(-17)))
        CFI (cfiCond13) V6 load(1, XDATA, add(CFA_XSP16, literal(-16)))
        CFI (cfiCond13) V7 load(1, XDATA, add(CFA_XSP16, literal(-15)))
        CFI (cfiCond13) V8 load(1, XDATA, add(CFA_XSP16, literal(-14)))
        CFI (cfiCond13) V9 load(1, XDATA, add(CFA_XSP16, literal(-13)))
        CFI (cfiCond13) V10 load(1, XDATA, add(CFA_XSP16, literal(-12)))
        CFI (cfiCond13) V11 load(1, XDATA, add(CFA_XSP16, literal(-11)))
        CFI (cfiCond13) V12 load(1, XDATA, add(CFA_XSP16, literal(-10)))
        CFI (cfiCond13) V13 load(1, XDATA, add(CFA_XSP16, literal(-9)))
        CFI (cfiCond13) V14 load(1, XDATA, add(CFA_XSP16, literal(-8)))
        CFI (cfiCond13) V15 load(1, XDATA, add(CFA_XSP16, literal(-7)))
        CFI (cfiCond13) R7 load(1, XDATA, add(CFA_XSP16, literal(-6)))
        CFI (cfiCond13) ?RET_LOW load(1, XDATA, add(CFA_XSP16, literal(-5)))
        CFI (cfiCond13) ?RET_HIGH load(1, XDATA, add(CFA_XSP16, literal(-4)))
        CFI (cfiCond13) ?BRET_EXT load(1, XDATA, add(CFA_XSP16, literal(-3)))
        CFI (cfiCond13) DPL0 load(1, XDATA, add(CFA_XSP16, literal(-2)))
        CFI (cfiCond13) DPH0 load(1, XDATA, add(CFA_XSP16, literal(-1)))
        CFI (cfiCond13) CFA_SP SP+0
        CFI (cfiCond13) CFA_XSP16 add(XSP16, 36)
        CFI Block cfiPicker14 Using cfiCommon0
        CFI (cfiPicker14) NoFunction
        CFI (cfiPicker14) Picker
        LCALL   ??ReadAdcValue?relay
        MOV     ?V0 + 0,R2
        MOV     ?V0 + 1,R3
        MOV     A,#0x6
        MOV     R0,#?V0 + 0
        RET
        CFI EndBlock cfiCond11
        CFI EndBlock cfiCond12
        CFI EndBlock cfiCond13
        CFI EndBlock cfiPicker14
//  100 #endif
//  101 
//  102 //传感器板1处理
//  103 #if defined(SENSORBOARD1)
//  104 void SensorBd1ResAvailable(struct ep_info_t *ep, RES_TYPE type, void *res);
//  105 void SensorBd1ResAvailable(struct ep_info_t *ep, RES_TYPE type, void *res)
//  106 {
//  107     if(type == ResInit)
//  108     {
//  109         Sensor_PIN_INT(1);
//  110     }
//  111 }
//  112 void SensorBd1Timeout(struct ep_info_t *ep);
//  113 void SensorBd1Timeout(struct ep_info_t *ep)
//  114 {       
//  115     uint8 SendBuf[12];
//  116     uint16 AdValue;  
//  117     float RHTValue;
//  118     uint16 ParentShortAddr;
//  119     ParentShortAddr = NLME_GetCoordShortAddr();
//  120     SendBuf[0] = (unsigned char)(ParentShortAddr);
//  121     SendBuf[1] = (unsigned char)(ParentShortAddr>>8);
//  122 #if defined(RTR_NWK)
//  123     SendBuf[2] = 0x40 | 1;
//  124 #else
//  125     SendBuf[2] = 0x80 | 1;
//  126 #endif
//  127     AdValue = ReadAdcValue(0x1,3,2);
//  128     SendBuf[3] = (uint8)(AdValue>>6);//A/D采集                                                                                       
//  129     AdValue = ReadAdcValue(0xe,3,2);   
//  130     RHTValue = AdValue;
//  131     RHTValue = RHTValue /1480 * 25;    
//  132     SendBuf[4] = (uint8)(RHTValue);//主板温度   
//  133     
//  134     AdValue = ReadAdcValue(0x4,3,2);
//  135     AdValue = AdValue>>6;
//  136     SendBuf[5] = (uint8)AdValue;//烟雾   
//  137                   
//  138     AdValue = ReadAdcValue(0x5,3,2);
//  139     AdValue = AdValue>>6;
//  140     SendBuf[6] = (uint8)AdValue;//酒精   
//  141                   
//  142     AdValue = ReadAdcValue(0x6,3,2);
//  143     AdValue = AdValue>>6;
//  144     SendBuf[7] = (uint8)AdValue;//压力   
//  145                
//  146     AdValue = ReadAdcValue(0x7,3,2);
//  147     AdValue = AdValue>>6;
//  148     SendBuf[8] = (uint8)AdValue;//气压     	
//  149     SendData(ep->ep, &SendBuf[0], 0x0000, TRANSFER_ENDPOINT, 9);
//  150 }   
//  151 #endif
//  152 
//  153 //传感器板2处理
//  154 #if defined(SENSORBOARD2)
//  155 uint32 C320us;
//  156 uint32 temp;
//  157 void SensorBd2ResAvailable(struct ep_info_t *ep, RES_TYPE type, void *res);
//  158 void SensorBd2ResAvailable(struct ep_info_t *ep, RES_TYPE type, void *res)
//  159 {
//  160     if(type == ResInit)
//  161     {
//  162         Sensor_PIN_INT(2);
//  163     }
//  164 }
//  165 void SensorBd2Timeout(struct ep_info_t *ep);
//  166 void SensorBd2Timeout(struct ep_info_t *ep)
//  167 {       
//  168     uint8 SendBuf[12];
//  169     uint16 AdValue;  
//  170     float RHTValue;
//  171     uint16 ParentShortAddr;
//  172     ParentShortAddr = NLME_GetCoordShortAddr();
//  173     SendBuf[0] = (unsigned char)(ParentShortAddr);
//  174     SendBuf[1] = (unsigned char)(ParentShortAddr>>8);
//  175 #if defined(RTR_NWK)
//  176     SendBuf[2] = 0x40 | 2;
//  177 #else
//  178     SendBuf[2] = 0x80 | 2;
//  179 #endif
//  180     AdValue = ReadAdcValue(0x1,3,2);
//  181     SendBuf[3] = (uint8)(AdValue>>6);//A/D采集                                                                                       
//  182     AdValue = ReadAdcValue(0xe,3,2);   
//  183     RHTValue = AdValue;
//  184     RHTValue = RHTValue /1480 * 25;    
//  185     SendBuf[4] = (uint8)(RHTValue);//主板温度   
//  186     
//  187     SendASignal();                  
//  188     while(!(P1 & 0x80));                                                                                 
//  189     C320us = macMcuPrecisionCount();//高电平开始时间                 
//  190     while(P1 & 0x80);                                                                                       
//  191     temp = macMcuPrecisionCount() - C320us;//高电平宽度,单位为320us                                            
//  192     SendBuf[5] = (uint8)(temp&0xff);    
//  193                   
//  194     AdValue = ReadAdcValue(0x4,3,2);//三轴加速度
//  195     AdValue = AdValue>>6;
//  196     SendBuf[6] = (uint8)AdValue;
//  197                   
//  198     AdValue = ReadAdcValue(0x5,3,2);
//  199     AdValue = AdValue>>6;
//  200     SendBuf[7] = (uint8)AdValue;
//  201                  
//  202     AdValue = ReadAdcValue(0x6,3,2);
//  203     AdValue = AdValue>>6;
//  204     SendBuf[8] = (uint8)AdValue;
//  205             
//  206     SendData(ep->ep, &SendBuf[0], 0x0000, TRANSFER_ENDPOINT, 9);
//  207 }   
//  208 #endif
//  209 
//  210 //传感器板3处理
//  211 #if defined(SENSORBOARD3)
//  212 void SensorBd3ResAvailable(struct ep_info_t *ep, RES_TYPE type, void *res);
//  213 void SensorBd3ResAvailable(struct ep_info_t *ep, RES_TYPE type, void *res)
//  214 {
//  215     if(type == ResInit)
//  216     {
//  217         Sensor_PIN_INT(3);
//  218     }
//  219 }
//  220 void SensorBd3Timeout(struct ep_info_t *ep);
//  221 void SensorBd3Timeout(struct ep_info_t *ep)
//  222 {      
//  223     uint8 SendBuf[12];
//  224     uint16 AdValue;  
//  225     float RHTValue;
//  226     uint16 ParentShortAddr;
//  227     ParentShortAddr = NLME_GetCoordShortAddr();
//  228     SendBuf[0] = (unsigned char)(ParentShortAddr);
//  229     SendBuf[1] = (unsigned char)(ParentShortAddr>>8);
//  230 #if defined(RTR_NWK)
//  231     SendBuf[2] = 0x40 | 3;
//  232 #else
//  233     SendBuf[2] = 0x80 | 3;
//  234 #endif
//  235     AdValue = ReadAdcValue(0x1,3,2);
//  236     SendBuf[3] = (uint8)(AdValue>>6);//A/D采集                                                                                       
//  237     AdValue = ReadAdcValue(0xe,3,2);   
//  238     RHTValue = AdValue;
//  239     RHTValue = RHTValue /1480 * 25;    
//  240     SendBuf[4] = (uint8)(RHTValue);//主板温度   
//  241     
//  242     if(P1 & 0x80)//霍尔传感器
//  243         SendBuf[5] = 0;  
//  244     else
//  245         SendBuf[5] = 1;  
//  246     AdValue = ReadAdcValue(0x6,3,2);//雨滴传感器
//  247     AdValue = AdValue>>6;
//  248     SendBuf[6] = (uint8)AdValue;
//  249     RHTValue = WaterFlowCount/3/*(SAMPLEAPP_RUN_TIMEOUT/1000)*/;//水流量
//  250     SendBuf[7] = (uint8)RHTValue;
//  251     WaterFlowCount = 0;
//  252     P1 &= ~((1<<3)|(1<<4));//00:正,负管均不通         	
//  253     SendData(ep->ep, &SendBuf[0], 0x0000, TRANSFER_ENDPOINT, 8);   
//  254 }   
//  255 #endif
//  256 
//  257 //传感器板4处理
//  258 #if defined(SENSORBOARD4)
//  259 void SensorBd4ResAvailable(struct ep_info_t *ep, RES_TYPE type, void *res);
//  260 void SensorBd4ResAvailable(struct ep_info_t *ep, RES_TYPE type, void *res)
//  261 {
//  262     if(type == ResInit)
//  263     {
//  264         Sensor_PIN_INT(4);
//  265     }
//  266 }
//  267 void SensorBd4Timeout(struct ep_info_t *ep);
//  268 void SensorBd4Timeout(struct ep_info_t *ep)
//  269 {      
//  270     uint8 SendBuf[12];    
//  271     SendBuf[0] = 0x2;
//  272     SendBuf[1] = 0x2;
//  273     SendBuf[2] = 0x26;
//  274     HalUARTWrite(HAL_UART_PORT_0, &SendBuf[0], 3);//发送寻卡命令                   
//  275     RfidStatus = 1;//等待寻卡应答状态
//  276     rxBytePtr = 0;          
//  277 }
//  278 #endif
//  279 
//  280 //传感器板5处理
//  281 #if defined(SENSORBOARD5)
//  282 void SensorBd5ResAvailable(struct ep_info_t *ep, RES_TYPE type, void *res);
//  283 void SensorBd5ResAvailable(struct ep_info_t *ep, RES_TYPE type, void *res)
//  284 {
//  285     if(type == ResInit)
//  286     {
//  287         Sensor_PIN_INT(5);
//  288     }
//  289 }
//  290 void SensorBd5Timeout(struct ep_info_t *ep);
//  291 void SensorBd5Timeout(struct ep_info_t *ep)
//  292 {      
//  293     uint8 SendBuf[12];
//  294     uint16 AdValue;  
//  295     float RHTValue;
//  296     uint16 ParentShortAddr;
//  297     ParentShortAddr = NLME_GetCoordShortAddr();
//  298     SendBuf[0] = (unsigned char)(ParentShortAddr);
//  299     SendBuf[1] = (unsigned char)(ParentShortAddr>>8);
//  300 #if defined(RTR_NWK)
//  301     SendBuf[2] = 0x40 | 5;
//  302 #else
//  303     SendBuf[2] = 0x80 | 5;
//  304 #endif
//  305     AdValue = ReadAdcValue(0x1,3,2);
//  306     SendBuf[3] = (uint8)(AdValue>>6);//A/D采集                                                                                       
//  307     AdValue = ReadAdcValue(0xe,3,2);   
//  308     RHTValue = AdValue;
//  309     RHTValue = RHTValue /1480 * 25;    
//  310     SendBuf[4] = (uint8)(RHTValue);//主板温度 
//  311     
//  312     AdValue = ReadAdcValue(0x7,3,2);  //CO、CO2、甲醛  
//  313     AdValue = AdValue>>4;            
//  314     SendBuf[5] = (uint8)(AdValue&0xff);
//  315                   
//  316     AdValue = ReadAdcValue(0x6,3,2);
//  317     AdValue = AdValue>>4;            
//  318     SendBuf[6] = (uint8)(AdValue&0xff);
//  319                               
//  320     AdValue = ReadAdcValue(0x5,3,2);
//  321     AdValue = AdValue>>4;            
//  322     SendBuf[7] = (uint8)(AdValue&0xff);   
//  323     	
//  324     SendData(ep->ep, &SendBuf[0], 0x0000, TRANSFER_ENDPOINT, 8);  
//  325 }
//  326 #endif
//  327 
//  328 //传感器板6处理
//  329 #if defined(SENSORBOARD6)
//  330 uint8 DataValid;
//  331 bool bStepEnable = 0;//步进电机启动或停止 0--停止；1--启动
//  332 bool bStepDirect = 0;//步进电机方向，0--正向；1--反向
//  333 uint8 bStepSpeed = 10;
//  334 bool fStepDelay;
//  335 uint8 cStepDelay;
//  336 
//  337 void SensorBd6ResAvailable(struct ep_info_t *ep, RES_TYPE type, void *res);
//  338 void SensorBd6ResAvailable(struct ep_info_t *ep, RES_TYPE type, void *res)
//  339 {
//  340     if(type == ResInit)
//  341     {
//  342         Sensor_PIN_INT(6);
//  343     }
//  344 }
//  345 void SensorBd6Timeout(struct ep_info_t *ep);
//  346 void SensorBd6Timeout(struct ep_info_t *ep)
//  347 {      
//  348     uint8 SendBuf[12];
//  349     uint16 AdValue;  
//  350     float RHTValue;
//  351     uint16 ParentShortAddr;
//  352     ParentShortAddr = NLME_GetCoordShortAddr();
//  353     SendBuf[0] = (unsigned char)(ParentShortAddr);
//  354     SendBuf[1] = (unsigned char)(ParentShortAddr>>8);
//  355 #if defined(RTR_NWK)
//  356     SendBuf[2] = 0x40 | 6;
//  357 #else
//  358     SendBuf[2] = 0x80 | 6;
//  359 #endif
//  360     AdValue = ReadAdcValue(0x1,3,2);
//  361     SendBuf[3] = (uint8)(AdValue>>6);//A/D采集                                                                                       
//  362     AdValue = ReadAdcValue(0xe,3,2);   
//  363     RHTValue = AdValue;
//  364     RHTValue = RHTValue /1480 * 25;    
//  365     SendBuf[4] = (uint8)(RHTValue);//主板温度         	
//  366     SendData(ep->ep, &SendBuf[0], 0x0000, TRANSFER_ENDPOINT, 5);  
//  367 }
//  368 void outputSensorBd6(struct ep_info_t *ep, uint16 addr, uint8 endPoint, afMSGCommandFormat_t *msg);
//  369 void outputSensorBd6(struct ep_info_t *ep, uint16 addr, uint8 endPoint, afMSGCommandFormat_t *msg)
//  370 {
//  371     HalUARTWrite(HAL_UART_PORT_0, &msg->Data[0], 3);   
//  372     if(msg->Data[0] == 0x6){//传感器6 电机
//  373         DataValid = msg->Data[1];
//  374         if( (DataValid>=1) && (DataValid<=6) ){                                          
//  375             if(DataValid == 1){//停止
//  376                 bStepEnable = 0;
//  377             }
//  378             else if(DataValid == 2){//启动
//  379                	bStepEnable = 1;
//  380                	cStepDelay = bStepSpeed*10;
//  381                	fStepDelay = 0;               
//  382             }
//  383             else if(DataValid == 3)//正向
//  384                	bStepDirect = 0;
//  385             else if(DataValid == 4)//反向
//  386                	bStepDirect = 1;
//  387             else if(DataValid == 5){//加速
//  388                	if(bStepSpeed >1){                  
//  389             	    bStepSpeed--;
//  390                     cStepDelay = bStepSpeed*10;
//  391                     fStepDelay = 0;
//  392                 }
//  393             }
//  394             else if(DataValid == 6){//减速
//  395                 if(bStepSpeed <20){                  
//  396                     bStepSpeed++;
//  397                     cStepDelay = bStepSpeed*10;
//  398                     fStepDelay = 0;
//  399                 }
//  400             }              
//  401         }
//  402         DataValid = msg->Data[2];
//  403         if(DataValid == 1)//模拟电机停止
//  404             P0 &= (~(0x1 << 6));
//  405         if(DataValid == 2)//模拟电机启动
//  406             P0 |= (0x1 << 6);            
//  407     }      
//  408 }
//  409 #endif
//  410 
//  411 //传感器板7处理
//  412 #if defined(SENSORBOARD7)
//  413 uint8 DataValid;
//  414 uint8 DataValue;
//  415 uint16 cSound = 0;
//  416 uint8 MatrixLed[8];
//  417 uint8 i;
//  418 void SensorBd7ResAvailable(struct ep_info_t *ep, RES_TYPE type, void *res);
//  419 void SensorBd7ResAvailable(struct ep_info_t *ep, RES_TYPE type, void *res)
//  420 {
//  421     if(type == ResInit)
//  422     {
//  423         Sensor_PIN_INT(7);
//  424     }
//  425 }
//  426 void SensorBd7Timeout(struct ep_info_t *ep);
//  427 void SensorBd7Timeout(struct ep_info_t *ep)
//  428 {      
//  429     uint8 SendBuf[12];
//  430     uint16 AdValue;  
//  431     float RHTValue;
//  432     uint16 ParentShortAddr;
//  433     ParentShortAddr = NLME_GetCoordShortAddr();
//  434     SendBuf[0] = (unsigned char)(ParentShortAddr);
//  435     SendBuf[1] = (unsigned char)(ParentShortAddr>>8);
//  436 #if defined(RTR_NWK)
//  437     SendBuf[2] = 0x40 | 7;
//  438 #else
//  439     SendBuf[2] = 0x80 | 7;
//  440 #endif
//  441     AdValue = ReadAdcValue(0x1,3,2);
//  442     SendBuf[3] = (uint8)(AdValue>>6);//A/D采集                                                                                       
//  443     AdValue = ReadAdcValue(0xe,3,2);   
//  444     RHTValue = AdValue;
//  445     RHTValue = RHTValue /1480 * 25;    
//  446     SendBuf[4] = (uint8)(RHTValue);//主板温度         	
//  447     SendData(ep->ep, &SendBuf[0], 0x0000, TRANSFER_ENDPOINT, 5);  
//  448 }
//  449 void outputSensorBd7(struct ep_info_t *ep, uint16 addr, uint8 endPoint, afMSGCommandFormat_t *msg);
//  450 void outputSensorBd7(struct ep_info_t *ep, uint16 addr, uint8 endPoint, afMSGCommandFormat_t *msg)
//  451 {    
//  452     HalUARTWrite(HAL_UART_PORT_0, &msg->Data[0], 12);   
//  453     if(msg->Data[0] == 0x7){//传感器7 显示
//  454         DataValid = msg->Data[1];
//  455         if(DataValid&0x1){//SEG7 Display
//  456             P0 |= (0x1<<4);  
//  457             DataValue = (msg->Data[2])&0xf;
//  458             P1 =  seg7table[DataValue];
//  459             P0 &= ~(0x1<<4);  
//  460         }            
//  461         else if(DataValid&0x2){//蜂鸣器
//  462             cSound = (msg->Data[3]);                  
//  463             cSound = cSound * 50;
//  464         }
//  465         else if(DataValid&0x4){//矩阵LED
//  466             for(i=0;i<8;i++)
//  467                 MatrixLed[i]= msg->Data[4+i];                
//  468         }
//  469     }           
//  470 }
//  471 #endif
//  472 //传感器板8处理
//  473 #if defined(SENSORBOARD8)
//  474 void SensorBd8ResAvailable(struct ep_info_t *ep, RES_TYPE type, void *res);
//  475 void SensorBd8ResAvailable(struct ep_info_t *ep, RES_TYPE type, void *res)
//  476 {
//  477     if(type == ResInit)
//  478     {
//  479         Sensor_PIN_INT(8);
//  480     }
//  481 }
//  482 void SensorBd8Timeout(struct ep_info_t *ep);
//  483 void SensorBd8Timeout(struct ep_info_t *ep)
//  484 {      
//  485     uint8 SendBuf[12];
//  486     uint16 AdValue;  
//  487     float RHTValue;
//  488     uint16 ParentShortAddr;
//  489     ParentShortAddr = NLME_GetCoordShortAddr();
//  490     SendBuf[0] = (unsigned char)(ParentShortAddr);
//  491     SendBuf[1] = (unsigned char)(ParentShortAddr>>8);
//  492 #if defined(RTR_NWK)
//  493     SendBuf[2] = 0x40 | 8;
//  494 #else
//  495     SendBuf[2] = 0x80 | 8;
//  496 #endif
//  497     AdValue = ReadAdcValue(0x1,3,2);
//  498     SendBuf[3] = (uint8)(AdValue>>6);//A/D采集                                                                                       
//  499     AdValue = ReadAdcValue(0xe,3,2);   
//  500     RHTValue = AdValue;
//  501     RHTValue = RHTValue /1480 * 25;    
//  502     SendBuf[4] = (uint8)(RHTValue);//主板温度 
//  503        
//  504     SendData(ep->ep, &SendBuf[0], 0x0000, TRANSFER_ENDPOINT, 5);  
//  505 }
//  506 #endif
//  507 //传感器板9处理
//  508 #if defined(SENSORBOARD9)
//  509 void SensorBd9ResAvailable(struct ep_info_t *ep, RES_TYPE type, void *res);
//  510 void SensorBd9ResAvailable(struct ep_info_t *ep, RES_TYPE type, void *res)
//  511 {
//  512     if(type == ResInit)
//  513     {
//  514         Sensor_PIN_INT(9);
//  515     }
//  516 }
//  517 void SensorBd9Timeout(struct ep_info_t *ep);
//  518 void SensorBd9Timeout(struct ep_info_t *ep)
//  519 {      
//  520     uint8 SendBuf[12];
//  521     uint16 AdValue;  
//  522     float RHTValue;
//  523     uint16 ParentShortAddr;
//  524     ParentShortAddr = NLME_GetCoordShortAddr();
//  525     SendBuf[0] = (unsigned char)(ParentShortAddr);
//  526     SendBuf[1] = (unsigned char)(ParentShortAddr>>8);
//  527 #if defined(RTR_NWK)
//  528     SendBuf[2] = 0x40 | 9;
//  529 #else
//  530     SendBuf[2] = 0x80 | 9;
//  531 #endif
//  532     AdValue = ReadAdcValue(0x1,3,2);
//  533     SendBuf[3] = (uint8)(AdValue>>6);//A/D采集                                                                                       
//  534     AdValue = ReadAdcValue(0xe,3,2);   
//  535     RHTValue = AdValue;
//  536     RHTValue = RHTValue /1480 * 25;    
//  537     SendBuf[4] = (uint8)(RHTValue);//主板温度 
//  538     
//  539     AdValue = ReadAdcValue(0x4,3,2);    
//  540     SendBuf[5] = (uint8)(AdValue&0xff);
//  541     AdValue = AdValue>>8;            
//  542     SendBuf[6] = (uint8)(AdValue&0xff);
//  543     SendBuf[7] = (uint8)P0_5;
//  544     SendBuf[8] = (uint8)P1_4; 
//  545     SendData(ep->ep, &SendBuf[0], 0x0000, TRANSFER_ENDPOINT, 9);  
//  546 }
//  547 #endif
//  548 
//  549 
//  550 /********************************/
//  551 /* 二进制执行器传感器           */
//  552 /********************************/
//  553 #if defined(HAS_EXECUTEB)
//  554 void OutputExecuteBResAvailable(struct ep_info_t *ep, RES_TYPE type, void *res);
//  555 void OutputExecuteBResAvailable(struct ep_info_t *ep, RES_TYPE type, void *res)
//  556 {
//  557     if(type == ResInit)
//  558         ControlInit();
//  559 }
//  560 void outputExecuteB(struct ep_info_t *ep, uint16 addr, uint8 endPoint, afMSGCommandFormat_t *msg);
//  561 void outputExecuteB(struct ep_info_t *ep, uint16 addr, uint8 endPoint, afMSGCommandFormat_t *msg)
//  562 {
//  563     //msg->Data[], msg->DataLength, msg->TransSeqNumber
//  564     Control(msg->Data[0]);
//  565     SendData(ep->ep, &msg->Data[0], 0x0000, TRANSFER_ENDPOINT, 1);
//  566 }
//  567 void outputExecuteBTimeout(struct ep_info_t *ep);
//  568 void outputExecuteBTimeout(struct ep_info_t *ep)
//  569 {
//  570     uint8 value = P1 >> 4;
//  571     SendData(ep->ep, &value, 0x0000, TRANSFER_ENDPOINT, sizeof(value));
//  572 }
//  573 #endif
//  574 /********************************/
//  575 /* 模拟执行器传感器             */
//  576 /********************************/
//  577 #if defined(HAS_EXECUTEA)
//  578 void outputExecuteA(struct ep_info_t *ep, uint16 addr, uint8 endPoint, afMSGCommandFormat_t *msg);
//  579 void outputExecuteA(struct ep_info_t *ep, uint16 addr, uint8 endPoint, afMSGCommandFormat_t *msg)
//  580 {
//  581 }
//  582 #endif
//  583 /********************************/
//  584 /* 遥控器传感器                 */
//  585 /********************************/
//  586 #if defined(HAS_REMOTER)
//  587 void outputRemoter(struct ep_info_t *ep, uint16 addr, uint8 endPoint, afMSGCommandFormat_t *msg);
//  588 void outputRemoter(struct ep_info_t *ep, uint16 addr, uint8 endPoint, afMSGCommandFormat_t *msg)
//  589 {
//  590 }
//  591 #endif
//  592 /********************************/
//  593 /* 测试代码                     */
//  594 /********************************/
//  595 #if defined(HAS_TESTFUNCTION)
//  596 void testFunc_NwkStateChanged(struct ep_info_t *ep);
//  597 void testFunc_NwkStateChanged(struct ep_info_t *ep)
//  598 {
//  599 }
//  600 void testFunc_inComeData(struct ep_info_t *ep, uint16 addr, uint8 endPoint, afMSGCommandFormat_t *msg);
//  601 void testFunc_inComeData(struct ep_info_t *ep, uint16 addr, uint8 endPoint, afMSGCommandFormat_t *msg)
//  602 {
//  603     //msg->Data[], msg->DataLength, msg->TransSeqNumber
//  604 }
//  605 void testFunc_TimeOut(struct ep_info_t *ep);
//  606 void testFunc_TimeOut(struct ep_info_t *ep)
//  607 {
//  608     // send sensor data to coordinator
//  609     //    SampleApp_SendPeriodicMessage(task_id);
//  610     uint8 sendBuf[] = "(1 1)\r\n";
//  611     sendBuf[1] = ep->ep + '0';
//  612     sendBuf[3] = ep->function.type + '0';
//  613     SendData(ep->ep, sendBuf, 0x0000, TRANSFER_ENDPOINT, 7);
//  614 }
//  615 void testFunc_ResAvailable(struct ep_info_t *ep, RES_TYPE type, void *res);
//  616 void testFunc_ResAvailable(struct ep_info_t *ep, RES_TYPE type, void *res)
//  617 {
//  618     switch(type)
//  619     {
//  620     case ResInit:
//  621         // 在这里可以做需要在初始化阶段做的事情
//  622         break;
//  623     }
//  624 }
//  625 #endif
//  626 

        RSEG XDATA_I:XDATA:NOROOT(0)
//  627 struct ep_info_t funcList[] = {
funcList:
        DATA8
        DS 66
        REQUIRE `?<Initializer for funcList>`
        REQUIRE __INIT_XDATA_I
//  628 #if defined(SENSORBOARD0)
//  629     {
//  630         //stat,income,timeout,resource
//  631         NULL, NULL, SensorBd0Timeout, SensorBd0ResAvailable,
//  632         { DevSensorBd0, 0, 5 },                   // type, id, refresh cycle
//  633     },
//  634 #endif
//  635 #if defined(SENSORBOARD1)
//  636     {
//  637         //stat,income,timeout,resource
//  638         NULL, NULL, SensorBd1Timeout, SensorBd1ResAvailable,
//  639         { DevSensorBd1, 0, 2 },                   // type, id, refresh cycle
//  640     },
//  641 #endif
//  642 #if defined(SENSORBOARD2)
//  643     {
//  644         //stat,income,timeout,resource
//  645         NULL, NULL, SensorBd2Timeout, SensorBd2ResAvailable,
//  646         { DevSensorBd2, 0, 1 },                   // type, id, refresh cycle
//  647     },
//  648 #endif
//  649 #if defined(SENSORBOARD3)
//  650     {
//  651         //stat,income,timeout,resource
//  652         NULL, NULL, SensorBd3Timeout, SensorBd3ResAvailable,
//  653         { DevSensorBd3, 0, 3 },                   // type, id, refresh cycle
//  654     },
//  655 #endif
//  656 #if defined(SENSORBOARD4)
//  657     {
//  658         //stat,income,timeout,resource
//  659         NULL, NULL, SensorBd4Timeout, SensorBd4ResAvailable,
//  660         { DevSensorBd4, 0, 3 },                   // type, id, refresh cycle
//  661     },
//  662 #endif
//  663 #if defined(SENSORBOARD5)
//  664     {
//  665         //stat,income,timeout,resource
//  666         NULL, NULL, SensorBd5Timeout, SensorBd5ResAvailable,
//  667         { DevSensorBd5, 0, 3 },                   // type, id, refresh cycle
//  668     },
//  669 #endif
//  670 #if defined(SENSORBOARD6)
//  671     {
//  672         //stat,income,timeout,resource
//  673         NULL, outputSensorBd6, SensorBd6Timeout, SensorBd6ResAvailable,
//  674         { DevSensorBd6, 0, 5 },                   // type, id, refresh cycle
//  675     },
//  676 #endif
//  677 #if defined(SENSORBOARD7)
//  678     {
//  679         //stat,income,timeout,resource
//  680         NULL, outputSensorBd7, SensorBd7Timeout, SensorBd7ResAvailable,
//  681         { DevSensorBd7, 0, 3 },                   // type, id, refresh cycle
//  682     },
//  683 #endif
//  684 #if defined(SENSORBOARD8)
//  685     {
//  686         //stat,income,timeout,resource
//  687         NULL, NULL, SensorBd8Timeout, SensorBd8ResAvailable,
//  688         { DevSensorBd8, 0, 3 },                   // type, id, refresh cycle
//  689     },
//  690 #endif
//  691 #if defined(SENSORBOARD9)
//  692     {
//  693         //stat,income,timeout,resource
//  694         NULL, NULL, SensorBd9Timeout, SensorBd9ResAvailable,
//  695         { DevSensorBd9, 0, 3 },                   // type, id, refresh cycle
//  696     },
//  697 #endif
//  698 #if defined(ZDO_COORDINATOR)
//  699     {   // 协调器
//  700         CoordinatorNwkStateChangeRoutine,
//  701         CoordinatorIncomingRoutine,
//  702         CoordinatorTimeoutRoutine,
//  703         CoordinatorResAvailableRoutine,
//  704         { DevCoordinator, 0, 0 },
//  705     },
//  706 /***************************************************/
//  707 /* 下面这一段针对路由器, 不需要修改                */
//  708 /***************************************************/
//  709 #elif defined(RTR_NWK) || defined(PEER_ROUTER) || defined(LIGHT)
//  710     {   // 路由器
//  711         RouterNwkStateChangeRoutine,
//  712         RouterIncomingRoutine,
//  713         RouterTimeoutRoutine,
//  714         RouterResAvailableRoutine,
//  715         { DevRouter, 0, 30 },
//  716     },
//  717 #endif
//  718 };

        RSEG BANKED_CODE:CODE:NOROOT(0)
//  719 void SendASignal(void)
SendASignal:
        CFI Block cfiBlock15 Using cfiCommon1
        CFI Function SendASignal
        CODE
//  720 {
        ; Saved register size: 0
        ; Auto size: 0
//  721   uint8 i;
//  722   P1 &= ~(1<<6);                  
        CLR     0x90.6
//  723   P1 |= (1<<6);
        SETB    0x90.6
//  724   for(i=0;i<33;i++){
        MOV     A,#0x21
//  725     asm("NOP");
??SendASignal_0:
        NOP
//  726     asm("NOP");
        NOP
//  727     asm("NOP");
        NOP
//  728     asm("NOP");
        NOP
//  729     asm("NOP");
        NOP
//  730     asm("NOP");
        NOP
//  731     asm("NOP");
        NOP
//  732     asm("NOP");
        NOP
//  733     asm("NOP");
        NOP
//  734     asm("NOP");
        NOP
//  735   }
        DEC     A
        JNZ     ??SendASignal_0
//  736   P1 &= ~(1<<6);
        CLR     0x90.6
//  737 } 
        LJMP    ?BRET
        CFI EndBlock cfiBlock15
        REQUIRE _A_P1
//  738 // 不能修改下面的内容!!!

        RSEG XDATA_ROM_C:CONST:REORDER:NOROOT(0)
        DATA8
//  739 const uint8 funcCount = sizeof(funcList) / sizeof(funcList[0]);
funcCount:
        DB 2

        COMMON INTVEC:CODE:ROOT(0)
        ORG 123
`??P1_ISR??INTVEC 123`:
        LJMP       (P1_ISR)

        RSEG XDATA_ID:CODE:NOROOT(0)
`?<Initializer for funcList>`:
        DATA16
        DW 0H
        DW 0H
        DW ??SensorBd0Timeout?relay
        DW ??SensorBd0ResAvailable?relay
        DATA8
        DB 1
        DB 0
        DB 5
        DB 0, 0, 0, 0, 0, 0, 0, 0
        DB 0, 0, 0, 0, 0, 0, 0, 0
        DB 0, 0, 0, 0, 0, 0
        DATA16
        DW 0H
        DW ??RouterIncomingRoutine?relay
        DW ??RouterTimeoutRoutine?relay
        DW 0H
        DATA8
        DB 240
        DB 0
        DB 30
        DB 0, 0, 0, 0, 0, 0, 0, 0
        DB 0, 0, 0, 0, 0, 0, 0, 0
        DB 0, 0, 0, 0, 0, 0

        RSEG XDATA_ROM_C:CONST:REORDER:NOROOT(0)
        DATA32
__Constant_44b90000:
        DD 44B90000H

        RSEG XDATA_ROM_C:CONST:REORDER:NOROOT(0)
        DATA32
__Constant_41c80000:
        DD 41C80000H

        RSEG XDATA_ROM_C:CONST:REORDER:NOROOT(0)
        DATA32
__Constant_43a50000:
        DD 43A50000H

        RSEG XDATA_ROM_C:CONST:REORDER:NOROOT(0)
        DATA32
__Constant_3c000000:
        DD 3C000000H

        RSEG XDATA_ROM_C:CONST:REORDER:NOROOT(0)
        DATA32
__Constant_c2480000:
        DD 0C2480000H

        RSEG XDATA_ROM_C:CONST:REORDER:NOROOT(0)
        DATA32
__Constant_3c23d70a:
        DD 3C23D70AH

        RSEG XDATA_ROM_C:CONST:REORDER:NOROOT(0)
        DATA32
__Constant_c21e8f5c:
        DD 0C21E8F5CH

        RSEG XDATA_ROM_C:CONST:REORDER:NOROOT(0)
        DATA32
__Constant_3d25e354:
        DD 3D25E354H

        RSEG XDATA_ROM_C:CONST:REORDER:NOROOT(0)
        DATA32
__Constant_c0800000:
        DD 0C0800000H

        RSEG XDATA_ROM_C:CONST:REORDER:NOROOT(0)
        DATA32
__Constant_40333333:
        DD 40333333H

        RSEG XDATA_ROM_C:CONST:REORDER:NOROOT(0)
        DATA32
__Constant_49742400:
        DD 49742400H

        RSEG BANK_RELAYS:CODE:REORDER:NOROOT(0)
??SensorBd0ResAvailable?relay:
        LCALL   ?BDISPATCH
        DATA
        DC24    SensorBd0ResAvailable

        RSEG BANK_RELAYS:CODE:REORDER:NOROOT(0)
??SensorBd0Timeout?relay:
        LCALL   ?BDISPATCH
        DATA
        DC24    SensorBd0Timeout

        RSEG BANK_RELAYS:CODE:REORDER:NOROOT(0)
??SendASignal?relay:
        LCALL   ?BDISPATCH
        DATA
        DC24    SendASignal

        END
// 
// 574 bytes in segment BANKED_CODE
//  18 bytes in segment BANK_RELAYS
//   3 bytes in segment INTVEC
//  34 bytes in segment NEAR_CODE
//   4 bytes in segment SFR_AN
//  66 bytes in segment XDATA_I
//  66 bytes in segment XDATA_ID
//  61 bytes in segment XDATA_ROM_C
//  13 bytes in segment XDATA_Z
// 
// 692 bytes of CODE  memory (+  3 bytes shared)
//  17 bytes of CONST memory (+ 44 bytes shared)
//   0 bytes of DATA  memory (+  4 bytes shared)
//  79 bytes of XDATA memory
//
//Errors: none
//Warnings: none
