///////////////////////////////////////////////////////////////////////////////
//                                                                            /
// IAR C/C++ Compiler V8.10.1.10194/W32 for 8051        18/May/2013  01:29:40 /
// Copyright 2004-2011 IAR Systems AB.                                        /
//                                                                            /
//    Core               =  plain                                             /
//    Code model         =  banked                                            /
//    Data model         =  large                                             /
//    Calling convention =  xdata reentrant                                   /
//    Constant location  =  data_rom                                          /
//    Dptr setup         =  1,16                                              /
//    Source file        =  C:\Texas Instruments\ZStack-CC2530-IOT\Projects\S /
//                          appWsn\Source\SAPP_FrameWork.c                    /
//    Command line       =  -f "C:\Texas Instruments\ZStack-CC2530-IOT\Projec /
//                          ts\SappWsn\..\zstack\Tools\CC2530DB\f8wRouter.cfg /
//                          " (-DCPU32MHZ -DROOT=__near_func                  /
//                          -DMAC_CFG_APP_PENDING_QUEUE=TRUE                  /
//                          -DMAC_CFG_TX_DATA_MAX=5 -DMAC_CFG_TX_MAX=8        /
//                          -DMAC_CFG_RX_MAX=5 -DRTR_NWK) -f "C:\Texas        /
//                          Instruments\ZStack-CC2530-IOT\Projects\SappWsn\.. /
//                          \zstack\Tools\CC2530DB\f8wConfig.cfg"             /
//                          (-DZIGBEEPRO -DSECURE=0 -DZG_SECURE_DYNAMIC=0     /
//                          -DREFLECTOR -DDEFAULT_CHANLIST=0x02000000         /
//                          -DZDAPP_CONFIG_PAN_ID=31 -DNWK_START_DELAY=100    /
//                          -DEXTENDED_JOINING_RANDOM_MASK=0x007F             /
//                          -DBEACON_REQUEST_DELAY=100                        /
//                          -DBEACON_REQ_DELAY_MASK=0x00FF                    /
//                          -DLINK_STATUS_JITTER_MASK=0x007F                  /
//                          -DROUTE_EXPIRY_TIME=30 -DAPSC_ACK_WAIT_DURATION_P /
//                          OLLED=3000 -DNWK_INDIRECT_MSG_TIMEOUT=7           /
//                          -DMAX_RREQ_ENTRIES=8 -DAPSC_MAX_FRAME_RETRIES=3   /
//                          -DNWK_MAX_DATA_RETRIES=2                          /
//                          -DMAX_POLL_FAILURE_RETRIES=2 -DMAX_BCAST=9        /
//                          -DAPS_MAX_GROUPS=16 -DMAX_RTG_ENTRIES=40          /
//                          -DNWK_MAX_BINDING_ENTRIES=4                       /
//                          -DMAX_BINDING_CLUSTER_IDS=4                       /
//                          "-DDEFAULT_KEY={0x01, 0x03, 0x05, 0x07, 0x09,     /
//                          0x0B, 0x0D, 0x0F, 0x00, 0x02, 0x04, 0x06, 0x08,   /
//                          0x0A, 0x0C, 0x0D}" -DMAC_MAX_FRAME_SIZE=116       /
//                          -DZDNWKMGR_MIN_TRANSMISSIONS=20 "-DCONST=const    /
//                          __code" -DGENERIC=__generic                       /
//                          -DRFD_RCVC_ALWAYS_ON=FALSE -DPOLL_RATE=1000       /
//                          -DQUEUED_POLL_RATE=100 -DRESPONSE_POLL_RATE=100)  /
//                          -DREJOIN_POLL_RATE=440 "C:\Texas                  /
//                          Instruments\ZStack-CC2530-IOT\Projects\SappWsn\So /
//                          urce\SAPP_FrameWork.c" -D ZTOOL_P1 -D MT_TASK -D  /
//                          MT_SYS_FUNC -D MT_ZDO_FUNC -D                     /
//                          LCD_SUPPORTED=DEBUG -lC "C:\Texas                 /
//                          Instruments\ZStack-CC2530-IOT\Projects\SappWsn\Ro /
//                          uterEB\List\" -lA "C:\Texas                       /
//                          Instruments\ZStack-CC2530-IOT\Projects\SappWsn\Ro /
//                          uterEB\List\" --diag_suppress Pe001,Pa010 -o      /
//                          "C:\Texas Instruments\ZStack-CC2530-IOT\Projects\ /
//                          SappWsn\RouterEB\Obj\" -e --no_code_motion        /
//                          --debug --core=plain --dptr=16,1                  /
//                          --data_model=large --code_model=banked            /
//                          --calling_convention=xdata_reentrant              /
//                          --place_constants=data_rom --nr_virtual_regs 16   /
//                          -I "C:\Texas Instruments\ZStack-CC2530-IOT\Projec /
//                          ts\SappWsn\" -I "C:\Texas                         /
//                          Instruments\ZStack-CC2530-IOT\Projects\SappWsn\So /
//                          urce\" -I "C:\Texas Instruments\ZStack-CC2530-IOT /
//                          \Projects\SappWsn\..\zstack\ZMain\TI2530DB\" -I   /
//                          "C:\Texas Instruments\ZStack-CC2530-IOT\Projects\ /
//                          SappWsn\..\..\Components\hal\include\" -I         /
//                          "C:\Texas Instruments\ZStack-CC2530-IOT\Projects\ /
//                          SappWsn\..\..\Components\hal\target\CC2530EB\"    /
//                          -I "C:\Texas Instruments\ZStack-CC2530-IOT\Projec /
//                          ts\SappWsn\..\..\Components\mac\include\" -I      /
//                          "C:\Texas Instruments\ZStack-CC2530-IOT\Projects\ /
//                          SappWsn\..\..\Components\mac\high_level\" -I      /
//                          "C:\Texas Instruments\ZStack-CC2530-IOT\Projects\ /
//                          SappWsn\..\..\Components\mac\low_level\srf04\"    /
//                          -I "C:\Texas Instruments\ZStack-CC2530-IOT\Projec /
//                          ts\SappWsn\..\..\Components\mac\low_level\srf04\s /
//                          ingle_chip\" -I "C:\Texas                         /
//                          Instruments\ZStack-CC2530-IOT\Projects\SappWsn\.. /
//                          \..\Components\mt\" -I "C:\Texas                  /
//                          Instruments\ZStack-CC2530-IOT\Projects\SappWsn\.. /
//                          \..\Components\osal\include\" -I "C:\Texas        /
//                          Instruments\ZStack-CC2530-IOT\Projects\SappWsn\.. /
//                          \..\Components\services\saddr\" -I "C:\Texas      /
//                          Instruments\ZStack-CC2530-IOT\Projects\SappWsn\.. /
//                          \..\Components\services\sdata\" -I "C:\Texas      /
//                          Instruments\ZStack-CC2530-IOT\Projects\SappWsn\.. /
//                          \..\Components\stack\af\" -I "C:\Texas            /
//                          Instruments\ZStack-CC2530-IOT\Projects\SappWsn\.. /
//                          \..\Components\stack\nwk\" -I "C:\Texas           /
//                          Instruments\ZStack-CC2530-IOT\Projects\SappWsn\.. /
//                          \..\Components\stack\sapi\" -I "C:\Texas          /
//                          Instruments\ZStack-CC2530-IOT\Projects\SappWsn\.. /
//                          \..\Components\stack\sec\" -I "C:\Texas           /
//                          Instruments\ZStack-CC2530-IOT\Projects\SappWsn\.. /
//                          \..\Components\stack\sys\" -I "C:\Texas           /
//                          Instruments\ZStack-CC2530-IOT\Projects\SappWsn\.. /
//                          \..\Components\stack\zdo\" -I "C:\Texas           /
//                          Instruments\ZStack-CC2530-IOT\Projects\SappWsn\.. /
//                          \..\Components\zmac\" -I "C:\Texas                /
//                          Instruments\ZStack-CC2530-IOT\Projects\SappWsn\.. /
//                          \..\Components\zmac\f8w\" -Ohz                    /
//                          --require_prototypes                              /
//    List file          =  C:\Texas Instruments\ZStack-CC2530-IOT\Projects\S /
//                          appWsn\RouterEB\List\SAPP_FrameWork.s51           /
//                                                                            /
//                                                                            /
///////////////////////////////////////////////////////////////////////////////

        NAME SAPP_FrameWork

        RTMODEL "__SystemLibrary", "CLib"
        RTMODEL "__calling_convention", "xdata_reentrant"
        RTMODEL "__code_model", "banked"
        RTMODEL "__core", "plain"
        RTMODEL "__data_model", "large"
        RTMODEL "__dptr_size", "16"
        RTMODEL "__extended_stack", "disabled"
        RTMODEL "__location_for_constants", "data"
        RTMODEL "__number_of_dptrs", "1"
        RTMODEL "__rt_version", "1"

        RSEG DOVERLAY:DATA:NOROOT(0)
        RSEG IOVERLAY:IDATA:NOROOT(0)
        RSEG ISTACK:IDATA:NOROOT(0)
        RSEG PSTACK:XDATA:NOROOT(0)
        RSEG XSTACK:XDATA:NOROOT(0)

        EXTERN ?ALLOC_XSTACK8
        EXTERN ?BANKED_ENTER_XDATA
        EXTERN ?BANKED_LEAVE_XDATA
        EXTERN ?BDISPATCH
        EXTERN ?BRET
        EXTERN ?CALL_IND
        EXTERN ?DEALLOC_XSTACK8
        EXTERN ?MOVE_LONG8_XDATA_XDATA
        EXTERN ?PUSH_XSTACK8_X_TWO
        EXTERN ?PUSH_XSTACK_I_ONE
        EXTERN ?PUSH_XSTACK_I_TWO
        EXTERN ?V0
        EXTERN ?XSP
        EXTERN ?XSTACK_DISP0_8
        EXTERN __INIT_XDATA_I
        EXTERN __INIT_XDATA_Z

        PUBLIC ??CreateUserTimer?relay
        FUNCTION ??CreateUserTimer?relay,0203H
        PUBLIC ??Delay100us?relay
        FUNCTION ??Delay100us?relay,0203H
        PUBLIC ??DeleteUserTimer?relay
        FUNCTION ??DeleteUserTimer?relay,0203H
        PUBLIC ??ModifyRefreshCycle?relay
        FUNCTION ??ModifyRefreshCycle?relay,0203H
        PUBLIC ??RouterIncomingRoutine?relay
        FUNCTION ??RouterIncomingRoutine?relay,0203H
        PUBLIC ??RouterTimeoutRoutine?relay
        FUNCTION ??RouterTimeoutRoutine?relay,0203H
        PUBLIC ??SendData?relay
        FUNCTION ??SendData?relay,0203H
        FUNCTION ??controlEpProcess?relay,0203H
        FUNCTION ??createEndPoint?relay,0203H
        FUNCTION ??functionEpProcess?relay,0203H
        PUBLIC ??osalInitTasks?relay
        FUNCTION ??osalInitTasks?relay,0203H
        FUNCTION ??taskInitProcess?relay,0203H
        PUBLIC CreateUserTimer
        FUNCTION CreateUserTimer,021203H
        ARGFRAME XSTACK, 0, STACK
        LOCFRAME ISTACK, 1, STACK
        LOCFRAME XSTACK, 9, STACK
        PUBLIC Delay100us
        FUNCTION Delay100us,080203H
        ARGFRAME XSTACK, 22, STACK
        ARGFRAME IOVERLAY, 0, STATIC
        ARGFRAME DOVERLAY, 0, STATIC
        PUBLIC DeleteUserTimer
        FUNCTION DeleteUserTimer,0203H
        ARGFRAME XSTACK, 0, STACK
        LOCFRAME ISTACK, 2, STACK
        PUBLIC ModifyRefreshCycle
        FUNCTION ModifyRefreshCycle,0203H
        ARGFRAME XSTACK, 0, STACK
        LOCFRAME ISTACK, 3, STACK
        PUBLIC RouterIncomingRoutine
        FUNCTION RouterIncomingRoutine,021203H
        ARGFRAME XSTACK, 2, STACK
        LOCFRAME ISTACK, 1, STACK
        LOCFRAME XSTACK, 24, STACK
        PUBLIC RouterTimeoutRoutine
        FUNCTION RouterTimeoutRoutine,021203H
        ARGFRAME XSTACK, 0, STACK
        LOCFRAME XSTACK, 11, STACK
        PUBLIC SendData
        FUNCTION SendData,021203H
        ARGFRAME XSTACK, 18, STACK
        ARGFRAME IOVERLAY, 0, STATIC
        ARGFRAME DOVERLAY, 0, STATIC
        LOCFRAME ISTACK, 1, STACK
        LOCFRAME XSTACK, 33, STACK
        PUBLIC SrcShortAddr
        FUNCTION controlEpProcess,021603H
        ARGFRAME XSTACK, 0, STACK
        LOCFRAME ISTACK, 2, STACK
        LOCFRAME XSTACK, 18, STACK
        FUNCTION createEndPoint,021203H
        ARGFRAME XSTACK, 10, STACK
        ARGFRAME IOVERLAY, 0, STATIC
        ARGFRAME DOVERLAY, 0, STATIC
        LOCFRAME ISTACK, 1, STACK
        LOCFRAME XSTACK, 10, STACK
        PUBLIC funcTableBuffer
        FUNCTION functionEpProcess,021603H
        ARGFRAME XSTACK, 0, STACK
        LOCFRAME ISTACK, 1, STACK
        LOCFRAME XSTACK, 20, STACK
        PUBLIC osalInitTasks
        FUNCTION osalInitTasks,021203H
        ARGFRAME XSTACK, 0, STACK
        LOCFRAME ISTACK, 2, STACK
        FUNCTION taskInitProcess,021203H
        ARGFRAME XSTACK, 0, STACK
        ARGFRAME IOVERLAY, 0, STATIC
        ARGFRAME DOVERLAY, 0, STATIC
        LOCFRAME ISTACK, 1, STACK
        LOCFRAME XSTACK, 10, STACK
        PUBLIC tasksArr
        PUBLIC tasksCnt
        
        CFI Names cfiNames0
        CFI StackFrame CFA_SP SP IDATA
        CFI StackFrame CFA_PSP16 PSP16 XDATA
        CFI StackFrame CFA_XSP16 XSP16 XDATA
        CFI StaticOverlayFrame CFA_IOVERLAY IOVERLAY
        CFI StaticOverlayFrame CFA_DOVERLAY DOVERLAY
        CFI Resource `PSW.CY`:1, `B.BR0`:1, `B.BR1`:1, `B.BR2`:1, `B.BR3`:1
        CFI Resource `B.BR4`:1, `B.BR5`:1, `B.BR6`:1, `B.BR7`:1, `VB.BR8`:1
        CFI Resource `VB.BR9`:1, `VB.BR10`:1, `VB.BR11`:1, `VB.BR12`:1
        CFI Resource `VB.BR13`:1, `VB.BR14`:1, `VB.BR15`:1, VB:8, B:8, A:8
        CFI Resource PSW:8, DPL0:8, DPH0:8, R0:8, R1:8, R2:8, R3:8, R4:8, R5:8
        CFI Resource R6:8, R7:8, V0:8, V1:8, V2:8, V3:8, V4:8, V5:8, V6:8, V7:8
        CFI Resource V8:8, V9:8, V10:8, V11:8, V12:8, V13:8, V14:8, V15:8, SP:8
        CFI Resource PSPH:8, PSPL:8, PSP16:16, XSPH:8, XSPL:8, XSP16:16
        CFI VirtualResource ?RET:24
        CFI Resource ?BRET_EXT:8
        CFI VirtualResource ?RET_HIGH:8, ?RET_LOW:8
        CFI ResourceParts PSP16 PSPH, PSPL
        CFI ResourceParts XSP16 XSPH, XSPL
        CFI ResourceParts ?RET ?BRET_EXT, ?RET_HIGH, ?RET_LOW
        CFI EndNames cfiNames0
        
        CFI Common cfiCommon0 Using cfiNames0
        CFI CodeAlign 1
        CFI DataAlign -1
        CFI ReturnAddress ?RET CODE
        CFI CFA_DOVERLAY Used
        CFI CFA_IOVERLAY Used
        CFI CFA_SP SP+-3
        CFI CFA_PSP16 PSP16+0
        CFI CFA_XSP16 XSP16+0
        CFI `PSW.CY` SameValue
        CFI `B.BR0` SameValue
        CFI `B.BR1` SameValue
        CFI `B.BR2` SameValue
        CFI `B.BR3` SameValue
        CFI `B.BR4` SameValue
        CFI `B.BR5` SameValue
        CFI `B.BR6` SameValue
        CFI `B.BR7` SameValue
        CFI `VB.BR8` SameValue
        CFI `VB.BR9` SameValue
        CFI `VB.BR10` SameValue
        CFI `VB.BR11` SameValue
        CFI `VB.BR12` SameValue
        CFI `VB.BR13` SameValue
        CFI `VB.BR14` SameValue
        CFI `VB.BR15` SameValue
        CFI VB SameValue
        CFI B Undefined
        CFI A Undefined
        CFI PSW SameValue
        CFI DPL0 SameValue
        CFI DPH0 SameValue
        CFI R0 Undefined
        CFI R1 Undefined
        CFI R2 Undefined
        CFI R3 Undefined
        CFI R4 Undefined
        CFI R5 Undefined
        CFI R6 SameValue
        CFI R7 SameValue
        CFI V0 SameValue
        CFI V1 SameValue
        CFI V2 SameValue
        CFI V3 SameValue
        CFI V4 SameValue
        CFI V5 SameValue
        CFI V6 SameValue
        CFI V7 SameValue
        CFI V8 SameValue
        CFI V9 SameValue
        CFI V10 SameValue
        CFI V11 SameValue
        CFI V12 SameValue
        CFI V13 SameValue
        CFI V14 SameValue
        CFI V15 SameValue
        CFI PSPH Undefined
        CFI PSPL Undefined
        CFI XSPH Undefined
        CFI XSPL Undefined
        CFI ?RET Concat
        CFI ?BRET_EXT Frame(CFA_SP, 3)
        CFI ?RET_HIGH Frame(CFA_SP, 2)
        CFI ?RET_LOW Frame(CFA_SP, 1)
        CFI EndCommon cfiCommon0
        
        
        CFI Common cfiCommon1 Using cfiNames0
        CFI CodeAlign 1
        CFI DataAlign -1
        CFI ReturnAddress ?RET CODE
        CFI CFA_DOVERLAY Used
        CFI CFA_IOVERLAY Used
        CFI CFA_SP SP+-2
        CFI CFA_PSP16 PSP16+0
        CFI CFA_XSP16 XSP16+0
        CFI `PSW.CY` SameValue
        CFI `B.BR0` SameValue
        CFI `B.BR1` SameValue
        CFI `B.BR2` SameValue
        CFI `B.BR3` SameValue
        CFI `B.BR4` SameValue
        CFI `B.BR5` SameValue
        CFI `B.BR6` SameValue
        CFI `B.BR7` SameValue
        CFI `VB.BR8` SameValue
        CFI `VB.BR9` SameValue
        CFI `VB.BR10` SameValue
        CFI `VB.BR11` SameValue
        CFI `VB.BR12` SameValue
        CFI `VB.BR13` SameValue
        CFI `VB.BR14` SameValue
        CFI `VB.BR15` SameValue
        CFI VB SameValue
        CFI B SameValue
        CFI A SameValue
        CFI PSW SameValue
        CFI DPL0 SameValue
        CFI DPH0 SameValue
        CFI R0 SameValue
        CFI R1 SameValue
        CFI R2 SameValue
        CFI R3 SameValue
        CFI R4 SameValue
        CFI R5 SameValue
        CFI R6 SameValue
        CFI R7 SameValue
        CFI V0 SameValue
        CFI V1 SameValue
        CFI V2 SameValue
        CFI V3 SameValue
        CFI V4 SameValue
        CFI V5 SameValue
        CFI V6 SameValue
        CFI V7 SameValue
        CFI V8 SameValue
        CFI V9 SameValue
        CFI V10 SameValue
        CFI V11 SameValue
        CFI V12 SameValue
        CFI V13 SameValue
        CFI V14 SameValue
        CFI V15 SameValue
        CFI PSPH Undefined
        CFI PSPL Undefined
        CFI XSPH Undefined
        CFI XSPL Undefined
        CFI ?RET Concat
        CFI ?BRET_EXT SameValue
        CFI ?RET_HIGH Frame(CFA_SP, 2)
        CFI ?RET_LOW Frame(CFA_SP, 1)
        CFI EndCommon cfiCommon1
        
macTaskInit         SYMBOL "macTaskInit"
nwk_init            SYMBOL "nwk_init"
Hal_Init            SYMBOL "Hal_Init"
MT_TaskInit         SYMBOL "MT_TaskInit"
APS_Init            SYMBOL "APS_Init"
APSF_Init           SYMBOL "APSF_Init"
ZDApp_Init          SYMBOL "ZDApp_Init"
ZDNwkMgr_Init       SYMBOL "ZDNwkMgr_Init"
osal_mem_alloc      SYMBOL "osal_mem_alloc"
afRegister          SYMBOL "afRegister"
osal_msg_receive    SYMBOL "osal_msg_receive"
NLME_GetExtAddr     SYMBOL "NLME_GetExtAddr"
memcpy              SYMBOL "memcpy"
NLME_GetCoordShortAddr SYMBOL "NLME_GetCoordShortAddr"
HalLedBlink         SYMBOL "HalLedBlink"
osal_msg_deallocate SYMBOL "osal_msg_deallocate"
osal_start_timerEx  SYMBOL "osal_start_timerEx"
osal_stop_timerEx   SYMBOL "osal_stop_timerEx"
AF_DataRequest      SYMBOL "AF_DataRequest"
MT_UartCalcFCS      SYMBOL "MT_UartCalcFCS"
HalUARTWrite        SYMBOL "HalUARTWrite"
osal_mem_free       SYMBOL "osal_mem_free"
??AF_DataRequest?relay SYMBOL "?relay", AF_DataRequest
??APSF_Init?relay   SYMBOL "?relay", APSF_Init
`?<Name APSF_ProcessEvent 24>` SYMBOL "APSF_ProcessEvent"
??APSF_ProcessEvent?relay SYMBOL "?relay", `?<Name APSF_ProcessEvent 24>`
??APS_Init?relay    SYMBOL "?relay", APS_Init
`?<Name APS_event_loop 27>` SYMBOL "APS_event_loop"
??APS_event_loop?relay SYMBOL "?relay", `?<Name APS_event_loop 27>`
??HalLedBlink?relay SYMBOL "?relay", HalLedBlink
??HalUARTWrite?relay SYMBOL "?relay", HalUARTWrite
??Hal_Init?relay    SYMBOL "?relay", Hal_Init
`?<Name Hal_ProcessEvent 32>` SYMBOL "Hal_ProcessEvent"
??Hal_ProcessEvent?relay SYMBOL "?relay", `?<Name Hal_ProcessEvent 32>`
`?<Name MT_ProcessEvent 34>` SYMBOL "MT_ProcessEvent"
??MT_ProcessEvent?relay SYMBOL "?relay", `?<Name MT_ProcessEvent 34>`
??MT_TaskInit?relay SYMBOL "?relay", MT_TaskInit
??MT_UartCalcFCS?relay SYMBOL "?relay", MT_UartCalcFCS
??NLME_GetCoordShortAddr?relay SYMBOL "?relay", NLME_GetCoordShortAddr
??NLME_GetExtAddr?relay SYMBOL "?relay", NLME_GetExtAddr
??ZDApp_Init?relay  SYMBOL "?relay", ZDApp_Init
`?<Name ZDApp_event_loop 41>` SYMBOL "ZDApp_event_loop"
??ZDApp_event_loop?relay SYMBOL "?relay", `?<Name ZDApp_event_loop 41>`
??ZDNwkMgr_Init?relay SYMBOL "?relay", ZDNwkMgr_Init
`?<Name ZDNwkMgr_event_loop 44>` SYMBOL "ZDNwkMgr_event_loop"
??ZDNwkMgr_event_loop?relay SYMBOL "?relay", `?<Name ZDNwkMgr_event_loop 44>`
??afRegister?relay  SYMBOL "?relay", afRegister
`?<Name macEventLoop 47>` SYMBOL "macEventLoop"
??macEventLoop?relay SYMBOL "?relay", `?<Name macEventLoop 47>`
??macTaskInit?relay SYMBOL "?relay", macTaskInit
??memcpy?relay      SYMBOL "?relay", memcpy
`?<Name nwk_event_loop 51>` SYMBOL "nwk_event_loop"
??nwk_event_loop?relay SYMBOL "?relay", `?<Name nwk_event_loop 51>`
??nwk_init?relay    SYMBOL "?relay", nwk_init
??osal_mem_alloc?relay SYMBOL "?relay", osal_mem_alloc
??osal_mem_free?relay SYMBOL "?relay", osal_mem_free
??osal_msg_deallocate?relay SYMBOL "?relay", osal_msg_deallocate
??osal_msg_receive?relay SYMBOL "?relay", osal_msg_receive
??osal_start_timerEx?relay SYMBOL "?relay", osal_start_timerEx
??osal_stop_timerEx?relay SYMBOL "?relay", osal_stop_timerEx
CreateUserTimer     SYMBOL "CreateUserTimer"
??CreateUserTimer?relay SYMBOL "?relay", CreateUserTimer
Delay100us          SYMBOL "Delay100us"
??Delay100us?relay  SYMBOL "?relay", Delay100us
DeleteUserTimer     SYMBOL "DeleteUserTimer"
??DeleteUserTimer?relay SYMBOL "?relay", DeleteUserTimer
ModifyRefreshCycle  SYMBOL "ModifyRefreshCycle"
??ModifyRefreshCycle?relay SYMBOL "?relay", ModifyRefreshCycle
RouterIncomingRoutine SYMBOL "RouterIncomingRoutine"
??RouterIncomingRoutine?relay SYMBOL "?relay", RouterIncomingRoutine
RouterTimeoutRoutine SYMBOL "RouterTimeoutRoutine"
??RouterTimeoutRoutine?relay SYMBOL "?relay", RouterTimeoutRoutine
SendData            SYMBOL "SendData"
??SendData?relay    SYMBOL "?relay", SendData
osalInitTasks       SYMBOL "osalInitTasks"
??osalInitTasks?relay SYMBOL "?relay", osalInitTasks

        EXTERN macTaskInit
        FUNCTION macTaskInit,0202H
        ARGFRAME ISTACK, 2, STACK
        ARGFRAME PSTACK, 0, STACK
        ARGFRAME XSTACK, 0, STACK
        ARGFRAME IOVERLAY, 0, STATIC
        ARGFRAME DOVERLAY, 0, STATIC
        EXTERN nwk_init
        FUNCTION nwk_init,0202H
        ARGFRAME ISTACK, 2, STACK
        ARGFRAME PSTACK, 0, STACK
        ARGFRAME XSTACK, 0, STACK
        ARGFRAME IOVERLAY, 0, STATIC
        ARGFRAME DOVERLAY, 0, STATIC
        EXTERN Hal_Init
        FUNCTION Hal_Init,0202H
        ARGFRAME ISTACK, 2, STACK
        ARGFRAME PSTACK, 0, STACK
        ARGFRAME XSTACK, 0, STACK
        ARGFRAME IOVERLAY, 0, STATIC
        ARGFRAME DOVERLAY, 0, STATIC
        EXTERN MT_TaskInit
        FUNCTION MT_TaskInit,0202H
        ARGFRAME ISTACK, 2, STACK
        ARGFRAME PSTACK, 0, STACK
        ARGFRAME XSTACK, 0, STACK
        ARGFRAME IOVERLAY, 0, STATIC
        ARGFRAME DOVERLAY, 0, STATIC
        EXTERN APS_Init
        FUNCTION APS_Init,0202H
        ARGFRAME ISTACK, 2, STACK
        ARGFRAME PSTACK, 0, STACK
        ARGFRAME XSTACK, 0, STACK
        ARGFRAME IOVERLAY, 0, STATIC
        ARGFRAME DOVERLAY, 0, STATIC
        EXTERN APSF_Init
        FUNCTION APSF_Init,0202H
        ARGFRAME ISTACK, 2, STACK
        ARGFRAME PSTACK, 0, STACK
        ARGFRAME XSTACK, 0, STACK
        ARGFRAME IOVERLAY, 0, STATIC
        ARGFRAME DOVERLAY, 0, STATIC
        EXTERN ZDApp_Init
        FUNCTION ZDApp_Init,0202H
        ARGFRAME ISTACK, 2, STACK
        ARGFRAME PSTACK, 0, STACK
        ARGFRAME XSTACK, 0, STACK
        ARGFRAME IOVERLAY, 0, STATIC
        ARGFRAME DOVERLAY, 0, STATIC
        EXTERN ZDNwkMgr_Init
        FUNCTION ZDNwkMgr_Init,0202H
        ARGFRAME ISTACK, 2, STACK
        ARGFRAME PSTACK, 0, STACK
        ARGFRAME XSTACK, 0, STACK
        ARGFRAME IOVERLAY, 0, STATIC
        ARGFRAME DOVERLAY, 0, STATIC
        EXTERN osal_mem_alloc
        FUNCTION osal_mem_alloc,0202H
        ARGFRAME ISTACK, 0, STACK
        ARGFRAME PSTACK, 0, STACK
        ARGFRAME XSTACK, 22, STACK
        ARGFRAME IOVERLAY, 0, STATIC
        ARGFRAME DOVERLAY, 0, STATIC
        EXTERN afRegister
        FUNCTION afRegister,0202H
        ARGFRAME ISTACK, 0, STACK
        ARGFRAME PSTACK, 0, STACK
        ARGFRAME XSTACK, 10, STACK
        ARGFRAME IOVERLAY, 0, STATIC
        ARGFRAME DOVERLAY, 0, STATIC
        EXTERN osal_msg_receive
        FUNCTION osal_msg_receive,0202H
        ARGFRAME ISTACK, 0, STACK
        ARGFRAME PSTACK, 0, STACK
        ARGFRAME XSTACK, 18, STACK
        ARGFRAME IOVERLAY, 0, STATIC
        ARGFRAME DOVERLAY, 0, STATIC
        EXTERN NLME_GetExtAddr
        FUNCTION NLME_GetExtAddr,0202H
        ARGFRAME ISTACK, 0, STACK
        ARGFRAME PSTACK, 0, STACK
        ARGFRAME XSTACK, 18, STACK
        ARGFRAME IOVERLAY, 0, STATIC
        ARGFRAME DOVERLAY, 0, STATIC
        EXTERN memcpy
        FUNCTION memcpy,010202H
        ARGFRAME ISTACK, 0, STACK
        ARGFRAME PSTACK, 0, STACK
        ARGFRAME XSTACK, 24, STACK
        ARGFRAME IOVERLAY, 0, STATIC
        ARGFRAME DOVERLAY, 0, STATIC
        EXTERN NLME_GetCoordShortAddr
        FUNCTION NLME_GetCoordShortAddr,0202H
        ARGFRAME ISTACK, 0, STACK
        ARGFRAME PSTACK, 0, STACK
        ARGFRAME XSTACK, 16, STACK
        ARGFRAME IOVERLAY, 0, STATIC
        ARGFRAME DOVERLAY, 0, STATIC
        EXTERN HalLedBlink
        FUNCTION HalLedBlink,0202H
        ARGFRAME ISTACK, 0, STACK
        ARGFRAME PSTACK, 0, STACK
        ARGFRAME XSTACK, 24, STACK
        ARGFRAME IOVERLAY, 0, STATIC
        ARGFRAME DOVERLAY, 0, STATIC
        EXTERN osal_msg_deallocate
        FUNCTION osal_msg_deallocate,0202H
        ARGFRAME ISTACK, 0, STACK
        ARGFRAME PSTACK, 0, STACK
        ARGFRAME XSTACK, 18, STACK
        ARGFRAME IOVERLAY, 0, STATIC
        ARGFRAME DOVERLAY, 0, STATIC
        EXTERN osal_start_timerEx
        FUNCTION osal_start_timerEx,0202H
        ARGFRAME ISTACK, 0, STACK
        ARGFRAME PSTACK, 0, STACK
        ARGFRAME XSTACK, 18, STACK
        ARGFRAME IOVERLAY, 0, STATIC
        ARGFRAME DOVERLAY, 0, STATIC
        EXTERN osal_stop_timerEx
        FUNCTION osal_stop_timerEx,0202H
        ARGFRAME ISTACK, 0, STACK
        ARGFRAME PSTACK, 0, STACK
        ARGFRAME XSTACK, 18, STACK
        ARGFRAME IOVERLAY, 0, STATIC
        ARGFRAME DOVERLAY, 0, STATIC
        EXTERN AF_DataRequest
        FUNCTION AF_DataRequest,0202H
        ARGFRAME ISTACK, 0, STACK
        ARGFRAME PSTACK, 0, STACK
        ARGFRAME XSTACK, 33, STACK
        ARGFRAME IOVERLAY, 0, STATIC
        ARGFRAME DOVERLAY, 0, STATIC
        EXTERN MT_UartCalcFCS
        FUNCTION MT_UartCalcFCS,0202H
        ARGFRAME ISTACK, 0, STACK
        ARGFRAME PSTACK, 0, STACK
        ARGFRAME XSTACK, 22, STACK
        ARGFRAME IOVERLAY, 0, STATIC
        ARGFRAME DOVERLAY, 0, STATIC
        EXTERN HalUARTWrite
        FUNCTION HalUARTWrite,0202H
        ARGFRAME ISTACK, 0, STACK
        ARGFRAME PSTACK, 0, STACK
        ARGFRAME XSTACK, 22, STACK
        ARGFRAME IOVERLAY, 0, STATIC
        ARGFRAME DOVERLAY, 0, STATIC
        EXTERN osal_mem_free
        FUNCTION osal_mem_free,0202H
        ARGFRAME ISTACK, 0, STACK
        ARGFRAME PSTACK, 0, STACK
        ARGFRAME XSTACK, 22, STACK
        ARGFRAME IOVERLAY, 0, STATIC
        ARGFRAME DOVERLAY, 0, STATIC
        EXTERN ??AF_DataRequest?relay
        FUNCTION ??AF_DataRequest?relay,00H
        EXTERN ??APSF_Init?relay
        FUNCTION ??APSF_Init?relay,00H
        EXTERN ??APSF_ProcessEvent?relay
        FUNCTION ??APSF_ProcessEvent?relay,00H
        EXTERN ??APS_Init?relay
        FUNCTION ??APS_Init?relay,00H
        EXTERN ??APS_event_loop?relay
        FUNCTION ??APS_event_loop?relay,00H
        EXTERN ??HalLedBlink?relay
        FUNCTION ??HalLedBlink?relay,00H
        EXTERN ??HalUARTWrite?relay
        FUNCTION ??HalUARTWrite?relay,00H
        EXTERN ??Hal_Init?relay
        FUNCTION ??Hal_Init?relay,00H
        EXTERN ??Hal_ProcessEvent?relay
        FUNCTION ??Hal_ProcessEvent?relay,00H
        EXTERN ??MT_ProcessEvent?relay
        FUNCTION ??MT_ProcessEvent?relay,00H
        EXTERN ??MT_TaskInit?relay
        FUNCTION ??MT_TaskInit?relay,00H
        EXTERN ??MT_UartCalcFCS?relay
        FUNCTION ??MT_UartCalcFCS?relay,00H
        EXTERN ??NLME_GetCoordShortAddr?relay
        FUNCTION ??NLME_GetCoordShortAddr?relay,00H
        EXTERN ??NLME_GetExtAddr?relay
        FUNCTION ??NLME_GetExtAddr?relay,00H
        EXTERN ??ZDApp_Init?relay
        FUNCTION ??ZDApp_Init?relay,00H
        EXTERN ??ZDApp_event_loop?relay
        FUNCTION ??ZDApp_event_loop?relay,00H
        EXTERN ??ZDNwkMgr_Init?relay
        FUNCTION ??ZDNwkMgr_Init?relay,00H
        EXTERN ??ZDNwkMgr_event_loop?relay
        FUNCTION ??ZDNwkMgr_event_loop?relay,00H
        EXTERN ??afRegister?relay
        FUNCTION ??afRegister?relay,00H
        EXTERN ??macEventLoop?relay
        FUNCTION ??macEventLoop?relay,00H
        EXTERN ??macTaskInit?relay
        FUNCTION ??macTaskInit?relay,00H
        EXTERN ??memcpy?relay
        FUNCTION ??memcpy?relay,00H
        EXTERN ??nwk_event_loop?relay
        FUNCTION ??nwk_event_loop?relay,00H
        EXTERN ??nwk_init?relay
        FUNCTION ??nwk_init?relay,00H
        EXTERN ??osal_mem_alloc?relay
        FUNCTION ??osal_mem_alloc?relay,00H
        EXTERN ??osal_mem_free?relay
        FUNCTION ??osal_mem_free?relay,00H
        EXTERN ??osal_msg_deallocate?relay
        FUNCTION ??osal_msg_deallocate?relay,00H
        EXTERN ??osal_msg_receive?relay
        FUNCTION ??osal_msg_receive?relay,00H
        EXTERN ??osal_start_timerEx?relay
        FUNCTION ??osal_start_timerEx?relay,00H
        EXTERN ??osal_stop_timerEx?relay
        FUNCTION ??osal_stop_timerEx?relay,00H
        EXTERN funcCount
        EXTERN funcList

// C:\Texas Instruments\ZStack-CC2530-IOT\Projects\SappWsn\Source\SAPP_FrameWork.c
//    1 #include "SAPP_FrameWork.h"
//    2 #include <string.h>
//    3 #include <Lcd_Dis.h>
//    4 #include "hal_lcd.h"
//    5 /*********************************************************************
//    6  * FUNCTIONS
//    7  *********************************************************************/
//    8 static void createEndPoint(struct ep_info_t *epInfo, uint8 *task_id, uint8 ep);
//    9 static void taskInitProcess(void);
//   10 static uint16 controlEpProcess(uint8 task_id, uint16 events);
//   11 static UINT16 functionEpProcess( uint8 task_id, uint16 events );

        RSEG XDATA_I:XDATA:NOROOT(0)
//   12 uint16 SrcShortAddr = 0xFFFF;//PeerToPeer时使用
SrcShortAddr:
        DATA16
        DS 2
        REQUIRE `?<Initializer for SrcShortAddr>`
        REQUIRE __INIT_XDATA_I
//   13 void Delay100us(uint16);
//   14 #if defined(ZDO_COORDINATOR) || defined(PEER_ROUTER) || defined(PEER_COORD)
//   15 static uint8 uartMsgProcesser(uint8 *msg);
//   16 #endif
//   17 
//   18 //uint8 ctrlBuffer[sizeof(TOPOINFO) + sizeof(FUNCTABLE) + FUNC_NUM * sizeof(FUNCINFO)];

        RSEG XDATA_I:XDATA:NOROOT(0)
//   19 static TOPOINFO topoBuffer = { 0x02 };
topoBuffer:
        DATA8
        DS 11
        REQUIRE `?<Initializer for topoBuffer>`
        REQUIRE __INIT_XDATA_I

        RSEG XDATA_Z:XDATA:NOROOT(0)
        DATA16
//   20 FUNCTABLE *funcTableBuffer;// = (FUNCTABLE *)(&ctrlBuffer[sizeof(TOPOINFO)]);
funcTableBuffer:
        DS 2
        REQUIRE __INIT_XDATA_Z
//   21 

        RSEG XDATA_ROM_C:CONST:REORDER:NOROOT(0)
        DATA8
//   22 const pTaskEventHandlerFn tasksArr[] = {
tasksArr:
        DATA16
        DW ??macEventLoop?relay
        DW ??nwk_event_loop?relay
        DW ??Hal_ProcessEvent?relay
        DW ??MT_ProcessEvent?relay
        DW ??APS_event_loop?relay
        DW ??APSF_ProcessEvent?relay
        DW ??ZDApp_event_loop?relay
        DW ??ZDNwkMgr_event_loop?relay
        DW ??controlEpProcess?relay
        DW ??functionEpProcess?relay
//   23     macEventLoop,
//   24     nwk_event_loop,
//   25     Hal_ProcessEvent,
//   26 #if defined( MT_TASK )
//   27     MT_ProcessEvent,
//   28 #endif
//   29     APS_event_loop,
//   30 #if defined ( ZIGBEE_FRAGMENTATION )
//   31     APSF_ProcessEvent,
//   32 #endif
//   33     ZDApp_event_loop,
//   34 #if defined ( ZIGBEE_FREQ_AGILITY ) || defined ( ZIGBEE_PANID_CONFLICT )
//   35     ZDNwkMgr_event_loop,
//   36 #endif
//   37     controlEpProcess,
//   38     functionEpProcess,
//   39 };

        RSEG XDATA_ROM_C:CONST:REORDER:NOROOT(0)
        DATA8
//   40 const uint8 tasksCnt = sizeof(tasksArr)/sizeof(tasksArr[0]);
tasksCnt:
        DB 10
//   41 /*********************************************************************
//   42 *********************************************************************/
//   43 
//   44 /*********************************************************************
//   45  * @fn      osalInitTasks
//   46  *
//   47  * @brief   This function invokes the initialization function for each task.
//   48  *
//   49  * @param   void
//   50  *
//   51  * @return  none
//   52  */

        RSEG BANKED_CODE:CODE:NOROOT(0)
//   53 void osalInitTasks( void )
osalInitTasks:
        CFI Block cfiBlock0 Using cfiCommon0
        CFI Function osalInitTasks
        CODE
//   54 {
        FUNCALL osalInitTasks, macTaskInit
        LOCFRAME ISTACK, 2, STACK
        LOCFRAME PSTACK, 0, STACK
        LOCFRAME XSTACK, 0, STACK
        LOCFRAME IOVERLAY, 0, STATIC
        LOCFRAME DOVERLAY, 0, STATIC
        ARGFRAME ISTACK, 2, STACK
        ARGFRAME PSTACK, 0, STACK
        ARGFRAME XSTACK, 0, STACK
        ARGFRAME IOVERLAY, 0, STATIC
        ARGFRAME DOVERLAY, 0, STATIC
        FUNCALL osalInitTasks, nwk_init
        LOCFRAME ISTACK, 2, STACK
        LOCFRAME PSTACK, 0, STACK
        LOCFRAME XSTACK, 0, STACK
        LOCFRAME IOVERLAY, 0, STATIC
        LOCFRAME DOVERLAY, 0, STATIC
        ARGFRAME ISTACK, 2, STACK
        ARGFRAME PSTACK, 0, STACK
        ARGFRAME XSTACK, 0, STACK
        ARGFRAME IOVERLAY, 0, STATIC
        ARGFRAME DOVERLAY, 0, STATIC
        FUNCALL osalInitTasks, Hal_Init
        LOCFRAME ISTACK, 2, STACK
        LOCFRAME PSTACK, 0, STACK
        LOCFRAME XSTACK, 0, STACK
        LOCFRAME IOVERLAY, 0, STATIC
        LOCFRAME DOVERLAY, 0, STATIC
        ARGFRAME ISTACK, 2, STACK
        ARGFRAME PSTACK, 0, STACK
        ARGFRAME XSTACK, 0, STACK
        ARGFRAME IOVERLAY, 0, STATIC
        ARGFRAME DOVERLAY, 0, STATIC
        FUNCALL osalInitTasks, MT_TaskInit
        LOCFRAME ISTACK, 2, STACK
        LOCFRAME PSTACK, 0, STACK
        LOCFRAME XSTACK, 0, STACK
        LOCFRAME IOVERLAY, 0, STATIC
        LOCFRAME DOVERLAY, 0, STATIC
        ARGFRAME ISTACK, 2, STACK
        ARGFRAME PSTACK, 0, STACK
        ARGFRAME XSTACK, 0, STACK
        ARGFRAME IOVERLAY, 0, STATIC
        ARGFRAME DOVERLAY, 0, STATIC
        FUNCALL osalInitTasks, APS_Init
        LOCFRAME ISTACK, 2, STACK
        LOCFRAME PSTACK, 0, STACK
        LOCFRAME XSTACK, 0, STACK
        LOCFRAME IOVERLAY, 0, STATIC
        LOCFRAME DOVERLAY, 0, STATIC
        ARGFRAME ISTACK, 2, STACK
        ARGFRAME PSTACK, 0, STACK
        ARGFRAME XSTACK, 0, STACK
        ARGFRAME IOVERLAY, 0, STATIC
        ARGFRAME DOVERLAY, 0, STATIC
        FUNCALL osalInitTasks, APSF_Init
        LOCFRAME ISTACK, 2, STACK
        LOCFRAME PSTACK, 0, STACK
        LOCFRAME XSTACK, 0, STACK
        LOCFRAME IOVERLAY, 0, STATIC
        LOCFRAME DOVERLAY, 0, STATIC
        ARGFRAME ISTACK, 2, STACK
        ARGFRAME PSTACK, 0, STACK
        ARGFRAME XSTACK, 0, STACK
        ARGFRAME IOVERLAY, 0, STATIC
        ARGFRAME DOVERLAY, 0, STATIC
        FUNCALL osalInitTasks, ZDApp_Init
        LOCFRAME ISTACK, 2, STACK
        LOCFRAME PSTACK, 0, STACK
        LOCFRAME XSTACK, 0, STACK
        LOCFRAME IOVERLAY, 0, STATIC
        LOCFRAME DOVERLAY, 0, STATIC
        ARGFRAME ISTACK, 2, STACK
        ARGFRAME PSTACK, 0, STACK
        ARGFRAME XSTACK, 0, STACK
        ARGFRAME IOVERLAY, 0, STATIC
        ARGFRAME DOVERLAY, 0, STATIC
        FUNCALL osalInitTasks, ZDNwkMgr_Init
        LOCFRAME ISTACK, 2, STACK
        LOCFRAME PSTACK, 0, STACK
        LOCFRAME XSTACK, 0, STACK
        LOCFRAME IOVERLAY, 0, STATIC
        LOCFRAME DOVERLAY, 0, STATIC
        ARGFRAME ISTACK, 2, STACK
        ARGFRAME PSTACK, 0, STACK
        ARGFRAME XSTACK, 0, STACK
        ARGFRAME IOVERLAY, 0, STATIC
        ARGFRAME DOVERLAY, 0, STATIC
        FUNCALL osalInitTasks, taskInitProcess
        LOCFRAME ISTACK, 2, STACK
        LOCFRAME PSTACK, 0, STACK
        LOCFRAME XSTACK, 0, STACK
        LOCFRAME IOVERLAY, 0, STATIC
        LOCFRAME DOVERLAY, 0, STATIC
        ARGFRAME ISTACK, 2, STACK
        ARGFRAME PSTACK, 0, STACK
        ARGFRAME XSTACK, 0, STACK
        ARGFRAME IOVERLAY, 0, STATIC
        ARGFRAME DOVERLAY, 0, STATIC
        PUSH    DPL
        CFI DPL0 Frame(CFA_SP, 4)
        CFI CFA_SP SP+-4
        PUSH    DPH
        CFI DPH0 Frame(CFA_SP, 5)
        CFI CFA_SP SP+-5
        ; Saved register size: 2
        ; Auto size: 0
//   55     uint8 taskID = 0;
//   56 
//   57     macTaskInit( taskID++ );
        ; Setup parameters for call to function macTaskInit
        MOV     R1,#0x0
        LCALL   ??macTaskInit?relay
//   58     nwk_init( taskID++ );
        ; Setup parameters for call to function nwk_init
        MOV     R1,#0x1
        LCALL   ??nwk_init?relay
//   59     Hal_Init( taskID++ );
        ; Setup parameters for call to function Hal_Init
        MOV     R1,#0x2
        LCALL   ??Hal_Init?relay
//   60 #if defined( MT_TASK )
//   61     MT_TaskInit( taskID++ );
        ; Setup parameters for call to function MT_TaskInit
        MOV     R1,#0x3
        LCALL   ??MT_TaskInit?relay
//   62 #endif
//   63     APS_Init( taskID++ );
        ; Setup parameters for call to function APS_Init
        MOV     R1,#0x4
        LCALL   ??APS_Init?relay
//   64 #if defined ( ZIGBEE_FRAGMENTATION )
//   65     APSF_Init( taskID++ );
        ; Setup parameters for call to function APSF_Init
        MOV     R1,#0x5
        LCALL   ??APSF_Init?relay
//   66 #endif
//   67     ZDApp_Init( taskID++ );
        ; Setup parameters for call to function ZDApp_Init
        MOV     R1,#0x6
        LCALL   ??ZDApp_Init?relay
//   68 #if defined ( ZIGBEE_FREQ_AGILITY ) || defined ( ZIGBEE_PANID_CONFLICT )
//   69     ZDNwkMgr_Init( taskID++ );
        ; Setup parameters for call to function ZDNwkMgr_Init
        MOV     R1,#0x7
        LCALL   ??ZDNwkMgr_Init?relay
//   70 #endif
//   71 #if defined(ZDO_COORDINATOR)// || defined(RTR_NWK)    
//   72     ClrScreen();        
//   73     FontSet_cn(1,1);                //16x16	
//   74     PutString_cn(24,0,"网络协调器");
//   75     PutString_cn(0,16,"---------------");
//   76     PutString_cn(8,32,"启动新的网络");	
//   77     PutString_cn(8,48,"正在启动...");	
//   78 #endif  
//   79     taskInitProcess();  
        ; Setup parameters for call to function taskInitProcess
        LCALL   ??taskInitProcess?relay
        CFI EndBlock cfiBlock0
//   80     //Hello_Init(taskID);
//   81 }
        REQUIRE ?Subroutine0
        ; // Fall through to label ?Subroutine0

        RSEG BANKED_CODE:CODE:NOROOT(0)
?Subroutine0:
        CFI Block cfiBlock1 Using cfiCommon0
        CFI NoFunction
        CFI CFA_SP SP+-5
        CFI DPL0 Frame(CFA_SP, 4)
        CFI DPH0 Frame(CFA_SP, 5)
        POP     DPH
        CFI CFA_SP SP+-4
        CFI DPH0 SameValue
        POP     DPL
        CFI CFA_SP SP+-3
        CFI DPL0 SameValue
        LJMP    ?BRET
        CFI EndBlock cfiBlock1
//   82 

        RSEG XDATA_Z:XDATA:NOROOT(0)
        DATA8
//   83 static devStates_t curNwkState;
curNwkState:
        DS 1
        REQUIRE __INIT_XDATA_Z

        RSEG XDATA_Z:XDATA:NOROOT(0)
        DATA8
//   84 static uint8 controlTaskId;
controlTaskId:
        DS 1
        REQUIRE __INIT_XDATA_Z

        RSEG XDATA_Z:XDATA:NOROOT(0)
        DATA8
//   85 static uint8 functionTaskId;
functionTaskId:
        DS 1
        REQUIRE __INIT_XDATA_Z

        RSEG XDATA_Z:XDATA:NOROOT(0)
        DATA8
//   86 static struct ep_info_t controlEndPointInfo;
controlEndPointInfo:
        DS 33
        REQUIRE __INIT_XDATA_Z

        RSEG XDATA_Z:XDATA:NOROOT(0)
        DATA8
//   87 static uint8 isUserTimerRunning = 0;
isUserTimerRunning:
        DS 1
        REQUIRE __INIT_XDATA_Z
//   88 /*********************************************************************
//   89  * LOCAL FUNCTIONS
//   90  */

        RSEG BANKED_CODE:CODE:NOROOT(0)
//   91 static void taskInitProcess(void)
taskInitProcess:
        CFI Block cfiBlock2 Using cfiCommon0
        CFI Function taskInitProcess
        CODE
//   92 {
        FUNCALL taskInitProcess, osal_mem_alloc
        LOCFRAME ISTACK, 0, STACK
        LOCFRAME PSTACK, 0, STACK
        LOCFRAME XSTACK, 10, STACK
        LOCFRAME IOVERLAY, 0, STATIC
        LOCFRAME DOVERLAY, 0, STATIC
        ARGFRAME ISTACK, 0, STACK
        ARGFRAME PSTACK, 0, STACK
        ARGFRAME XSTACK, 10, STACK
        ARGFRAME IOVERLAY, 0, STATIC
        ARGFRAME DOVERLAY, 0, STATIC
        FUNCALL taskInitProcess, createEndPoint
        LOCFRAME ISTACK, 0, STACK
        LOCFRAME PSTACK, 0, STACK
        LOCFRAME XSTACK, 10, STACK
        LOCFRAME IOVERLAY, 0, STATIC
        LOCFRAME DOVERLAY, 0, STATIC
        ARGFRAME ISTACK, 0, STACK
        ARGFRAME PSTACK, 0, STACK
        ARGFRAME XSTACK, 10, STACK
        ARGFRAME IOVERLAY, 0, STATIC
        ARGFRAME DOVERLAY, 0, STATIC
        FUNCALL taskInitProcess, createEndPoint
        LOCFRAME ISTACK, 0, STACK
        LOCFRAME PSTACK, 0, STACK
        LOCFRAME XSTACK, 10, STACK
        LOCFRAME IOVERLAY, 0, STATIC
        LOCFRAME DOVERLAY, 0, STATIC
        ARGFRAME ISTACK, 0, STACK
        ARGFRAME PSTACK, 0, STACK
        ARGFRAME XSTACK, 10, STACK
        ARGFRAME IOVERLAY, 0, STATIC
        ARGFRAME DOVERLAY, 0, STATIC
        MOV     A,#-0xa
        LCALL   ?BANKED_ENTER_XDATA
        CFI DPH0 load(1, XDATA, add(CFA_XSP16, literal(-1)))
        CFI DPL0 load(1, XDATA, add(CFA_XSP16, literal(-2)))
        CFI ?BRET_EXT load(1, XDATA, add(CFA_XSP16, literal(-3)))
        CFI ?RET_HIGH load(1, XDATA, add(CFA_XSP16, literal(-4)))
        CFI ?RET_LOW load(1, XDATA, add(CFA_XSP16, literal(-5)))
        CFI R7 load(1, XDATA, add(CFA_XSP16, literal(-6)))
        CFI V1 load(1, XDATA, add(CFA_XSP16, literal(-7)))
        CFI V0 load(1, XDATA, add(CFA_XSP16, literal(-8)))
        CFI VB load(1, XDATA, add(CFA_XSP16, literal(-9)))
        CFI R6 load(1, XDATA, add(CFA_XSP16, literal(-10)))
        CFI CFA_SP SP+0
        CFI CFA_XSP16 add(XSP16, 10)
        ; Saved register size: 10
        ; Auto size: 0
//   93  #if defined ( BUILD_ALL_DEVICES )
//   94     // The "Demo" target is setup to have BUILD_ALL_DEVICES and HOLD_AUTO_START
//   95     // We are looking at a jumper (defined in SampleAppHw.c) to be jumpered
//   96     // together - if they are - we will start up a coordinator. Otherwise,
//   97     // the device will start as a router.
//   98     if ( readCoordinatorJumper() )
//   99         zgDeviceLogicalType = ZG_DEVICETYPE_COORDINATOR;
//  100     else
//  101         zgDeviceLogicalType = ZG_DEVICETYPE_ROUTER;
//  102 #endif // BUILD_ALL_DEVICES
//  103 
//  104 #if defined ( HOLD_AUTO_START )
//  105     // HOLD_AUTO_START is a compile option that will surpress ZDApp
//  106     //  from starting the device and wait for the application to
//  107     //  start the device.
//  108     ZDOInitDevice(0);
//  109 #endif
//  110 
//  111     // 构造功能列表
//  112     funcTableBuffer = createFuncTable(funcCount);
        ; Setup parameters for call to function osal_mem_alloc
        MOV     DPTR,#funcCount
        MOVX    A,@DPTR
        MOV     B,#0x3
        MUL     AB
        ADD     A,#0x2
        MOV     R2,A
        MOV     A,B
        ADDC    A,#0x0
        MOV     R3,A
        LCALL   ??osal_mem_alloc?relay
        MOV     DPTR,#funcTableBuffer
        MOV     A,R2
        MOVX    @DPTR,A
        INC     DPTR
        MOV     A,R3
        MOVX    @DPTR,A
//  113     funcTableBuffer->ft_type = 0x01;
        LCALL   ?Subroutine6 & 0xFFFF
??CrossCallReturnLabel_71:
        MOV     A,#0x1
        MOVX    @DPTR,A
//  114     funcTableBuffer->ft_count = funcCount;
        MOV     DPTR,#funcCount
        MOVX    A,@DPTR
        PUSH    A
        CFI CFA_SP SP+-1
        LCALL   ?Subroutine6 & 0xFFFF
??CrossCallReturnLabel_72:
        INC     DPTR
        POP     A
        CFI CFA_SP SP+0
        MOVX    @DPTR,A
//  115     int i;
//  116     for(i = 0; i < funcCount; i++)
        MOV     R6,#0x0
        MOV     R7,#0x0
        SJMP    ??CrossCallReturnLabel_24
//  117     {
//  118         funcTableBuffer->ft_list[i].type = funcList[i].function.type;
??taskInitProcess_0:
        LCALL   ?Subroutine20 & 0xFFFF
//  119         funcTableBuffer->ft_list[i].id = funcList[i].function.id;
//  120         funcTableBuffer->ft_list[i].cycle = funcList[i].function.cycle;
//  121     }
??CrossCallReturnLabel_42:
        MOV     R0,A
        MOV     A,#(funcList >> 8) & 0xff
        ADDC    A,R1
        MOV     R1,A
        MOV     A,R0
        MOV     R2,A
        MOV     A,R1
        MOV     R3,A
        MOV     A,R6
        MOV     R0,A
        MOV     A,R7
        MOV     R1,A
        MOV     A,R0
        MOV     B,#0x3
        MUL     AB
        MOV     R0,A
        MOV     R4,B
        MOV     B,#0x3
        MOV     A,R1
        MUL     AB
        ADD     A,R4
        MOV     R1,A
        MOV     DPL,R2
        MOV     DPH,R3
        INC     DPTR
        INC     DPTR
        INC     DPTR
        INC     DPTR
        INC     DPTR
        INC     DPTR
        INC     DPTR
        INC     DPTR
        MOVX    A,@DPTR
        PUSH    A
        CFI CFA_SP SP+-1
        LCALL   ?Subroutine10 & 0xFFFF
??CrossCallReturnLabel_9:
        POP     A
        CFI CFA_SP SP+0
        LCALL   ?Subroutine26 & 0xFFFF
??CrossCallReturnLabel_33:
        MOVX    A,@DPTR
        PUSH    A
        CFI CFA_SP SP+-1
        LCALL   ?Subroutine10 & 0xFFFF
??CrossCallReturnLabel_10:
        INC     DPTR
        POP     A
        CFI CFA_SP SP+0
        LCALL   ?Subroutine17 & 0xFFFF
??CrossCallReturnLabel_18:
        PUSH    A
        CFI CFA_SP SP+-1
        LCALL   ?Subroutine8 & 0xFFFF
??CrossCallReturnLabel_7:
        POP     A
        CFI CFA_SP SP+0
        MOVX    @DPTR,A
        LCALL   ?Subroutine21 & 0xFFFF
??CrossCallReturnLabel_24:
        LCALL   ?Subroutine4 & 0xFFFF
??CrossCallReturnLabel_0:
        JC      ??taskInitProcess_0
//  122     controlTaskId = tasksCnt - 2; //排在 tasksArr[] 的最后两个。
        MOV     DPTR,#controlTaskId
        MOV     A,#0x8
        MOVX    @DPTR,A
//  123     functionTaskId = tasksCnt - 1;
        MOV     DPTR,#functionTaskId
        INC     A
        MOVX    @DPTR,A
//  124     createEndPoint(&controlEndPointInfo, &controlTaskId, CONTROL_ENDPOINT);
        ; Setup parameters for call to function createEndPoint
        MOV     R1,#-0x10
        MOV     R4,#controlTaskId & 0xff
        MOV     R5,#(controlTaskId >> 8) & 0xff
        MOV     R2,#controlEndPointInfo & 0xff
        MOV     R3,#(controlEndPointInfo >> 8) & 0xff
        LCALL   ??createEndPoint?relay
//  125     for(i = 0; i < funcCount; i++)
        MOV     R6,#0x0
        MOV     R7,#0x0
        SJMP    ??CrossCallReturnLabel_25
//  126     {
//  127         struct ep_info_t *ep = &funcList[i];
??taskInitProcess_1:
        LCALL   ?Subroutine20 & 0xFFFF
??CrossCallReturnLabel_43:
        MOV     ?V0 + 0,A
        MOV     A,#(funcList >> 8) & 0xff
        ADDC    A,R1
        MOV     ?V0 + 1,A
//  128         createEndPoint(ep, &functionTaskId, i + 1);
        ; Setup parameters for call to function createEndPoint
        MOV     A,R6
        INC     A
        MOV     R1,A
        MOV     R4,#functionTaskId & 0xff
        MOV     R5,#(functionTaskId >> 8) & 0xff
        MOV     R2,?V0 + 0
        MOV     R3,?V0 + 1
        LCALL   ??createEndPoint?relay
//  129         if(ep->res_available)
        MOV     DPL,?V0 + 0
        MOV     DPH,?V0 + 1
        LCALL   ??Subroutine30_0 & 0xFFFF
??CrossCallReturnLabel_49:
        JZ      ??taskInitProcess_2
//  130           (*ep->res_available)(ep, ResInit, NULL);
        ; Setup parameters for indirect call
        MOV     R4,#0x0
        MOV     R5,#0x0
        MOV     R1,#0x1
        MOV     R2,?V0 + 0
        MOV     R3,?V0 + 1
        MOV     DPL,R2
        MOV     DPH,R3
        INC     DPTR
        INC     DPTR
        INC     DPTR
        INC     DPTR
        INC     DPTR
        INC     DPTR
        LCALL   ??Subroutine37_0 & 0xFFFF
//  131     }
??CrossCallReturnLabel_64:
        LCALL   ?CALL_IND
??taskInitProcess_2:
        LCALL   ?Subroutine21 & 0xFFFF
??CrossCallReturnLabel_25:
        LCALL   ?Subroutine4 & 0xFFFF
??CrossCallReturnLabel_1:
        JC      ??taskInitProcess_1
        CFI EndBlock cfiBlock2
//  132 #if defined(ZDO_COORDINATOR) || defined(PEER_ROUTER) || defined(PEER_COORD)   
//  133 //  RegisterForKeys( SampleApp_TaskID );
//  134     MT_UartRegisterTaskID(controlTaskId);     
//  135 #endif  
//  136 }
        REQUIRE ?Subroutine1
        ; // Fall through to label ?Subroutine1

        RSEG BANKED_CODE:CODE:NOROOT(0)
?Subroutine1:
        CFI Block cfiBlock3 Using cfiCommon0
        CFI NoFunction
        CFI CFA_SP SP+0
        CFI CFA_XSP16 add(XSP16, 10)
        CFI VB load(1, XDATA, add(CFA_XSP16, literal(-9)))
        CFI DPL0 load(1, XDATA, add(CFA_XSP16, literal(-2)))
        CFI DPH0 load(1, XDATA, add(CFA_XSP16, literal(-1)))
        CFI R6 load(1, XDATA, add(CFA_XSP16, literal(-10)))
        CFI R7 load(1, XDATA, add(CFA_XSP16, literal(-6)))
        CFI V0 load(1, XDATA, add(CFA_XSP16, literal(-8)))
        CFI V1 load(1, XDATA, add(CFA_XSP16, literal(-7)))
        CFI ?BRET_EXT load(1, XDATA, add(CFA_XSP16, literal(-3)))
        CFI ?RET_HIGH load(1, XDATA, add(CFA_XSP16, literal(-4)))
        CFI ?RET_LOW load(1, XDATA, add(CFA_XSP16, literal(-5)))
        MOV     R7,#0x2
        LJMP    ?BANKED_LEAVE_XDATA
        CFI EndBlock cfiBlock3

        RSEG BANKED_CODE:CODE:NOROOT(0)
?Subroutine20:
        CFI Block cfiCond4 Using cfiCommon0
        CFI NoFunction
        CFI Conditional ??CrossCallReturnLabel_42
        CFI R6 load(1, XDATA, add(CFA_XSP16, literal(-10)))
        CFI VB load(1, XDATA, add(CFA_XSP16, literal(-9)))
        CFI V0 load(1, XDATA, add(CFA_XSP16, literal(-8)))
        CFI V1 load(1, XDATA, add(CFA_XSP16, literal(-7)))
        CFI R7 load(1, XDATA, add(CFA_XSP16, literal(-6)))
        CFI ?RET_LOW load(1, XDATA, add(CFA_XSP16, literal(-5)))
        CFI ?RET_HIGH load(1, XDATA, add(CFA_XSP16, literal(-4)))
        CFI ?BRET_EXT load(1, XDATA, add(CFA_XSP16, literal(-3)))
        CFI DPL0 load(1, XDATA, add(CFA_XSP16, literal(-2)))
        CFI DPH0 load(1, XDATA, add(CFA_XSP16, literal(-1)))
        CFI CFA_SP SP+0
        CFI CFA_XSP16 add(XSP16, 10)
        CFI Block cfiCond5 Using cfiCommon0
        CFI (cfiCond5) NoFunction
        CFI (cfiCond5) Conditional ??CrossCallReturnLabel_43
        CFI (cfiCond5) R6 load(1, XDATA, add(CFA_XSP16, literal(-10)))
        CFI (cfiCond5) VB load(1, XDATA, add(CFA_XSP16, literal(-9)))
        CFI (cfiCond5) V0 load(1, XDATA, add(CFA_XSP16, literal(-8)))
        CFI (cfiCond5) V1 load(1, XDATA, add(CFA_XSP16, literal(-7)))
        CFI (cfiCond5) R7 load(1, XDATA, add(CFA_XSP16, literal(-6)))
        CFI (cfiCond5) ?RET_LOW load(1, XDATA, add(CFA_XSP16, literal(-5)))
        CFI (cfiCond5) ?RET_HIGH load(1, XDATA, add(CFA_XSP16, literal(-4)))
        CFI (cfiCond5) ?BRET_EXT load(1, XDATA, add(CFA_XSP16, literal(-3)))
        CFI (cfiCond5) DPL0 load(1, XDATA, add(CFA_XSP16, literal(-2)))
        CFI (cfiCond5) DPH0 load(1, XDATA, add(CFA_XSP16, literal(-1)))
        CFI (cfiCond5) CFA_SP SP+0
        CFI (cfiCond5) CFA_XSP16 add(XSP16, 10)
        CFI Block cfiPicker6 Using cfiCommon1
        CFI (cfiPicker6) NoFunction
        CFI (cfiPicker6) Picker
        MOV     A,R6
        MOV     R0,A
        MOV     A,R7
        MOV     R1,A
        MOV     A,R0
        MOV     B,#0x21
        MUL     AB
        MOV     R0,A
        MOV     R2,B
        MOV     B,#0x21
        MOV     A,R1
        CFI EndBlock cfiCond4
        CFI EndBlock cfiCond5
        CFI EndBlock cfiPicker6
        REQUIRE ??Subroutine29_0
        ; // Fall through to label ??Subroutine29_0

        RSEG BANKED_CODE:CODE:NOROOT(0)
??Subroutine29_0:
        CFI Block cfiCond7 Using cfiCommon0
        CFI NoFunction
        CFI Conditional ??CrossCallReturnLabel_40
        CFI R6 load(1, XDATA, add(CFA_XSP16, literal(-18)))
        CFI VB load(1, XDATA, add(CFA_XSP16, literal(-17)))
        CFI V0 load(1, XDATA, add(CFA_XSP16, literal(-16)))
        CFI V1 load(1, XDATA, add(CFA_XSP16, literal(-15)))
        CFI V2 load(1, XDATA, add(CFA_XSP16, literal(-14)))
        CFI V3 load(1, XDATA, add(CFA_XSP16, literal(-13)))
        CFI V4 load(1, XDATA, add(CFA_XSP16, literal(-12)))
        CFI V5 load(1, XDATA, add(CFA_XSP16, literal(-11)))
        CFI V6 load(1, XDATA, add(CFA_XSP16, literal(-10)))
        CFI V7 load(1, XDATA, add(CFA_XSP16, literal(-9)))
        CFI V8 load(1, XDATA, add(CFA_XSP16, literal(-8)))
        CFI V9 load(1, XDATA, add(CFA_XSP16, literal(-7)))
        CFI R7 load(1, XDATA, add(CFA_XSP16, literal(-6)))
        CFI ?RET_LOW load(1, XDATA, add(CFA_XSP16, literal(-5)))
        CFI ?RET_HIGH load(1, XDATA, add(CFA_XSP16, literal(-4)))
        CFI ?BRET_EXT load(1, XDATA, add(CFA_XSP16, literal(-3)))
        CFI DPL0 load(1, XDATA, add(CFA_XSP16, literal(-2)))
        CFI DPH0 load(1, XDATA, add(CFA_XSP16, literal(-1)))
        CFI CFA_SP SP+0
        CFI CFA_XSP16 add(XSP16, 18)
        CFI Block cfiCond8 Using cfiCommon0
        CFI (cfiCond8) NoFunction
        CFI (cfiCond8) Conditional ??CrossCallReturnLabel_41
        CFI (cfiCond8) R6 load(1, XDATA, add(CFA_XSP16, literal(-18)))
        CFI (cfiCond8) VB load(1, XDATA, add(CFA_XSP16, literal(-17)))
        CFI (cfiCond8) V0 load(1, XDATA, add(CFA_XSP16, literal(-16)))
        CFI (cfiCond8) V1 load(1, XDATA, add(CFA_XSP16, literal(-15)))
        CFI (cfiCond8) V2 load(1, XDATA, add(CFA_XSP16, literal(-14)))
        CFI (cfiCond8) V3 load(1, XDATA, add(CFA_XSP16, literal(-13)))
        CFI (cfiCond8) V4 load(1, XDATA, add(CFA_XSP16, literal(-12)))
        CFI (cfiCond8) V5 load(1, XDATA, add(CFA_XSP16, literal(-11)))
        CFI (cfiCond8) V6 load(1, XDATA, add(CFA_XSP16, literal(-10)))
        CFI (cfiCond8) V7 load(1, XDATA, add(CFA_XSP16, literal(-9)))
        CFI (cfiCond8) V8 load(1, XDATA, add(CFA_XSP16, literal(-8)))
        CFI (cfiCond8) V9 load(1, XDATA, add(CFA_XSP16, literal(-7)))
        CFI (cfiCond8) R7 load(1, XDATA, add(CFA_XSP16, literal(-6)))
        CFI (cfiCond8) ?RET_LOW load(1, XDATA, add(CFA_XSP16, literal(-5)))
        CFI (cfiCond8) ?RET_HIGH load(1, XDATA, add(CFA_XSP16, literal(-4)))
        CFI (cfiCond8) ?BRET_EXT load(1, XDATA, add(CFA_XSP16, literal(-3)))
        CFI (cfiCond8) DPL0 load(1, XDATA, add(CFA_XSP16, literal(-2)))
        CFI (cfiCond8) DPH0 load(1, XDATA, add(CFA_XSP16, literal(-1)))
        CFI (cfiCond8) CFA_SP SP+0
        CFI (cfiCond8) CFA_XSP16 add(XSP16, 18)
        CFI Block cfiCond9 Using cfiCommon0
        CFI (cfiCond9) NoFunction
        CFI (cfiCond9) Conditional ??CrossCallReturnLabel_42
        CFI (cfiCond9) R6 load(1, XDATA, add(CFA_XSP16, literal(-10)))
        CFI (cfiCond9) VB load(1, XDATA, add(CFA_XSP16, literal(-9)))
        CFI (cfiCond9) V0 load(1, XDATA, add(CFA_XSP16, literal(-8)))
        CFI (cfiCond9) V1 load(1, XDATA, add(CFA_XSP16, literal(-7)))
        CFI (cfiCond9) R7 load(1, XDATA, add(CFA_XSP16, literal(-6)))
        CFI (cfiCond9) ?RET_LOW load(1, XDATA, add(CFA_XSP16, literal(-5)))
        CFI (cfiCond9) ?RET_HIGH load(1, XDATA, add(CFA_XSP16, literal(-4)))
        CFI (cfiCond9) ?BRET_EXT load(1, XDATA, add(CFA_XSP16, literal(-3)))
        CFI (cfiCond9) DPL0 load(1, XDATA, add(CFA_XSP16, literal(-2)))
        CFI (cfiCond9) DPH0 load(1, XDATA, add(CFA_XSP16, literal(-1)))
        CFI (cfiCond9) CFA_SP SP+0
        CFI (cfiCond9) CFA_XSP16 add(XSP16, 10)
        CFI Block cfiCond10 Using cfiCommon0
        CFI (cfiCond10) NoFunction
        CFI (cfiCond10) Conditional ??CrossCallReturnLabel_43
        CFI (cfiCond10) R6 load(1, XDATA, add(CFA_XSP16, literal(-10)))
        CFI (cfiCond10) VB load(1, XDATA, add(CFA_XSP16, literal(-9)))
        CFI (cfiCond10) V0 load(1, XDATA, add(CFA_XSP16, literal(-8)))
        CFI (cfiCond10) V1 load(1, XDATA, add(CFA_XSP16, literal(-7)))
        CFI (cfiCond10) R7 load(1, XDATA, add(CFA_XSP16, literal(-6)))
        CFI (cfiCond10) ?RET_LOW load(1, XDATA, add(CFA_XSP16, literal(-5)))
        CFI (cfiCond10) ?RET_HIGH load(1, XDATA, add(CFA_XSP16, literal(-4)))
        CFI (cfiCond10) ?BRET_EXT load(1, XDATA, add(CFA_XSP16, literal(-3)))
        CFI (cfiCond10) DPL0 load(1, XDATA, add(CFA_XSP16, literal(-2)))
        CFI (cfiCond10) DPH0 load(1, XDATA, add(CFA_XSP16, literal(-1)))
        CFI (cfiCond10) CFA_SP SP+0
        CFI (cfiCond10) CFA_XSP16 add(XSP16, 10)
        CFI Block cfiPicker11 Using cfiCommon1
        CFI (cfiPicker11) NoFunction
        CFI (cfiPicker11) Picker
        MUL     AB
        ADD     A,R2
        MOV     R1,A
        MOV     A,#funcList & 0xff
        ADD     A,R0
        RET
        CFI EndBlock cfiCond7
        CFI EndBlock cfiCond8
        CFI EndBlock cfiCond9
        CFI EndBlock cfiCond10
        CFI EndBlock cfiPicker11

        RSEG BANKED_CODE:CODE:NOROOT(0)
?Subroutine10:
        CFI Block cfiCond12 Using cfiCommon0
        CFI NoFunction
        CFI Conditional ??CrossCallReturnLabel_9
        CFI R6 load(1, XDATA, add(CFA_XSP16, literal(-10)))
        CFI VB load(1, XDATA, add(CFA_XSP16, literal(-9)))
        CFI V0 load(1, XDATA, add(CFA_XSP16, literal(-8)))
        CFI V1 load(1, XDATA, add(CFA_XSP16, literal(-7)))
        CFI R7 load(1, XDATA, add(CFA_XSP16, literal(-6)))
        CFI ?RET_LOW load(1, XDATA, add(CFA_XSP16, literal(-5)))
        CFI ?RET_HIGH load(1, XDATA, add(CFA_XSP16, literal(-4)))
        CFI ?BRET_EXT load(1, XDATA, add(CFA_XSP16, literal(-3)))
        CFI DPL0 load(1, XDATA, add(CFA_XSP16, literal(-2)))
        CFI DPH0 load(1, XDATA, add(CFA_XSP16, literal(-1)))
        CFI CFA_SP SP+-1
        CFI CFA_XSP16 add(XSP16, 10)
        CFI Block cfiCond13 Using cfiCommon0
        CFI (cfiCond13) NoFunction
        CFI (cfiCond13) Conditional ??CrossCallReturnLabel_10
        CFI (cfiCond13) R6 load(1, XDATA, add(CFA_XSP16, literal(-10)))
        CFI (cfiCond13) VB load(1, XDATA, add(CFA_XSP16, literal(-9)))
        CFI (cfiCond13) V0 load(1, XDATA, add(CFA_XSP16, literal(-8)))
        CFI (cfiCond13) V1 load(1, XDATA, add(CFA_XSP16, literal(-7)))
        CFI (cfiCond13) R7 load(1, XDATA, add(CFA_XSP16, literal(-6)))
        CFI (cfiCond13) ?RET_LOW load(1, XDATA, add(CFA_XSP16, literal(-5)))
        CFI (cfiCond13) ?RET_HIGH load(1, XDATA, add(CFA_XSP16, literal(-4)))
        CFI (cfiCond13) ?BRET_EXT load(1, XDATA, add(CFA_XSP16, literal(-3)))
        CFI (cfiCond13) DPL0 load(1, XDATA, add(CFA_XSP16, literal(-2)))
        CFI (cfiCond13) DPH0 load(1, XDATA, add(CFA_XSP16, literal(-1)))
        CFI (cfiCond13) CFA_SP SP+-1
        CFI (cfiCond13) CFA_XSP16 add(XSP16, 10)
        CFI Block cfiPicker14 Using cfiCommon1
        CFI (cfiPicker14) NoFunction
        CFI (cfiPicker14) Picker
        MOV     DPTR,#funcTableBuffer
        MOVX    A,@DPTR
        ADD     A,R0
        MOV     R4,A
        INC     DPTR
        MOVX    A,@DPTR
        ADDC    A,R1
        MOV     DPL,R4
        MOV     DPH,A
        INC     DPTR
        INC     DPTR
        RET
        CFI EndBlock cfiCond12
        CFI EndBlock cfiCond13
        CFI EndBlock cfiPicker14

        RSEG XDATA_I:XDATA:NOROOT(0)
??commonClusterId:
        DATA16
        DS 2
        REQUIRE `?<Initializer for commonClusterId>`
        REQUIRE __INIT_XDATA_I

        RSEG BANKED_CODE:CODE:NOROOT(0)
?Subroutine3:
        CFI Block cfiCond15 Using cfiCommon0
        CFI NoFunction
        CFI Conditional ??CrossCallReturnLabel_50
        CFI R6 load(1, XDATA, add(CFA_XSP16, literal(-13)))
        CFI VB load(1, XDATA, add(CFA_XSP16, literal(-12)))
        CFI V0 load(1, XDATA, add(CFA_XSP16, literal(-11)))
        CFI V1 load(1, XDATA, add(CFA_XSP16, literal(-10)))
        CFI V2 load(1, XDATA, add(CFA_XSP16, literal(-9)))
        CFI V3 load(1, XDATA, add(CFA_XSP16, literal(-8)))
        CFI V4 load(1, XDATA, add(CFA_XSP16, literal(-7)))
        CFI R7 load(1, XDATA, add(CFA_XSP16, literal(-6)))
        CFI ?RET_LOW load(1, XDATA, add(CFA_XSP16, literal(-5)))
        CFI ?RET_HIGH load(1, XDATA, add(CFA_XSP16, literal(-4)))
        CFI ?BRET_EXT load(1, XDATA, add(CFA_XSP16, literal(-3)))
        CFI DPL0 load(1, XDATA, add(CFA_XSP16, literal(-2)))
        CFI DPH0 load(1, XDATA, add(CFA_XSP16, literal(-1)))
        CFI CFA_SP SP+0
        CFI CFA_XSP16 add(XSP16, 16)
        CFI Block cfiCond16 Using cfiCommon0
        CFI (cfiCond16) NoFunction
        CFI (cfiCond16) Conditional ??CrossCallReturnLabel_51
        CFI (cfiCond16) R6 load(1, XDATA, add(CFA_XSP16, literal(-13)))
        CFI (cfiCond16) VB load(1, XDATA, add(CFA_XSP16, literal(-12)))
        CFI (cfiCond16) V0 load(1, XDATA, add(CFA_XSP16, literal(-11)))
        CFI (cfiCond16) V1 load(1, XDATA, add(CFA_XSP16, literal(-10)))
        CFI (cfiCond16) V2 load(1, XDATA, add(CFA_XSP16, literal(-9)))
        CFI (cfiCond16) V3 load(1, XDATA, add(CFA_XSP16, literal(-8)))
        CFI (cfiCond16) V4 load(1, XDATA, add(CFA_XSP16, literal(-7)))
        CFI (cfiCond16) R7 load(1, XDATA, add(CFA_XSP16, literal(-6)))
        CFI (cfiCond16) ?RET_LOW load(1, XDATA, add(CFA_XSP16, literal(-5)))
        CFI (cfiCond16) ?RET_HIGH load(1, XDATA, add(CFA_XSP16, literal(-4)))
        CFI (cfiCond16) ?BRET_EXT load(1, XDATA, add(CFA_XSP16, literal(-3)))
        CFI (cfiCond16) DPL0 load(1, XDATA, add(CFA_XSP16, literal(-2)))
        CFI (cfiCond16) DPH0 load(1, XDATA, add(CFA_XSP16, literal(-1)))
        CFI (cfiCond16) CFA_SP SP+0
        CFI (cfiCond16) CFA_XSP16 add(XSP16, 16)
        CFI Block cfiCond17 Using cfiCommon0
        CFI (cfiCond17) NoFunction
        CFI (cfiCond17) Conditional ??CrossCallReturnLabel_52
        CFI (cfiCond17) R6 load(1, XDATA, add(CFA_XSP16, literal(-9)))
        CFI (cfiCond17) VB load(1, XDATA, add(CFA_XSP16, literal(-8)))
        CFI (cfiCond17) V0 load(1, XDATA, add(CFA_XSP16, literal(-7)))
        CFI (cfiCond17) R7 load(1, XDATA, add(CFA_XSP16, literal(-6)))
        CFI (cfiCond17) ?RET_LOW load(1, XDATA, add(CFA_XSP16, literal(-5)))
        CFI (cfiCond17) ?RET_HIGH load(1, XDATA, add(CFA_XSP16, literal(-4)))
        CFI (cfiCond17) ?BRET_EXT load(1, XDATA, add(CFA_XSP16, literal(-3)))
        CFI (cfiCond17) DPL0 load(1, XDATA, add(CFA_XSP16, literal(-2)))
        CFI (cfiCond17) DPH0 load(1, XDATA, add(CFA_XSP16, literal(-1)))
        CFI (cfiCond17) CFA_SP SP+0
        CFI (cfiCond17) CFA_XSP16 add(XSP16, 9)
        CFI Block cfiPicker18 Using cfiCommon1
        CFI (cfiPicker18) NoFunction
        CFI (cfiPicker18) Picker
        MOV     DPL,R2
        MOV     DPH,R3
        CFI EndBlock cfiCond15
        CFI EndBlock cfiCond16
        CFI EndBlock cfiCond17
        CFI EndBlock cfiPicker18
        REQUIRE ??Subroutine30_0
        ; // Fall through to label ??Subroutine30_0

        RSEG BANKED_CODE:CODE:NOROOT(0)
??Subroutine30_0:
        CFI Block cfiCond19 Using cfiCommon0
        CFI NoFunction
        CFI Conditional ??CrossCallReturnLabel_49
        CFI R6 load(1, XDATA, add(CFA_XSP16, literal(-10)))
        CFI VB load(1, XDATA, add(CFA_XSP16, literal(-9)))
        CFI V0 load(1, XDATA, add(CFA_XSP16, literal(-8)))
        CFI V1 load(1, XDATA, add(CFA_XSP16, literal(-7)))
        CFI R7 load(1, XDATA, add(CFA_XSP16, literal(-6)))
        CFI ?RET_LOW load(1, XDATA, add(CFA_XSP16, literal(-5)))
        CFI ?RET_HIGH load(1, XDATA, add(CFA_XSP16, literal(-4)))
        CFI ?BRET_EXT load(1, XDATA, add(CFA_XSP16, literal(-3)))
        CFI DPL0 load(1, XDATA, add(CFA_XSP16, literal(-2)))
        CFI DPH0 load(1, XDATA, add(CFA_XSP16, literal(-1)))
        CFI CFA_SP SP+0
        CFI CFA_XSP16 add(XSP16, 10)
        CFI Block cfiCond20 Using cfiCommon0
        CFI (cfiCond20) NoFunction
        CFI (cfiCond20) Conditional ??CrossCallReturnLabel_50
        CFI (cfiCond20) R6 load(1, XDATA, add(CFA_XSP16, literal(-13)))
        CFI (cfiCond20) VB load(1, XDATA, add(CFA_XSP16, literal(-12)))
        CFI (cfiCond20) V0 load(1, XDATA, add(CFA_XSP16, literal(-11)))
        CFI (cfiCond20) V1 load(1, XDATA, add(CFA_XSP16, literal(-10)))
        CFI (cfiCond20) V2 load(1, XDATA, add(CFA_XSP16, literal(-9)))
        CFI (cfiCond20) V3 load(1, XDATA, add(CFA_XSP16, literal(-8)))
        CFI (cfiCond20) V4 load(1, XDATA, add(CFA_XSP16, literal(-7)))
        CFI (cfiCond20) R7 load(1, XDATA, add(CFA_XSP16, literal(-6)))
        CFI (cfiCond20) ?RET_LOW load(1, XDATA, add(CFA_XSP16, literal(-5)))
        CFI (cfiCond20) ?RET_HIGH load(1, XDATA, add(CFA_XSP16, literal(-4)))
        CFI (cfiCond20) ?BRET_EXT load(1, XDATA, add(CFA_XSP16, literal(-3)))
        CFI (cfiCond20) DPL0 load(1, XDATA, add(CFA_XSP16, literal(-2)))
        CFI (cfiCond20) DPH0 load(1, XDATA, add(CFA_XSP16, literal(-1)))
        CFI (cfiCond20) CFA_SP SP+0
        CFI (cfiCond20) CFA_XSP16 add(XSP16, 16)
        CFI Block cfiCond21 Using cfiCommon0
        CFI (cfiCond21) NoFunction
        CFI (cfiCond21) Conditional ??CrossCallReturnLabel_51
        CFI (cfiCond21) R6 load(1, XDATA, add(CFA_XSP16, literal(-13)))
        CFI (cfiCond21) VB load(1, XDATA, add(CFA_XSP16, literal(-12)))
        CFI (cfiCond21) V0 load(1, XDATA, add(CFA_XSP16, literal(-11)))
        CFI (cfiCond21) V1 load(1, XDATA, add(CFA_XSP16, literal(-10)))
        CFI (cfiCond21) V2 load(1, XDATA, add(CFA_XSP16, literal(-9)))
        CFI (cfiCond21) V3 load(1, XDATA, add(CFA_XSP16, literal(-8)))
        CFI (cfiCond21) V4 load(1, XDATA, add(CFA_XSP16, literal(-7)))
        CFI (cfiCond21) R7 load(1, XDATA, add(CFA_XSP16, literal(-6)))
        CFI (cfiCond21) ?RET_LOW load(1, XDATA, add(CFA_XSP16, literal(-5)))
        CFI (cfiCond21) ?RET_HIGH load(1, XDATA, add(CFA_XSP16, literal(-4)))
        CFI (cfiCond21) ?BRET_EXT load(1, XDATA, add(CFA_XSP16, literal(-3)))
        CFI (cfiCond21) DPL0 load(1, XDATA, add(CFA_XSP16, literal(-2)))
        CFI (cfiCond21) DPH0 load(1, XDATA, add(CFA_XSP16, literal(-1)))
        CFI (cfiCond21) CFA_SP SP+0
        CFI (cfiCond21) CFA_XSP16 add(XSP16, 16)
        CFI Block cfiCond22 Using cfiCommon0
        CFI (cfiCond22) NoFunction
        CFI (cfiCond22) Conditional ??CrossCallReturnLabel_52
        CFI (cfiCond22) R6 load(1, XDATA, add(CFA_XSP16, literal(-9)))
        CFI (cfiCond22) VB load(1, XDATA, add(CFA_XSP16, literal(-8)))
        CFI (cfiCond22) V0 load(1, XDATA, add(CFA_XSP16, literal(-7)))
        CFI (cfiCond22) R7 load(1, XDATA, add(CFA_XSP16, literal(-6)))
        CFI (cfiCond22) ?RET_LOW load(1, XDATA, add(CFA_XSP16, literal(-5)))
        CFI (cfiCond22) ?RET_HIGH load(1, XDATA, add(CFA_XSP16, literal(-4)))
        CFI (cfiCond22) ?BRET_EXT load(1, XDATA, add(CFA_XSP16, literal(-3)))
        CFI (cfiCond22) DPL0 load(1, XDATA, add(CFA_XSP16, literal(-2)))
        CFI (cfiCond22) DPH0 load(1, XDATA, add(CFA_XSP16, literal(-1)))
        CFI (cfiCond22) CFA_SP SP+0
        CFI (cfiCond22) CFA_XSP16 add(XSP16, 9)
        CFI Block cfiPicker23 Using cfiCommon1
        CFI (cfiPicker23) NoFunction
        CFI (cfiPicker23) Picker
        INC     DPTR
        INC     DPTR
        CFI EndBlock cfiCond19
        CFI EndBlock cfiCond20
        CFI EndBlock cfiCond21
        CFI EndBlock cfiCond22
        CFI EndBlock cfiPicker23
        REQUIRE ??Subroutine31_0
        ; // Fall through to label ??Subroutine31_0

        RSEG BANKED_CODE:CODE:NOROOT(0)
??Subroutine31_0:
        CFI Block cfiCond24 Using cfiCommon0
        CFI NoFunction
        CFI Conditional ??CrossCallReturnLabel_47
        CFI R6 load(1, XDATA, add(CFA_XSP16, literal(-18)))
        CFI VB load(1, XDATA, add(CFA_XSP16, literal(-17)))
        CFI V0 load(1, XDATA, add(CFA_XSP16, literal(-16)))
        CFI V1 load(1, XDATA, add(CFA_XSP16, literal(-15)))
        CFI V2 load(1, XDATA, add(CFA_XSP16, literal(-14)))
        CFI V3 load(1, XDATA, add(CFA_XSP16, literal(-13)))
        CFI V4 load(1, XDATA, add(CFA_XSP16, literal(-12)))
        CFI V5 load(1, XDATA, add(CFA_XSP16, literal(-11)))
        CFI V6 load(1, XDATA, add(CFA_XSP16, literal(-10)))
        CFI V7 load(1, XDATA, add(CFA_XSP16, literal(-9)))
        CFI V8 load(1, XDATA, add(CFA_XSP16, literal(-8)))
        CFI V9 load(1, XDATA, add(CFA_XSP16, literal(-7)))
        CFI R7 load(1, XDATA, add(CFA_XSP16, literal(-6)))
        CFI ?RET_LOW load(1, XDATA, add(CFA_XSP16, literal(-5)))
        CFI ?RET_HIGH load(1, XDATA, add(CFA_XSP16, literal(-4)))
        CFI ?BRET_EXT load(1, XDATA, add(CFA_XSP16, literal(-3)))
        CFI DPL0 load(1, XDATA, add(CFA_XSP16, literal(-2)))
        CFI DPH0 load(1, XDATA, add(CFA_XSP16, literal(-1)))
        CFI CFA_SP SP+0
        CFI CFA_XSP16 add(XSP16, 18)
        CFI Block cfiCond25 Using cfiCommon0
        CFI (cfiCond25) NoFunction
        CFI (cfiCond25) Conditional ??CrossCallReturnLabel_48
        CFI (cfiCond25) R6 load(1, XDATA, add(CFA_XSP16, literal(-18)))
        CFI (cfiCond25) VB load(1, XDATA, add(CFA_XSP16, literal(-17)))
        CFI (cfiCond25) V0 load(1, XDATA, add(CFA_XSP16, literal(-16)))
        CFI (cfiCond25) V1 load(1, XDATA, add(CFA_XSP16, literal(-15)))
        CFI (cfiCond25) V2 load(1, XDATA, add(CFA_XSP16, literal(-14)))
        CFI (cfiCond25) V3 load(1, XDATA, add(CFA_XSP16, literal(-13)))
        CFI (cfiCond25) V4 load(1, XDATA, add(CFA_XSP16, literal(-12)))
        CFI (cfiCond25) V5 load(1, XDATA, add(CFA_XSP16, literal(-11)))
        CFI (cfiCond25) V6 load(1, XDATA, add(CFA_XSP16, literal(-10)))
        CFI (cfiCond25) V7 load(1, XDATA, add(CFA_XSP16, literal(-9)))
        CFI (cfiCond25) V8 load(1, XDATA, add(CFA_XSP16, literal(-8)))
        CFI (cfiCond25) V9 load(1, XDATA, add(CFA_XSP16, literal(-7)))
        CFI (cfiCond25) R7 load(1, XDATA, add(CFA_XSP16, literal(-6)))
        CFI (cfiCond25) ?RET_LOW load(1, XDATA, add(CFA_XSP16, literal(-5)))
        CFI (cfiCond25) ?RET_HIGH load(1, XDATA, add(CFA_XSP16, literal(-4)))
        CFI (cfiCond25) ?BRET_EXT load(1, XDATA, add(CFA_XSP16, literal(-3)))
        CFI (cfiCond25) DPL0 load(1, XDATA, add(CFA_XSP16, literal(-2)))
        CFI (cfiCond25) DPH0 load(1, XDATA, add(CFA_XSP16, literal(-1)))
        CFI (cfiCond25) CFA_SP SP+0
        CFI (cfiCond25) CFA_XSP16 add(XSP16, 18)
        CFI Block cfiCond26 Using cfiCommon0
        CFI (cfiCond26) NoFunction
        CFI (cfiCond26) Conditional ??CrossCallReturnLabel_49
        CFI (cfiCond26) R6 load(1, XDATA, add(CFA_XSP16, literal(-10)))
        CFI (cfiCond26) VB load(1, XDATA, add(CFA_XSP16, literal(-9)))
        CFI (cfiCond26) V0 load(1, XDATA, add(CFA_XSP16, literal(-8)))
        CFI (cfiCond26) V1 load(1, XDATA, add(CFA_XSP16, literal(-7)))
        CFI (cfiCond26) R7 load(1, XDATA, add(CFA_XSP16, literal(-6)))
        CFI (cfiCond26) ?RET_LOW load(1, XDATA, add(CFA_XSP16, literal(-5)))
        CFI (cfiCond26) ?RET_HIGH load(1, XDATA, add(CFA_XSP16, literal(-4)))
        CFI (cfiCond26) ?BRET_EXT load(1, XDATA, add(CFA_XSP16, literal(-3)))
        CFI (cfiCond26) DPL0 load(1, XDATA, add(CFA_XSP16, literal(-2)))
        CFI (cfiCond26) DPH0 load(1, XDATA, add(CFA_XSP16, literal(-1)))
        CFI (cfiCond26) CFA_SP SP+0
        CFI (cfiCond26) CFA_XSP16 add(XSP16, 10)
        CFI Block cfiCond27 Using cfiCommon0
        CFI (cfiCond27) NoFunction
        CFI (cfiCond27) Conditional ??CrossCallReturnLabel_50
        CFI (cfiCond27) R6 load(1, XDATA, add(CFA_XSP16, literal(-13)))
        CFI (cfiCond27) VB load(1, XDATA, add(CFA_XSP16, literal(-12)))
        CFI (cfiCond27) V0 load(1, XDATA, add(CFA_XSP16, literal(-11)))
        CFI (cfiCond27) V1 load(1, XDATA, add(CFA_XSP16, literal(-10)))
        CFI (cfiCond27) V2 load(1, XDATA, add(CFA_XSP16, literal(-9)))
        CFI (cfiCond27) V3 load(1, XDATA, add(CFA_XSP16, literal(-8)))
        CFI (cfiCond27) V4 load(1, XDATA, add(CFA_XSP16, literal(-7)))
        CFI (cfiCond27) R7 load(1, XDATA, add(CFA_XSP16, literal(-6)))
        CFI (cfiCond27) ?RET_LOW load(1, XDATA, add(CFA_XSP16, literal(-5)))
        CFI (cfiCond27) ?RET_HIGH load(1, XDATA, add(CFA_XSP16, literal(-4)))
        CFI (cfiCond27) ?BRET_EXT load(1, XDATA, add(CFA_XSP16, literal(-3)))
        CFI (cfiCond27) DPL0 load(1, XDATA, add(CFA_XSP16, literal(-2)))
        CFI (cfiCond27) DPH0 load(1, XDATA, add(CFA_XSP16, literal(-1)))
        CFI (cfiCond27) CFA_SP SP+0
        CFI (cfiCond27) CFA_XSP16 add(XSP16, 16)
        CFI Block cfiCond28 Using cfiCommon0
        CFI (cfiCond28) NoFunction
        CFI (cfiCond28) Conditional ??CrossCallReturnLabel_51
        CFI (cfiCond28) R6 load(1, XDATA, add(CFA_XSP16, literal(-13)))
        CFI (cfiCond28) VB load(1, XDATA, add(CFA_XSP16, literal(-12)))
        CFI (cfiCond28) V0 load(1, XDATA, add(CFA_XSP16, literal(-11)))
        CFI (cfiCond28) V1 load(1, XDATA, add(CFA_XSP16, literal(-10)))
        CFI (cfiCond28) V2 load(1, XDATA, add(CFA_XSP16, literal(-9)))
        CFI (cfiCond28) V3 load(1, XDATA, add(CFA_XSP16, literal(-8)))
        CFI (cfiCond28) V4 load(1, XDATA, add(CFA_XSP16, literal(-7)))
        CFI (cfiCond28) R7 load(1, XDATA, add(CFA_XSP16, literal(-6)))
        CFI (cfiCond28) ?RET_LOW load(1, XDATA, add(CFA_XSP16, literal(-5)))
        CFI (cfiCond28) ?RET_HIGH load(1, XDATA, add(CFA_XSP16, literal(-4)))
        CFI (cfiCond28) ?BRET_EXT load(1, XDATA, add(CFA_XSP16, literal(-3)))
        CFI (cfiCond28) DPL0 load(1, XDATA, add(CFA_XSP16, literal(-2)))
        CFI (cfiCond28) DPH0 load(1, XDATA, add(CFA_XSP16, literal(-1)))
        CFI (cfiCond28) CFA_SP SP+0
        CFI (cfiCond28) CFA_XSP16 add(XSP16, 16)
        CFI Block cfiCond29 Using cfiCommon0
        CFI (cfiCond29) NoFunction
        CFI (cfiCond29) Conditional ??CrossCallReturnLabel_52
        CFI (cfiCond29) R6 load(1, XDATA, add(CFA_XSP16, literal(-9)))
        CFI (cfiCond29) VB load(1, XDATA, add(CFA_XSP16, literal(-8)))
        CFI (cfiCond29) V0 load(1, XDATA, add(CFA_XSP16, literal(-7)))
        CFI (cfiCond29) R7 load(1, XDATA, add(CFA_XSP16, literal(-6)))
        CFI (cfiCond29) ?RET_LOW load(1, XDATA, add(CFA_XSP16, literal(-5)))
        CFI (cfiCond29) ?RET_HIGH load(1, XDATA, add(CFA_XSP16, literal(-4)))
        CFI (cfiCond29) ?BRET_EXT load(1, XDATA, add(CFA_XSP16, literal(-3)))
        CFI (cfiCond29) DPL0 load(1, XDATA, add(CFA_XSP16, literal(-2)))
        CFI (cfiCond29) DPH0 load(1, XDATA, add(CFA_XSP16, literal(-1)))
        CFI (cfiCond29) CFA_SP SP+0
        CFI (cfiCond29) CFA_XSP16 add(XSP16, 9)
        CFI Block cfiPicker30 Using cfiCommon1
        CFI (cfiPicker30) NoFunction
        CFI (cfiPicker30) Picker
        INC     DPTR
        INC     DPTR
        CFI EndBlock cfiCond24
        CFI EndBlock cfiCond25
        CFI EndBlock cfiCond26
        CFI EndBlock cfiCond27
        CFI EndBlock cfiCond28
        CFI EndBlock cfiCond29
        CFI EndBlock cfiPicker30
        REQUIRE ??Subroutine32_0
        ; // Fall through to label ??Subroutine32_0

        RSEG BANKED_CODE:CODE:NOROOT(0)
??Subroutine32_0:
        CFI Block cfiCond31 Using cfiCommon0
        CFI NoFunction
        CFI Conditional ??CrossCallReturnLabel_46
        CFI R6 load(1, XDATA, add(CFA_XSP16, literal(-18)))
        CFI VB load(1, XDATA, add(CFA_XSP16, literal(-17)))
        CFI V0 load(1, XDATA, add(CFA_XSP16, literal(-16)))
        CFI V1 load(1, XDATA, add(CFA_XSP16, literal(-15)))
        CFI V2 load(1, XDATA, add(CFA_XSP16, literal(-14)))
        CFI V3 load(1, XDATA, add(CFA_XSP16, literal(-13)))
        CFI V4 load(1, XDATA, add(CFA_XSP16, literal(-12)))
        CFI V5 load(1, XDATA, add(CFA_XSP16, literal(-11)))
        CFI V6 load(1, XDATA, add(CFA_XSP16, literal(-10)))
        CFI V7 load(1, XDATA, add(CFA_XSP16, literal(-9)))
        CFI V8 load(1, XDATA, add(CFA_XSP16, literal(-8)))
        CFI V9 load(1, XDATA, add(CFA_XSP16, literal(-7)))
        CFI R7 load(1, XDATA, add(CFA_XSP16, literal(-6)))
        CFI ?RET_LOW load(1, XDATA, add(CFA_XSP16, literal(-5)))
        CFI ?RET_HIGH load(1, XDATA, add(CFA_XSP16, literal(-4)))
        CFI ?BRET_EXT load(1, XDATA, add(CFA_XSP16, literal(-3)))
        CFI DPL0 load(1, XDATA, add(CFA_XSP16, literal(-2)))
        CFI DPH0 load(1, XDATA, add(CFA_XSP16, literal(-1)))
        CFI CFA_SP SP+0
        CFI CFA_XSP16 add(XSP16, 18)
        CFI Block cfiCond32 Using cfiCommon0
        CFI (cfiCond32) NoFunction
        CFI (cfiCond32) Conditional ??CrossCallReturnLabel_47
        CFI (cfiCond32) R6 load(1, XDATA, add(CFA_XSP16, literal(-18)))
        CFI (cfiCond32) VB load(1, XDATA, add(CFA_XSP16, literal(-17)))
        CFI (cfiCond32) V0 load(1, XDATA, add(CFA_XSP16, literal(-16)))
        CFI (cfiCond32) V1 load(1, XDATA, add(CFA_XSP16, literal(-15)))
        CFI (cfiCond32) V2 load(1, XDATA, add(CFA_XSP16, literal(-14)))
        CFI (cfiCond32) V3 load(1, XDATA, add(CFA_XSP16, literal(-13)))
        CFI (cfiCond32) V4 load(1, XDATA, add(CFA_XSP16, literal(-12)))
        CFI (cfiCond32) V5 load(1, XDATA, add(CFA_XSP16, literal(-11)))
        CFI (cfiCond32) V6 load(1, XDATA, add(CFA_XSP16, literal(-10)))
        CFI (cfiCond32) V7 load(1, XDATA, add(CFA_XSP16, literal(-9)))
        CFI (cfiCond32) V8 load(1, XDATA, add(CFA_XSP16, literal(-8)))
        CFI (cfiCond32) V9 load(1, XDATA, add(CFA_XSP16, literal(-7)))
        CFI (cfiCond32) R7 load(1, XDATA, add(CFA_XSP16, literal(-6)))
        CFI (cfiCond32) ?RET_LOW load(1, XDATA, add(CFA_XSP16, literal(-5)))
        CFI (cfiCond32) ?RET_HIGH load(1, XDATA, add(CFA_XSP16, literal(-4)))
        CFI (cfiCond32) ?BRET_EXT load(1, XDATA, add(CFA_XSP16, literal(-3)))
        CFI (cfiCond32) DPL0 load(1, XDATA, add(CFA_XSP16, literal(-2)))
        CFI (cfiCond32) DPH0 load(1, XDATA, add(CFA_XSP16, literal(-1)))
        CFI (cfiCond32) CFA_SP SP+0
        CFI (cfiCond32) CFA_XSP16 add(XSP16, 18)
        CFI Block cfiCond33 Using cfiCommon0
        CFI (cfiCond33) NoFunction
        CFI (cfiCond33) Conditional ??CrossCallReturnLabel_48
        CFI (cfiCond33) R6 load(1, XDATA, add(CFA_XSP16, literal(-18)))
        CFI (cfiCond33) VB load(1, XDATA, add(CFA_XSP16, literal(-17)))
        CFI (cfiCond33) V0 load(1, XDATA, add(CFA_XSP16, literal(-16)))
        CFI (cfiCond33) V1 load(1, XDATA, add(CFA_XSP16, literal(-15)))
        CFI (cfiCond33) V2 load(1, XDATA, add(CFA_XSP16, literal(-14)))
        CFI (cfiCond33) V3 load(1, XDATA, add(CFA_XSP16, literal(-13)))
        CFI (cfiCond33) V4 load(1, XDATA, add(CFA_XSP16, literal(-12)))
        CFI (cfiCond33) V5 load(1, XDATA, add(CFA_XSP16, literal(-11)))
        CFI (cfiCond33) V6 load(1, XDATA, add(CFA_XSP16, literal(-10)))
        CFI (cfiCond33) V7 load(1, XDATA, add(CFA_XSP16, literal(-9)))
        CFI (cfiCond33) V8 load(1, XDATA, add(CFA_XSP16, literal(-8)))
        CFI (cfiCond33) V9 load(1, XDATA, add(CFA_XSP16, literal(-7)))
        CFI (cfiCond33) R7 load(1, XDATA, add(CFA_XSP16, literal(-6)))
        CFI (cfiCond33) ?RET_LOW load(1, XDATA, add(CFA_XSP16, literal(-5)))
        CFI (cfiCond33) ?RET_HIGH load(1, XDATA, add(CFA_XSP16, literal(-4)))
        CFI (cfiCond33) ?BRET_EXT load(1, XDATA, add(CFA_XSP16, literal(-3)))
        CFI (cfiCond33) DPL0 load(1, XDATA, add(CFA_XSP16, literal(-2)))
        CFI (cfiCond33) DPH0 load(1, XDATA, add(CFA_XSP16, literal(-1)))
        CFI (cfiCond33) CFA_SP SP+0
        CFI (cfiCond33) CFA_XSP16 add(XSP16, 18)
        CFI Block cfiCond34 Using cfiCommon0
        CFI (cfiCond34) NoFunction
        CFI (cfiCond34) Conditional ??CrossCallReturnLabel_49
        CFI (cfiCond34) R6 load(1, XDATA, add(CFA_XSP16, literal(-10)))
        CFI (cfiCond34) VB load(1, XDATA, add(CFA_XSP16, literal(-9)))
        CFI (cfiCond34) V0 load(1, XDATA, add(CFA_XSP16, literal(-8)))
        CFI (cfiCond34) V1 load(1, XDATA, add(CFA_XSP16, literal(-7)))
        CFI (cfiCond34) R7 load(1, XDATA, add(CFA_XSP16, literal(-6)))
        CFI (cfiCond34) ?RET_LOW load(1, XDATA, add(CFA_XSP16, literal(-5)))
        CFI (cfiCond34) ?RET_HIGH load(1, XDATA, add(CFA_XSP16, literal(-4)))
        CFI (cfiCond34) ?BRET_EXT load(1, XDATA, add(CFA_XSP16, literal(-3)))
        CFI (cfiCond34) DPL0 load(1, XDATA, add(CFA_XSP16, literal(-2)))
        CFI (cfiCond34) DPH0 load(1, XDATA, add(CFA_XSP16, literal(-1)))
        CFI (cfiCond34) CFA_SP SP+0
        CFI (cfiCond34) CFA_XSP16 add(XSP16, 10)
        CFI Block cfiCond35 Using cfiCommon0
        CFI (cfiCond35) NoFunction
        CFI (cfiCond35) Conditional ??CrossCallReturnLabel_50
        CFI (cfiCond35) R6 load(1, XDATA, add(CFA_XSP16, literal(-13)))
        CFI (cfiCond35) VB load(1, XDATA, add(CFA_XSP16, literal(-12)))
        CFI (cfiCond35) V0 load(1, XDATA, add(CFA_XSP16, literal(-11)))
        CFI (cfiCond35) V1 load(1, XDATA, add(CFA_XSP16, literal(-10)))
        CFI (cfiCond35) V2 load(1, XDATA, add(CFA_XSP16, literal(-9)))
        CFI (cfiCond35) V3 load(1, XDATA, add(CFA_XSP16, literal(-8)))
        CFI (cfiCond35) V4 load(1, XDATA, add(CFA_XSP16, literal(-7)))
        CFI (cfiCond35) R7 load(1, XDATA, add(CFA_XSP16, literal(-6)))
        CFI (cfiCond35) ?RET_LOW load(1, XDATA, add(CFA_XSP16, literal(-5)))
        CFI (cfiCond35) ?RET_HIGH load(1, XDATA, add(CFA_XSP16, literal(-4)))
        CFI (cfiCond35) ?BRET_EXT load(1, XDATA, add(CFA_XSP16, literal(-3)))
        CFI (cfiCond35) DPL0 load(1, XDATA, add(CFA_XSP16, literal(-2)))
        CFI (cfiCond35) DPH0 load(1, XDATA, add(CFA_XSP16, literal(-1)))
        CFI (cfiCond35) CFA_SP SP+0
        CFI (cfiCond35) CFA_XSP16 add(XSP16, 16)
        CFI Block cfiCond36 Using cfiCommon0
        CFI (cfiCond36) NoFunction
        CFI (cfiCond36) Conditional ??CrossCallReturnLabel_51
        CFI (cfiCond36) R6 load(1, XDATA, add(CFA_XSP16, literal(-13)))
        CFI (cfiCond36) VB load(1, XDATA, add(CFA_XSP16, literal(-12)))
        CFI (cfiCond36) V0 load(1, XDATA, add(CFA_XSP16, literal(-11)))
        CFI (cfiCond36) V1 load(1, XDATA, add(CFA_XSP16, literal(-10)))
        CFI (cfiCond36) V2 load(1, XDATA, add(CFA_XSP16, literal(-9)))
        CFI (cfiCond36) V3 load(1, XDATA, add(CFA_XSP16, literal(-8)))
        CFI (cfiCond36) V4 load(1, XDATA, add(CFA_XSP16, literal(-7)))
        CFI (cfiCond36) R7 load(1, XDATA, add(CFA_XSP16, literal(-6)))
        CFI (cfiCond36) ?RET_LOW load(1, XDATA, add(CFA_XSP16, literal(-5)))
        CFI (cfiCond36) ?RET_HIGH load(1, XDATA, add(CFA_XSP16, literal(-4)))
        CFI (cfiCond36) ?BRET_EXT load(1, XDATA, add(CFA_XSP16, literal(-3)))
        CFI (cfiCond36) DPL0 load(1, XDATA, add(CFA_XSP16, literal(-2)))
        CFI (cfiCond36) DPH0 load(1, XDATA, add(CFA_XSP16, literal(-1)))
        CFI (cfiCond36) CFA_SP SP+0
        CFI (cfiCond36) CFA_XSP16 add(XSP16, 16)
        CFI Block cfiCond37 Using cfiCommon0
        CFI (cfiCond37) NoFunction
        CFI (cfiCond37) Conditional ??CrossCallReturnLabel_52
        CFI (cfiCond37) R6 load(1, XDATA, add(CFA_XSP16, literal(-9)))
        CFI (cfiCond37) VB load(1, XDATA, add(CFA_XSP16, literal(-8)))
        CFI (cfiCond37) V0 load(1, XDATA, add(CFA_XSP16, literal(-7)))
        CFI (cfiCond37) R7 load(1, XDATA, add(CFA_XSP16, literal(-6)))
        CFI (cfiCond37) ?RET_LOW load(1, XDATA, add(CFA_XSP16, literal(-5)))
        CFI (cfiCond37) ?RET_HIGH load(1, XDATA, add(CFA_XSP16, literal(-4)))
        CFI (cfiCond37) ?BRET_EXT load(1, XDATA, add(CFA_XSP16, literal(-3)))
        CFI (cfiCond37) DPL0 load(1, XDATA, add(CFA_XSP16, literal(-2)))
        CFI (cfiCond37) DPH0 load(1, XDATA, add(CFA_XSP16, literal(-1)))
        CFI (cfiCond37) CFA_SP SP+0
        CFI (cfiCond37) CFA_XSP16 add(XSP16, 9)
        CFI Block cfiPicker38 Using cfiCommon1
        CFI (cfiPicker38) NoFunction
        CFI (cfiPicker38) Picker
        INC     DPTR
        CFI EndBlock cfiCond31
        CFI EndBlock cfiCond32
        CFI EndBlock cfiCond33
        CFI EndBlock cfiCond34
        CFI EndBlock cfiCond35
        CFI EndBlock cfiCond36
        CFI EndBlock cfiCond37
        CFI EndBlock cfiPicker38
        REQUIRE ??Subroutine33_0
        ; // Fall through to label ??Subroutine33_0

        RSEG BANKED_CODE:CODE:NOROOT(0)
??Subroutine33_0:
        CFI Block cfiCond39 Using cfiCommon0
        CFI NoFunction
        CFI Conditional ??CrossCallReturnLabel_45
        CFI R6 load(1, XDATA, add(CFA_XSP16, literal(-22)))
        CFI VB load(1, XDATA, add(CFA_XSP16, literal(-21)))
        CFI V0 load(1, XDATA, add(CFA_XSP16, literal(-20)))
        CFI V1 load(1, XDATA, add(CFA_XSP16, literal(-19)))
        CFI V2 load(1, XDATA, add(CFA_XSP16, literal(-18)))
        CFI V3 load(1, XDATA, add(CFA_XSP16, literal(-17)))
        CFI V4 load(1, XDATA, add(CFA_XSP16, literal(-16)))
        CFI V5 load(1, XDATA, add(CFA_XSP16, literal(-15)))
        CFI V6 load(1, XDATA, add(CFA_XSP16, literal(-14)))
        CFI V7 load(1, XDATA, add(CFA_XSP16, literal(-13)))
        CFI V8 load(1, XDATA, add(CFA_XSP16, literal(-12)))
        CFI V9 load(1, XDATA, add(CFA_XSP16, literal(-11)))
        CFI V10 load(1, XDATA, add(CFA_XSP16, literal(-10)))
        CFI V11 load(1, XDATA, add(CFA_XSP16, literal(-9)))
        CFI V12 load(1, XDATA, add(CFA_XSP16, literal(-8)))
        CFI V13 load(1, XDATA, add(CFA_XSP16, literal(-7)))
        CFI R7 load(1, XDATA, add(CFA_XSP16, literal(-6)))
        CFI ?RET_LOW load(1, XDATA, add(CFA_XSP16, literal(-5)))
        CFI ?RET_HIGH load(1, XDATA, add(CFA_XSP16, literal(-4)))
        CFI ?BRET_EXT load(1, XDATA, add(CFA_XSP16, literal(-3)))
        CFI DPL0 load(1, XDATA, add(CFA_XSP16, literal(-2)))
        CFI DPH0 load(1, XDATA, add(CFA_XSP16, literal(-1)))
        CFI CFA_SP SP+0
        CFI CFA_XSP16 add(XSP16, 22)
        CFI Block cfiCond40 Using cfiCommon0
        CFI (cfiCond40) NoFunction
        CFI (cfiCond40) Conditional ??CrossCallReturnLabel_46
        CFI (cfiCond40) R6 load(1, XDATA, add(CFA_XSP16, literal(-18)))
        CFI (cfiCond40) VB load(1, XDATA, add(CFA_XSP16, literal(-17)))
        CFI (cfiCond40) V0 load(1, XDATA, add(CFA_XSP16, literal(-16)))
        CFI (cfiCond40) V1 load(1, XDATA, add(CFA_XSP16, literal(-15)))
        CFI (cfiCond40) V2 load(1, XDATA, add(CFA_XSP16, literal(-14)))
        CFI (cfiCond40) V3 load(1, XDATA, add(CFA_XSP16, literal(-13)))
        CFI (cfiCond40) V4 load(1, XDATA, add(CFA_XSP16, literal(-12)))
        CFI (cfiCond40) V5 load(1, XDATA, add(CFA_XSP16, literal(-11)))
        CFI (cfiCond40) V6 load(1, XDATA, add(CFA_XSP16, literal(-10)))
        CFI (cfiCond40) V7 load(1, XDATA, add(CFA_XSP16, literal(-9)))
        CFI (cfiCond40) V8 load(1, XDATA, add(CFA_XSP16, literal(-8)))
        CFI (cfiCond40) V9 load(1, XDATA, add(CFA_XSP16, literal(-7)))
        CFI (cfiCond40) R7 load(1, XDATA, add(CFA_XSP16, literal(-6)))
        CFI (cfiCond40) ?RET_LOW load(1, XDATA, add(CFA_XSP16, literal(-5)))
        CFI (cfiCond40) ?RET_HIGH load(1, XDATA, add(CFA_XSP16, literal(-4)))
        CFI (cfiCond40) ?BRET_EXT load(1, XDATA, add(CFA_XSP16, literal(-3)))
        CFI (cfiCond40) DPL0 load(1, XDATA, add(CFA_XSP16, literal(-2)))
        CFI (cfiCond40) DPH0 load(1, XDATA, add(CFA_XSP16, literal(-1)))
        CFI (cfiCond40) CFA_SP SP+0
        CFI (cfiCond40) CFA_XSP16 add(XSP16, 18)
        CFI Block cfiCond41 Using cfiCommon0
        CFI (cfiCond41) NoFunction
        CFI (cfiCond41) Conditional ??CrossCallReturnLabel_47
        CFI (cfiCond41) R6 load(1, XDATA, add(CFA_XSP16, literal(-18)))
        CFI (cfiCond41) VB load(1, XDATA, add(CFA_XSP16, literal(-17)))
        CFI (cfiCond41) V0 load(1, XDATA, add(CFA_XSP16, literal(-16)))
        CFI (cfiCond41) V1 load(1, XDATA, add(CFA_XSP16, literal(-15)))
        CFI (cfiCond41) V2 load(1, XDATA, add(CFA_XSP16, literal(-14)))
        CFI (cfiCond41) V3 load(1, XDATA, add(CFA_XSP16, literal(-13)))
        CFI (cfiCond41) V4 load(1, XDATA, add(CFA_XSP16, literal(-12)))
        CFI (cfiCond41) V5 load(1, XDATA, add(CFA_XSP16, literal(-11)))
        CFI (cfiCond41) V6 load(1, XDATA, add(CFA_XSP16, literal(-10)))
        CFI (cfiCond41) V7 load(1, XDATA, add(CFA_XSP16, literal(-9)))
        CFI (cfiCond41) V8 load(1, XDATA, add(CFA_XSP16, literal(-8)))
        CFI (cfiCond41) V9 load(1, XDATA, add(CFA_XSP16, literal(-7)))
        CFI (cfiCond41) R7 load(1, XDATA, add(CFA_XSP16, literal(-6)))
        CFI (cfiCond41) ?RET_LOW load(1, XDATA, add(CFA_XSP16, literal(-5)))
        CFI (cfiCond41) ?RET_HIGH load(1, XDATA, add(CFA_XSP16, literal(-4)))
        CFI (cfiCond41) ?BRET_EXT load(1, XDATA, add(CFA_XSP16, literal(-3)))
        CFI (cfiCond41) DPL0 load(1, XDATA, add(CFA_XSP16, literal(-2)))
        CFI (cfiCond41) DPH0 load(1, XDATA, add(CFA_XSP16, literal(-1)))
        CFI (cfiCond41) CFA_SP SP+0
        CFI (cfiCond41) CFA_XSP16 add(XSP16, 18)
        CFI Block cfiCond42 Using cfiCommon0
        CFI (cfiCond42) NoFunction
        CFI (cfiCond42) Conditional ??CrossCallReturnLabel_48
        CFI (cfiCond42) R6 load(1, XDATA, add(CFA_XSP16, literal(-18)))
        CFI (cfiCond42) VB load(1, XDATA, add(CFA_XSP16, literal(-17)))
        CFI (cfiCond42) V0 load(1, XDATA, add(CFA_XSP16, literal(-16)))
        CFI (cfiCond42) V1 load(1, XDATA, add(CFA_XSP16, literal(-15)))
        CFI (cfiCond42) V2 load(1, XDATA, add(CFA_XSP16, literal(-14)))
        CFI (cfiCond42) V3 load(1, XDATA, add(CFA_XSP16, literal(-13)))
        CFI (cfiCond42) V4 load(1, XDATA, add(CFA_XSP16, literal(-12)))
        CFI (cfiCond42) V5 load(1, XDATA, add(CFA_XSP16, literal(-11)))
        CFI (cfiCond42) V6 load(1, XDATA, add(CFA_XSP16, literal(-10)))
        CFI (cfiCond42) V7 load(1, XDATA, add(CFA_XSP16, literal(-9)))
        CFI (cfiCond42) V8 load(1, XDATA, add(CFA_XSP16, literal(-8)))
        CFI (cfiCond42) V9 load(1, XDATA, add(CFA_XSP16, literal(-7)))
        CFI (cfiCond42) R7 load(1, XDATA, add(CFA_XSP16, literal(-6)))
        CFI (cfiCond42) ?RET_LOW load(1, XDATA, add(CFA_XSP16, literal(-5)))
        CFI (cfiCond42) ?RET_HIGH load(1, XDATA, add(CFA_XSP16, literal(-4)))
        CFI (cfiCond42) ?BRET_EXT load(1, XDATA, add(CFA_XSP16, literal(-3)))
        CFI (cfiCond42) DPL0 load(1, XDATA, add(CFA_XSP16, literal(-2)))
        CFI (cfiCond42) DPH0 load(1, XDATA, add(CFA_XSP16, literal(-1)))
        CFI (cfiCond42) CFA_SP SP+0
        CFI (cfiCond42) CFA_XSP16 add(XSP16, 18)
        CFI Block cfiCond43 Using cfiCommon0
        CFI (cfiCond43) NoFunction
        CFI (cfiCond43) Conditional ??CrossCallReturnLabel_49
        CFI (cfiCond43) R6 load(1, XDATA, add(CFA_XSP16, literal(-10)))
        CFI (cfiCond43) VB load(1, XDATA, add(CFA_XSP16, literal(-9)))
        CFI (cfiCond43) V0 load(1, XDATA, add(CFA_XSP16, literal(-8)))
        CFI (cfiCond43) V1 load(1, XDATA, add(CFA_XSP16, literal(-7)))
        CFI (cfiCond43) R7 load(1, XDATA, add(CFA_XSP16, literal(-6)))
        CFI (cfiCond43) ?RET_LOW load(1, XDATA, add(CFA_XSP16, literal(-5)))
        CFI (cfiCond43) ?RET_HIGH load(1, XDATA, add(CFA_XSP16, literal(-4)))
        CFI (cfiCond43) ?BRET_EXT load(1, XDATA, add(CFA_XSP16, literal(-3)))
        CFI (cfiCond43) DPL0 load(1, XDATA, add(CFA_XSP16, literal(-2)))
        CFI (cfiCond43) DPH0 load(1, XDATA, add(CFA_XSP16, literal(-1)))
        CFI (cfiCond43) CFA_SP SP+0
        CFI (cfiCond43) CFA_XSP16 add(XSP16, 10)
        CFI Block cfiCond44 Using cfiCommon0
        CFI (cfiCond44) NoFunction
        CFI (cfiCond44) Conditional ??CrossCallReturnLabel_50
        CFI (cfiCond44) R6 load(1, XDATA, add(CFA_XSP16, literal(-13)))
        CFI (cfiCond44) VB load(1, XDATA, add(CFA_XSP16, literal(-12)))
        CFI (cfiCond44) V0 load(1, XDATA, add(CFA_XSP16, literal(-11)))
        CFI (cfiCond44) V1 load(1, XDATA, add(CFA_XSP16, literal(-10)))
        CFI (cfiCond44) V2 load(1, XDATA, add(CFA_XSP16, literal(-9)))
        CFI (cfiCond44) V3 load(1, XDATA, add(CFA_XSP16, literal(-8)))
        CFI (cfiCond44) V4 load(1, XDATA, add(CFA_XSP16, literal(-7)))
        CFI (cfiCond44) R7 load(1, XDATA, add(CFA_XSP16, literal(-6)))
        CFI (cfiCond44) ?RET_LOW load(1, XDATA, add(CFA_XSP16, literal(-5)))
        CFI (cfiCond44) ?RET_HIGH load(1, XDATA, add(CFA_XSP16, literal(-4)))
        CFI (cfiCond44) ?BRET_EXT load(1, XDATA, add(CFA_XSP16, literal(-3)))
        CFI (cfiCond44) DPL0 load(1, XDATA, add(CFA_XSP16, literal(-2)))
        CFI (cfiCond44) DPH0 load(1, XDATA, add(CFA_XSP16, literal(-1)))
        CFI (cfiCond44) CFA_SP SP+0
        CFI (cfiCond44) CFA_XSP16 add(XSP16, 16)
        CFI Block cfiCond45 Using cfiCommon0
        CFI (cfiCond45) NoFunction
        CFI (cfiCond45) Conditional ??CrossCallReturnLabel_51
        CFI (cfiCond45) R6 load(1, XDATA, add(CFA_XSP16, literal(-13)))
        CFI (cfiCond45) VB load(1, XDATA, add(CFA_XSP16, literal(-12)))
        CFI (cfiCond45) V0 load(1, XDATA, add(CFA_XSP16, literal(-11)))
        CFI (cfiCond45) V1 load(1, XDATA, add(CFA_XSP16, literal(-10)))
        CFI (cfiCond45) V2 load(1, XDATA, add(CFA_XSP16, literal(-9)))
        CFI (cfiCond45) V3 load(1, XDATA, add(CFA_XSP16, literal(-8)))
        CFI (cfiCond45) V4 load(1, XDATA, add(CFA_XSP16, literal(-7)))
        CFI (cfiCond45) R7 load(1, XDATA, add(CFA_XSP16, literal(-6)))
        CFI (cfiCond45) ?RET_LOW load(1, XDATA, add(CFA_XSP16, literal(-5)))
        CFI (cfiCond45) ?RET_HIGH load(1, XDATA, add(CFA_XSP16, literal(-4)))
        CFI (cfiCond45) ?BRET_EXT load(1, XDATA, add(CFA_XSP16, literal(-3)))
        CFI (cfiCond45) DPL0 load(1, XDATA, add(CFA_XSP16, literal(-2)))
        CFI (cfiCond45) DPH0 load(1, XDATA, add(CFA_XSP16, literal(-1)))
        CFI (cfiCond45) CFA_SP SP+0
        CFI (cfiCond45) CFA_XSP16 add(XSP16, 16)
        CFI Block cfiCond46 Using cfiCommon0
        CFI (cfiCond46) NoFunction
        CFI (cfiCond46) Conditional ??CrossCallReturnLabel_52
        CFI (cfiCond46) R6 load(1, XDATA, add(CFA_XSP16, literal(-9)))
        CFI (cfiCond46) VB load(1, XDATA, add(CFA_XSP16, literal(-8)))
        CFI (cfiCond46) V0 load(1, XDATA, add(CFA_XSP16, literal(-7)))
        CFI (cfiCond46) R7 load(1, XDATA, add(CFA_XSP16, literal(-6)))
        CFI (cfiCond46) ?RET_LOW load(1, XDATA, add(CFA_XSP16, literal(-5)))
        CFI (cfiCond46) ?RET_HIGH load(1, XDATA, add(CFA_XSP16, literal(-4)))
        CFI (cfiCond46) ?BRET_EXT load(1, XDATA, add(CFA_XSP16, literal(-3)))
        CFI (cfiCond46) DPL0 load(1, XDATA, add(CFA_XSP16, literal(-2)))
        CFI (cfiCond46) DPH0 load(1, XDATA, add(CFA_XSP16, literal(-1)))
        CFI (cfiCond46) CFA_SP SP+0
        CFI (cfiCond46) CFA_XSP16 add(XSP16, 9)
        CFI Block cfiPicker47 Using cfiCommon1
        CFI (cfiPicker47) NoFunction
        CFI (cfiPicker47) Picker
        INC     DPTR
        CFI EndBlock cfiCond39
        CFI EndBlock cfiCond40
        CFI EndBlock cfiCond41
        CFI EndBlock cfiCond42
        CFI EndBlock cfiCond43
        CFI EndBlock cfiCond44
        CFI EndBlock cfiCond45
        CFI EndBlock cfiCond46
        CFI EndBlock cfiPicker47
        REQUIRE ??Subroutine34_0
        ; // Fall through to label ??Subroutine34_0

        RSEG BANKED_CODE:CODE:NOROOT(0)
??Subroutine34_0:
        CFI Block cfiCond48 Using cfiCommon0
        CFI NoFunction
        CFI Conditional ??CrossCallReturnLabel_44
        CFI R6 load(1, XDATA, add(CFA_XSP16, literal(-18)))
        CFI VB load(1, XDATA, add(CFA_XSP16, literal(-17)))
        CFI V0 load(1, XDATA, add(CFA_XSP16, literal(-16)))
        CFI V1 load(1, XDATA, add(CFA_XSP16, literal(-15)))
        CFI V2 load(1, XDATA, add(CFA_XSP16, literal(-14)))
        CFI V3 load(1, XDATA, add(CFA_XSP16, literal(-13)))
        CFI V4 load(1, XDATA, add(CFA_XSP16, literal(-12)))
        CFI V5 load(1, XDATA, add(CFA_XSP16, literal(-11)))
        CFI V6 load(1, XDATA, add(CFA_XSP16, literal(-10)))
        CFI V7 load(1, XDATA, add(CFA_XSP16, literal(-9)))
        CFI V8 load(1, XDATA, add(CFA_XSP16, literal(-8)))
        CFI V9 load(1, XDATA, add(CFA_XSP16, literal(-7)))
        CFI R7 load(1, XDATA, add(CFA_XSP16, literal(-6)))
        CFI ?RET_LOW load(1, XDATA, add(CFA_XSP16, literal(-5)))
        CFI ?RET_HIGH load(1, XDATA, add(CFA_XSP16, literal(-4)))
        CFI ?BRET_EXT load(1, XDATA, add(CFA_XSP16, literal(-3)))
        CFI DPL0 load(1, XDATA, add(CFA_XSP16, literal(-2)))
        CFI DPH0 load(1, XDATA, add(CFA_XSP16, literal(-1)))
        CFI CFA_SP SP+0
        CFI CFA_XSP16 add(XSP16, 18)
        CFI Block cfiCond49 Using cfiCommon0
        CFI (cfiCond49) NoFunction
        CFI (cfiCond49) Conditional ??CrossCallReturnLabel_45
        CFI (cfiCond49) R6 load(1, XDATA, add(CFA_XSP16, literal(-22)))
        CFI (cfiCond49) VB load(1, XDATA, add(CFA_XSP16, literal(-21)))
        CFI (cfiCond49) V0 load(1, XDATA, add(CFA_XSP16, literal(-20)))
        CFI (cfiCond49) V1 load(1, XDATA, add(CFA_XSP16, literal(-19)))
        CFI (cfiCond49) V2 load(1, XDATA, add(CFA_XSP16, literal(-18)))
        CFI (cfiCond49) V3 load(1, XDATA, add(CFA_XSP16, literal(-17)))
        CFI (cfiCond49) V4 load(1, XDATA, add(CFA_XSP16, literal(-16)))
        CFI (cfiCond49) V5 load(1, XDATA, add(CFA_XSP16, literal(-15)))
        CFI (cfiCond49) V6 load(1, XDATA, add(CFA_XSP16, literal(-14)))
        CFI (cfiCond49) V7 load(1, XDATA, add(CFA_XSP16, literal(-13)))
        CFI (cfiCond49) V8 load(1, XDATA, add(CFA_XSP16, literal(-12)))
        CFI (cfiCond49) V9 load(1, XDATA, add(CFA_XSP16, literal(-11)))
        CFI (cfiCond49) V10 load(1, XDATA, add(CFA_XSP16, literal(-10)))
        CFI (cfiCond49) V11 load(1, XDATA, add(CFA_XSP16, literal(-9)))
        CFI (cfiCond49) V12 load(1, XDATA, add(CFA_XSP16, literal(-8)))
        CFI (cfiCond49) V13 load(1, XDATA, add(CFA_XSP16, literal(-7)))
        CFI (cfiCond49) R7 load(1, XDATA, add(CFA_XSP16, literal(-6)))
        CFI (cfiCond49) ?RET_LOW load(1, XDATA, add(CFA_XSP16, literal(-5)))
        CFI (cfiCond49) ?RET_HIGH load(1, XDATA, add(CFA_XSP16, literal(-4)))
        CFI (cfiCond49) ?BRET_EXT load(1, XDATA, add(CFA_XSP16, literal(-3)))
        CFI (cfiCond49) DPL0 load(1, XDATA, add(CFA_XSP16, literal(-2)))
        CFI (cfiCond49) DPH0 load(1, XDATA, add(CFA_XSP16, literal(-1)))
        CFI (cfiCond49) CFA_SP SP+0
        CFI (cfiCond49) CFA_XSP16 add(XSP16, 22)
        CFI Block cfiCond50 Using cfiCommon0
        CFI (cfiCond50) NoFunction
        CFI (cfiCond50) Conditional ??CrossCallReturnLabel_46
        CFI (cfiCond50) R6 load(1, XDATA, add(CFA_XSP16, literal(-18)))
        CFI (cfiCond50) VB load(1, XDATA, add(CFA_XSP16, literal(-17)))
        CFI (cfiCond50) V0 load(1, XDATA, add(CFA_XSP16, literal(-16)))
        CFI (cfiCond50) V1 load(1, XDATA, add(CFA_XSP16, literal(-15)))
        CFI (cfiCond50) V2 load(1, XDATA, add(CFA_XSP16, literal(-14)))
        CFI (cfiCond50) V3 load(1, XDATA, add(CFA_XSP16, literal(-13)))
        CFI (cfiCond50) V4 load(1, XDATA, add(CFA_XSP16, literal(-12)))
        CFI (cfiCond50) V5 load(1, XDATA, add(CFA_XSP16, literal(-11)))
        CFI (cfiCond50) V6 load(1, XDATA, add(CFA_XSP16, literal(-10)))
        CFI (cfiCond50) V7 load(1, XDATA, add(CFA_XSP16, literal(-9)))
        CFI (cfiCond50) V8 load(1, XDATA, add(CFA_XSP16, literal(-8)))
        CFI (cfiCond50) V9 load(1, XDATA, add(CFA_XSP16, literal(-7)))
        CFI (cfiCond50) R7 load(1, XDATA, add(CFA_XSP16, literal(-6)))
        CFI (cfiCond50) ?RET_LOW load(1, XDATA, add(CFA_XSP16, literal(-5)))
        CFI (cfiCond50) ?RET_HIGH load(1, XDATA, add(CFA_XSP16, literal(-4)))
        CFI (cfiCond50) ?BRET_EXT load(1, XDATA, add(CFA_XSP16, literal(-3)))
        CFI (cfiCond50) DPL0 load(1, XDATA, add(CFA_XSP16, literal(-2)))
        CFI (cfiCond50) DPH0 load(1, XDATA, add(CFA_XSP16, literal(-1)))
        CFI (cfiCond50) CFA_SP SP+0
        CFI (cfiCond50) CFA_XSP16 add(XSP16, 18)
        CFI Block cfiCond51 Using cfiCommon0
        CFI (cfiCond51) NoFunction
        CFI (cfiCond51) Conditional ??CrossCallReturnLabel_47
        CFI (cfiCond51) R6 load(1, XDATA, add(CFA_XSP16, literal(-18)))
        CFI (cfiCond51) VB load(1, XDATA, add(CFA_XSP16, literal(-17)))
        CFI (cfiCond51) V0 load(1, XDATA, add(CFA_XSP16, literal(-16)))
        CFI (cfiCond51) V1 load(1, XDATA, add(CFA_XSP16, literal(-15)))
        CFI (cfiCond51) V2 load(1, XDATA, add(CFA_XSP16, literal(-14)))
        CFI (cfiCond51) V3 load(1, XDATA, add(CFA_XSP16, literal(-13)))
        CFI (cfiCond51) V4 load(1, XDATA, add(CFA_XSP16, literal(-12)))
        CFI (cfiCond51) V5 load(1, XDATA, add(CFA_XSP16, literal(-11)))
        CFI (cfiCond51) V6 load(1, XDATA, add(CFA_XSP16, literal(-10)))
        CFI (cfiCond51) V7 load(1, XDATA, add(CFA_XSP16, literal(-9)))
        CFI (cfiCond51) V8 load(1, XDATA, add(CFA_XSP16, literal(-8)))
        CFI (cfiCond51) V9 load(1, XDATA, add(CFA_XSP16, literal(-7)))
        CFI (cfiCond51) R7 load(1, XDATA, add(CFA_XSP16, literal(-6)))
        CFI (cfiCond51) ?RET_LOW load(1, XDATA, add(CFA_XSP16, literal(-5)))
        CFI (cfiCond51) ?RET_HIGH load(1, XDATA, add(CFA_XSP16, literal(-4)))
        CFI (cfiCond51) ?BRET_EXT load(1, XDATA, add(CFA_XSP16, literal(-3)))
        CFI (cfiCond51) DPL0 load(1, XDATA, add(CFA_XSP16, literal(-2)))
        CFI (cfiCond51) DPH0 load(1, XDATA, add(CFA_XSP16, literal(-1)))
        CFI (cfiCond51) CFA_SP SP+0
        CFI (cfiCond51) CFA_XSP16 add(XSP16, 18)
        CFI Block cfiCond52 Using cfiCommon0
        CFI (cfiCond52) NoFunction
        CFI (cfiCond52) Conditional ??CrossCallReturnLabel_48
        CFI (cfiCond52) R6 load(1, XDATA, add(CFA_XSP16, literal(-18)))
        CFI (cfiCond52) VB load(1, XDATA, add(CFA_XSP16, literal(-17)))
        CFI (cfiCond52) V0 load(1, XDATA, add(CFA_XSP16, literal(-16)))
        CFI (cfiCond52) V1 load(1, XDATA, add(CFA_XSP16, literal(-15)))
        CFI (cfiCond52) V2 load(1, XDATA, add(CFA_XSP16, literal(-14)))
        CFI (cfiCond52) V3 load(1, XDATA, add(CFA_XSP16, literal(-13)))
        CFI (cfiCond52) V4 load(1, XDATA, add(CFA_XSP16, literal(-12)))
        CFI (cfiCond52) V5 load(1, XDATA, add(CFA_XSP16, literal(-11)))
        CFI (cfiCond52) V6 load(1, XDATA, add(CFA_XSP16, literal(-10)))
        CFI (cfiCond52) V7 load(1, XDATA, add(CFA_XSP16, literal(-9)))
        CFI (cfiCond52) V8 load(1, XDATA, add(CFA_XSP16, literal(-8)))
        CFI (cfiCond52) V9 load(1, XDATA, add(CFA_XSP16, literal(-7)))
        CFI (cfiCond52) R7 load(1, XDATA, add(CFA_XSP16, literal(-6)))
        CFI (cfiCond52) ?RET_LOW load(1, XDATA, add(CFA_XSP16, literal(-5)))
        CFI (cfiCond52) ?RET_HIGH load(1, XDATA, add(CFA_XSP16, literal(-4)))
        CFI (cfiCond52) ?BRET_EXT load(1, XDATA, add(CFA_XSP16, literal(-3)))
        CFI (cfiCond52) DPL0 load(1, XDATA, add(CFA_XSP16, literal(-2)))
        CFI (cfiCond52) DPH0 load(1, XDATA, add(CFA_XSP16, literal(-1)))
        CFI (cfiCond52) CFA_SP SP+0
        CFI (cfiCond52) CFA_XSP16 add(XSP16, 18)
        CFI Block cfiCond53 Using cfiCommon0
        CFI (cfiCond53) NoFunction
        CFI (cfiCond53) Conditional ??CrossCallReturnLabel_49
        CFI (cfiCond53) R6 load(1, XDATA, add(CFA_XSP16, literal(-10)))
        CFI (cfiCond53) VB load(1, XDATA, add(CFA_XSP16, literal(-9)))
        CFI (cfiCond53) V0 load(1, XDATA, add(CFA_XSP16, literal(-8)))
        CFI (cfiCond53) V1 load(1, XDATA, add(CFA_XSP16, literal(-7)))
        CFI (cfiCond53) R7 load(1, XDATA, add(CFA_XSP16, literal(-6)))
        CFI (cfiCond53) ?RET_LOW load(1, XDATA, add(CFA_XSP16, literal(-5)))
        CFI (cfiCond53) ?RET_HIGH load(1, XDATA, add(CFA_XSP16, literal(-4)))
        CFI (cfiCond53) ?BRET_EXT load(1, XDATA, add(CFA_XSP16, literal(-3)))
        CFI (cfiCond53) DPL0 load(1, XDATA, add(CFA_XSP16, literal(-2)))
        CFI (cfiCond53) DPH0 load(1, XDATA, add(CFA_XSP16, literal(-1)))
        CFI (cfiCond53) CFA_SP SP+0
        CFI (cfiCond53) CFA_XSP16 add(XSP16, 10)
        CFI Block cfiCond54 Using cfiCommon0
        CFI (cfiCond54) NoFunction
        CFI (cfiCond54) Conditional ??CrossCallReturnLabel_50
        CFI (cfiCond54) R6 load(1, XDATA, add(CFA_XSP16, literal(-13)))
        CFI (cfiCond54) VB load(1, XDATA, add(CFA_XSP16, literal(-12)))
        CFI (cfiCond54) V0 load(1, XDATA, add(CFA_XSP16, literal(-11)))
        CFI (cfiCond54) V1 load(1, XDATA, add(CFA_XSP16, literal(-10)))
        CFI (cfiCond54) V2 load(1, XDATA, add(CFA_XSP16, literal(-9)))
        CFI (cfiCond54) V3 load(1, XDATA, add(CFA_XSP16, literal(-8)))
        CFI (cfiCond54) V4 load(1, XDATA, add(CFA_XSP16, literal(-7)))
        CFI (cfiCond54) R7 load(1, XDATA, add(CFA_XSP16, literal(-6)))
        CFI (cfiCond54) ?RET_LOW load(1, XDATA, add(CFA_XSP16, literal(-5)))
        CFI (cfiCond54) ?RET_HIGH load(1, XDATA, add(CFA_XSP16, literal(-4)))
        CFI (cfiCond54) ?BRET_EXT load(1, XDATA, add(CFA_XSP16, literal(-3)))
        CFI (cfiCond54) DPL0 load(1, XDATA, add(CFA_XSP16, literal(-2)))
        CFI (cfiCond54) DPH0 load(1, XDATA, add(CFA_XSP16, literal(-1)))
        CFI (cfiCond54) CFA_SP SP+0
        CFI (cfiCond54) CFA_XSP16 add(XSP16, 16)
        CFI Block cfiCond55 Using cfiCommon0
        CFI (cfiCond55) NoFunction
        CFI (cfiCond55) Conditional ??CrossCallReturnLabel_51
        CFI (cfiCond55) R6 load(1, XDATA, add(CFA_XSP16, literal(-13)))
        CFI (cfiCond55) VB load(1, XDATA, add(CFA_XSP16, literal(-12)))
        CFI (cfiCond55) V0 load(1, XDATA, add(CFA_XSP16, literal(-11)))
        CFI (cfiCond55) V1 load(1, XDATA, add(CFA_XSP16, literal(-10)))
        CFI (cfiCond55) V2 load(1, XDATA, add(CFA_XSP16, literal(-9)))
        CFI (cfiCond55) V3 load(1, XDATA, add(CFA_XSP16, literal(-8)))
        CFI (cfiCond55) V4 load(1, XDATA, add(CFA_XSP16, literal(-7)))
        CFI (cfiCond55) R7 load(1, XDATA, add(CFA_XSP16, literal(-6)))
        CFI (cfiCond55) ?RET_LOW load(1, XDATA, add(CFA_XSP16, literal(-5)))
        CFI (cfiCond55) ?RET_HIGH load(1, XDATA, add(CFA_XSP16, literal(-4)))
        CFI (cfiCond55) ?BRET_EXT load(1, XDATA, add(CFA_XSP16, literal(-3)))
        CFI (cfiCond55) DPL0 load(1, XDATA, add(CFA_XSP16, literal(-2)))
        CFI (cfiCond55) DPH0 load(1, XDATA, add(CFA_XSP16, literal(-1)))
        CFI (cfiCond55) CFA_SP SP+0
        CFI (cfiCond55) CFA_XSP16 add(XSP16, 16)
        CFI Block cfiCond56 Using cfiCommon0
        CFI (cfiCond56) NoFunction
        CFI (cfiCond56) Conditional ??CrossCallReturnLabel_52
        CFI (cfiCond56) R6 load(1, XDATA, add(CFA_XSP16, literal(-9)))
        CFI (cfiCond56) VB load(1, XDATA, add(CFA_XSP16, literal(-8)))
        CFI (cfiCond56) V0 load(1, XDATA, add(CFA_XSP16, literal(-7)))
        CFI (cfiCond56) R7 load(1, XDATA, add(CFA_XSP16, literal(-6)))
        CFI (cfiCond56) ?RET_LOW load(1, XDATA, add(CFA_XSP16, literal(-5)))
        CFI (cfiCond56) ?RET_HIGH load(1, XDATA, add(CFA_XSP16, literal(-4)))
        CFI (cfiCond56) ?BRET_EXT load(1, XDATA, add(CFA_XSP16, literal(-3)))
        CFI (cfiCond56) DPL0 load(1, XDATA, add(CFA_XSP16, literal(-2)))
        CFI (cfiCond56) DPH0 load(1, XDATA, add(CFA_XSP16, literal(-1)))
        CFI (cfiCond56) CFA_SP SP+0
        CFI (cfiCond56) CFA_XSP16 add(XSP16, 9)
        CFI Block cfiPicker57 Using cfiCommon1
        CFI (cfiPicker57) NoFunction
        CFI (cfiPicker57) Picker
        MOVX    A,@DPTR
        MOV     R0,A
        INC     DPTR
        MOVX    A,@DPTR
        MOV     R1,A
        MOV     A,R0
        ORL     A,R1
        RET
        CFI EndBlock cfiCond48
        CFI EndBlock cfiCond49
        CFI EndBlock cfiCond50
        CFI EndBlock cfiCond51
        CFI EndBlock cfiCond52
        CFI EndBlock cfiCond53
        CFI EndBlock cfiCond54
        CFI EndBlock cfiCond55
        CFI EndBlock cfiCond56
        CFI EndBlock cfiPicker57
//  137 

        RSEG BANKED_CODE:CODE:NOROOT(0)
//  138 static void createEndPoint(struct ep_info_t *epInfo, uint8 *task_id, uint8 ep)
createEndPoint:
        CFI Block cfiBlock58 Using cfiCommon0
        CFI Function createEndPoint
        CODE
//  139 {
        FUNCALL createEndPoint, afRegister
        LOCFRAME ISTACK, 0, STACK
        LOCFRAME PSTACK, 0, STACK
        LOCFRAME XSTACK, 10, STACK
        LOCFRAME IOVERLAY, 0, STATIC
        LOCFRAME DOVERLAY, 0, STATIC
        ARGFRAME ISTACK, 0, STACK
        ARGFRAME PSTACK, 0, STACK
        ARGFRAME XSTACK, 10, STACK
        ARGFRAME IOVERLAY, 0, STATIC
        ARGFRAME DOVERLAY, 0, STATIC
        MOV     A,#-0xa
        LCALL   ?BANKED_ENTER_XDATA
        CFI DPH0 load(1, XDATA, add(CFA_XSP16, literal(-1)))
        CFI DPL0 load(1, XDATA, add(CFA_XSP16, literal(-2)))
        CFI ?BRET_EXT load(1, XDATA, add(CFA_XSP16, literal(-3)))
        CFI ?RET_HIGH load(1, XDATA, add(CFA_XSP16, literal(-4)))
        CFI ?RET_LOW load(1, XDATA, add(CFA_XSP16, literal(-5)))
        CFI R7 load(1, XDATA, add(CFA_XSP16, literal(-6)))
        CFI V1 load(1, XDATA, add(CFA_XSP16, literal(-7)))
        CFI V0 load(1, XDATA, add(CFA_XSP16, literal(-8)))
        CFI VB load(1, XDATA, add(CFA_XSP16, literal(-9)))
        CFI R6 load(1, XDATA, add(CFA_XSP16, literal(-10)))
        CFI CFA_SP SP+0
        CFI CFA_XSP16 add(XSP16, 10)
        ; Saved register size: 10
        ; Auto size: 0
        MOV     A,R1
        MOV     R6,A
//  140     static cId_t commonClusterId = SAPP_PERIODIC_CLUSTERID;
//  141     // Fill out the endpoint description.
//  142     epInfo->task_id = *task_id;
        MOV     DPL,R4
        MOV     DPH,R5
        MOVX    A,@DPTR
        PUSH    A
        CFI CFA_SP SP+-1
        MOV     A,R2
        ADD     A,#0xc
        LCALL   ?Subroutine16 & 0xFFFF
??CrossCallReturnLabel_56:
        POP     A
        CFI CFA_SP SP+0
        MOVX    @DPTR,A
//  143     epInfo->ep = ep;
        MOV     A,R2
        ADD     A,#0xb
        LCALL   ?Subroutine16 & 0xFFFF
??CrossCallReturnLabel_57:
        MOV     A,R1
        LCALL   ?Subroutine17 & 0xFFFF
//  144     epInfo->timerTick = epInfo->function.cycle;
??CrossCallReturnLabel_19:
        PUSH    A
        CFI CFA_SP SP+-1
        MOV     A,R2
        ADD     A,#0xd
        LCALL   ?Subroutine16 & 0xFFFF
??CrossCallReturnLabel_58:
        POP     A
        CFI CFA_SP SP+0
        MOVX    @DPTR,A
//  145     epInfo->userTimer = 0;
        LCALL   ?Subroutine13 & 0xFFFF
//  146 
//  147     epInfo->simpleDesc.EndPoint = ep;
??CrossCallReturnLabel_89:
        MOV     A,R2
        ADD     A,#0x15
        MOV     ?V0 + 0,A
        MOV     A,R3
        ADDC    A,#0x0
        MOV     ?V0 + 1,A
        MOV     A,R6
        MOV     DPL,?V0 + 0
        MOV     DPH,?V0 + 1
        MOVX    @DPTR,A
//  148     epInfo->simpleDesc.AppProfId = SAPP_PROFID;
        MOV     A,R2
        ADD     A,#0x16
        LCALL   ?Subroutine16 & 0xFFFF
??CrossCallReturnLabel_59:
        MOV     A,#0x8
        MOVX    @DPTR,A
        INC     DPTR
        MOV     A,#0xf
        MOVX    @DPTR,A
//  149     epInfo->simpleDesc.AppDeviceId = SAPP_DEVICEID;
        MOV     A,R2
        ADD     A,#0x18
        LCALL   ?Subroutine16 & 0xFFFF
??CrossCallReturnLabel_60:
        MOV     A,#0x1
        MOVX    @DPTR,A
        INC     DPTR
        CLR     A
        MOVX    @DPTR,A
//  150     epInfo->simpleDesc.AppDevVer = SAPP_DEVICE_VERSION;
//  151     epInfo->simpleDesc.Reserved = 0;
        MOV     A,R2
        ADD     A,#0x1a
        LCALL   ??Subroutine44_0 & 0xFFFF
//  152     epInfo->simpleDesc.AppNumInClusters = 1;
??CrossCallReturnLabel_87:
        MOV     A,R2
        ADD     A,#0x1b
        LCALL   ?Subroutine15 & 0xFFFF
//  153     epInfo->simpleDesc.pAppInClusterList = &commonClusterId;
??CrossCallReturnLabel_16:
        ADD     A,#0x1c
        LCALL   ?Subroutine14 & 0xFFFF
//  154     epInfo->simpleDesc.AppNumOutClusters = 1;
??CrossCallReturnLabel_14:
        ADD     A,#0x1e
        LCALL   ?Subroutine15 & 0xFFFF
//  155     epInfo->simpleDesc.pAppOutClusterList = &commonClusterId;
??CrossCallReturnLabel_17:
        ADD     A,#0x1f
        LCALL   ?Subroutine14 & 0xFFFF
//  156 
//  157     epInfo->SampleApp_epDesc.endPoint = ep;
??CrossCallReturnLabel_15:
        ADD     A,#0xf
        MOV     R0,A
        MOV     A,R3
        ADDC    A,#0x0
        MOV     R1,A
        MOV     A,R6
        MOV     DPL,R0
        MOV     DPH,R1
        MOVX    @DPTR,A
//  158     epInfo->SampleApp_epDesc.task_id = task_id;
        MOV     A,R2
        ADD     A,#0x10
        LCALL   ?Subroutine16 & 0xFFFF
??CrossCallReturnLabel_61:
        MOV     A,R4
        MOVX    @DPTR,A
        INC     DPTR
        MOV     A,R5
        MOVX    @DPTR,A
//  159     epInfo->SampleApp_epDesc.simpleDesc = &epInfo->simpleDesc;
        MOV     A,R2
        ADD     A,#0x12
        LCALL   ?Subroutine16 & 0xFFFF
??CrossCallReturnLabel_62:
        MOV     A,?V0 + 0
        MOVX    @DPTR,A
        INC     DPTR
        MOV     A,?V0 + 1
        MOVX    @DPTR,A
//  160     epInfo->SampleApp_epDesc.latencyReq = noLatencyReqs;
        MOV     A,R2
        ADD     A,#0x14
        LCALL   ??Subroutine44_0 & 0xFFFF
//  161 
//  162     // Register the endpoint description with the AF
//  163     afRegister(&epInfo->SampleApp_epDesc);
??CrossCallReturnLabel_88:
        ; Setup parameters for call to function afRegister
        MOV     A,R0
        MOV     R2,A
        MOV     A,R1
        MOV     R3,A
        LCALL   ??afRegister?relay
//  164 }
        LJMP    ?Subroutine1 & 0xFFFF
        CFI EndBlock cfiBlock58

        RSEG BANKED_CODE:CODE:NOROOT(0)
?Subroutine17:
        CFI Block cfiCond59 Using cfiCommon0
        CFI NoFunction
        CFI Conditional ??CrossCallReturnLabel_18
        CFI R6 load(1, XDATA, add(CFA_XSP16, literal(-10)))
        CFI VB load(1, XDATA, add(CFA_XSP16, literal(-9)))
        CFI V0 load(1, XDATA, add(CFA_XSP16, literal(-8)))
        CFI V1 load(1, XDATA, add(CFA_XSP16, literal(-7)))
        CFI R7 load(1, XDATA, add(CFA_XSP16, literal(-6)))
        CFI ?RET_LOW load(1, XDATA, add(CFA_XSP16, literal(-5)))
        CFI ?RET_HIGH load(1, XDATA, add(CFA_XSP16, literal(-4)))
        CFI ?BRET_EXT load(1, XDATA, add(CFA_XSP16, literal(-3)))
        CFI DPL0 load(1, XDATA, add(CFA_XSP16, literal(-2)))
        CFI DPH0 load(1, XDATA, add(CFA_XSP16, literal(-1)))
        CFI CFA_SP SP+0
        CFI CFA_XSP16 add(XSP16, 10)
        CFI Block cfiCond60 Using cfiCommon0
        CFI (cfiCond60) NoFunction
        CFI (cfiCond60) Conditional ??CrossCallReturnLabel_19
        CFI (cfiCond60) R6 load(1, XDATA, add(CFA_XSP16, literal(-10)))
        CFI (cfiCond60) VB load(1, XDATA, add(CFA_XSP16, literal(-9)))
        CFI (cfiCond60) V0 load(1, XDATA, add(CFA_XSP16, literal(-8)))
        CFI (cfiCond60) V1 load(1, XDATA, add(CFA_XSP16, literal(-7)))
        CFI (cfiCond60) R7 load(1, XDATA, add(CFA_XSP16, literal(-6)))
        CFI (cfiCond60) ?RET_LOW load(1, XDATA, add(CFA_XSP16, literal(-5)))
        CFI (cfiCond60) ?RET_HIGH load(1, XDATA, add(CFA_XSP16, literal(-4)))
        CFI (cfiCond60) ?BRET_EXT load(1, XDATA, add(CFA_XSP16, literal(-3)))
        CFI (cfiCond60) DPL0 load(1, XDATA, add(CFA_XSP16, literal(-2)))
        CFI (cfiCond60) DPH0 load(1, XDATA, add(CFA_XSP16, literal(-1)))
        CFI (cfiCond60) CFA_SP SP+0
        CFI (cfiCond60) CFA_XSP16 add(XSP16, 10)
        CFI Block cfiPicker61 Using cfiCommon1
        CFI (cfiPicker61) NoFunction
        CFI (cfiPicker61) Picker
        LCALL   ?Subroutine26 & 0xFFFF
??CrossCallReturnLabel_34:
        INC     DPTR
        MOVX    A,@DPTR
        RET
        CFI EndBlock cfiCond59
        CFI EndBlock cfiCond60
        CFI EndBlock cfiPicker61

        RSEG BANKED_CODE:CODE:NOROOT(0)
?Subroutine26:
        CFI Block cfiCond62 Using cfiCommon0
        CFI NoFunction
        CFI Conditional ??CrossCallReturnLabel_33
        CFI R6 load(1, XDATA, add(CFA_XSP16, literal(-10)))
        CFI VB load(1, XDATA, add(CFA_XSP16, literal(-9)))
        CFI V0 load(1, XDATA, add(CFA_XSP16, literal(-8)))
        CFI V1 load(1, XDATA, add(CFA_XSP16, literal(-7)))
        CFI R7 load(1, XDATA, add(CFA_XSP16, literal(-6)))
        CFI ?RET_LOW load(1, XDATA, add(CFA_XSP16, literal(-5)))
        CFI ?RET_HIGH load(1, XDATA, add(CFA_XSP16, literal(-4)))
        CFI ?BRET_EXT load(1, XDATA, add(CFA_XSP16, literal(-3)))
        CFI DPL0 load(1, XDATA, add(CFA_XSP16, literal(-2)))
        CFI DPH0 load(1, XDATA, add(CFA_XSP16, literal(-1)))
        CFI CFA_SP SP+0
        CFI CFA_XSP16 add(XSP16, 10)
        CFI Block cfiCond63 Using cfiCommon0
        CFI (cfiCond63) NoFunction
        CFI (cfiCond63) Conditional ??CrossCallReturnLabel_34, ??CrossCallReturnLabel_18
        CFI (cfiCond63) R6 load(1, XDATA, add(CFA_XSP16, literal(-10)))
        CFI (cfiCond63) VB load(1, XDATA, add(CFA_XSP16, literal(-9)))
        CFI (cfiCond63) V0 load(1, XDATA, add(CFA_XSP16, literal(-8)))
        CFI (cfiCond63) V1 load(1, XDATA, add(CFA_XSP16, literal(-7)))
        CFI (cfiCond63) R7 load(1, XDATA, add(CFA_XSP16, literal(-6)))
        CFI (cfiCond63) ?RET_LOW load(1, XDATA, add(CFA_XSP16, literal(-5)))
        CFI (cfiCond63) ?RET_HIGH load(1, XDATA, add(CFA_XSP16, literal(-4)))
        CFI (cfiCond63) ?BRET_EXT load(1, XDATA, add(CFA_XSP16, literal(-3)))
        CFI (cfiCond63) DPL0 load(1, XDATA, add(CFA_XSP16, literal(-2)))
        CFI (cfiCond63) DPH0 load(1, XDATA, add(CFA_XSP16, literal(-1)))
        CFI (cfiCond63) CFA_SP SP+0
        CFI (cfiCond63) CFA_XSP16 add(XSP16, 10)
        CFI Block cfiCond64 Using cfiCommon0
        CFI (cfiCond64) NoFunction
        CFI (cfiCond64) Conditional ??CrossCallReturnLabel_34, ??CrossCallReturnLabel_19
        CFI (cfiCond64) R6 load(1, XDATA, add(CFA_XSP16, literal(-10)))
        CFI (cfiCond64) VB load(1, XDATA, add(CFA_XSP16, literal(-9)))
        CFI (cfiCond64) V0 load(1, XDATA, add(CFA_XSP16, literal(-8)))
        CFI (cfiCond64) V1 load(1, XDATA, add(CFA_XSP16, literal(-7)))
        CFI (cfiCond64) R7 load(1, XDATA, add(CFA_XSP16, literal(-6)))
        CFI (cfiCond64) ?RET_LOW load(1, XDATA, add(CFA_XSP16, literal(-5)))
        CFI (cfiCond64) ?RET_HIGH load(1, XDATA, add(CFA_XSP16, literal(-4)))
        CFI (cfiCond64) ?BRET_EXT load(1, XDATA, add(CFA_XSP16, literal(-3)))
        CFI (cfiCond64) DPL0 load(1, XDATA, add(CFA_XSP16, literal(-2)))
        CFI (cfiCond64) DPH0 load(1, XDATA, add(CFA_XSP16, literal(-1)))
        CFI (cfiCond64) CFA_SP SP+0
        CFI (cfiCond64) CFA_XSP16 add(XSP16, 10)
        CFI Block cfiPicker65 Using cfiCommon1
        CFI (cfiPicker65) NoFunction
        CFI (cfiPicker65) Picker
        MOVX    @DPTR,A
        MOV     DPL,R2
        MOV     DPH,R3
        INC     DPTR
        INC     DPTR
        INC     DPTR
        INC     DPTR
        INC     DPTR
        INC     DPTR
        INC     DPTR
        INC     DPTR
        INC     DPTR
        RET
        CFI EndBlock cfiCond62
        CFI EndBlock cfiCond63
        CFI EndBlock cfiCond64
        CFI EndBlock cfiPicker65

        RSEG BANKED_CODE:CODE:NOROOT(0)
?Subroutine16:
        CFI Block cfiCond66 Using cfiCommon0
        CFI NoFunction
        CFI Conditional ??CrossCallReturnLabel_56
        CFI R6 load(1, XDATA, add(CFA_XSP16, literal(-10)))
        CFI VB load(1, XDATA, add(CFA_XSP16, literal(-9)))
        CFI V0 load(1, XDATA, add(CFA_XSP16, literal(-8)))
        CFI V1 load(1, XDATA, add(CFA_XSP16, literal(-7)))
        CFI R7 load(1, XDATA, add(CFA_XSP16, literal(-6)))
        CFI ?RET_LOW load(1, XDATA, add(CFA_XSP16, literal(-5)))
        CFI ?RET_HIGH load(1, XDATA, add(CFA_XSP16, literal(-4)))
        CFI ?BRET_EXT load(1, XDATA, add(CFA_XSP16, literal(-3)))
        CFI DPL0 load(1, XDATA, add(CFA_XSP16, literal(-2)))
        CFI DPH0 load(1, XDATA, add(CFA_XSP16, literal(-1)))
        CFI CFA_SP SP+-1
        CFI CFA_XSP16 add(XSP16, 10)
        CFI Block cfiCond67 Using cfiCommon0
        CFI (cfiCond67) NoFunction
        CFI (cfiCond67) Conditional ??CrossCallReturnLabel_57
        CFI (cfiCond67) R6 load(1, XDATA, add(CFA_XSP16, literal(-10)))
        CFI (cfiCond67) VB load(1, XDATA, add(CFA_XSP16, literal(-9)))
        CFI (cfiCond67) V0 load(1, XDATA, add(CFA_XSP16, literal(-8)))
        CFI (cfiCond67) V1 load(1, XDATA, add(CFA_XSP16, literal(-7)))
        CFI (cfiCond67) R7 load(1, XDATA, add(CFA_XSP16, literal(-6)))
        CFI (cfiCond67) ?RET_LOW load(1, XDATA, add(CFA_XSP16, literal(-5)))
        CFI (cfiCond67) ?RET_HIGH load(1, XDATA, add(CFA_XSP16, literal(-4)))
        CFI (cfiCond67) ?BRET_EXT load(1, XDATA, add(CFA_XSP16, literal(-3)))
        CFI (cfiCond67) DPL0 load(1, XDATA, add(CFA_XSP16, literal(-2)))
        CFI (cfiCond67) DPH0 load(1, XDATA, add(CFA_XSP16, literal(-1)))
        CFI (cfiCond67) CFA_SP SP+0
        CFI (cfiCond67) CFA_XSP16 add(XSP16, 10)
        CFI Block cfiCond68 Using cfiCommon0
        CFI (cfiCond68) NoFunction
        CFI (cfiCond68) Conditional ??CrossCallReturnLabel_58
        CFI (cfiCond68) R6 load(1, XDATA, add(CFA_XSP16, literal(-10)))
        CFI (cfiCond68) VB load(1, XDATA, add(CFA_XSP16, literal(-9)))
        CFI (cfiCond68) V0 load(1, XDATA, add(CFA_XSP16, literal(-8)))
        CFI (cfiCond68) V1 load(1, XDATA, add(CFA_XSP16, literal(-7)))
        CFI (cfiCond68) R7 load(1, XDATA, add(CFA_XSP16, literal(-6)))
        CFI (cfiCond68) ?RET_LOW load(1, XDATA, add(CFA_XSP16, literal(-5)))
        CFI (cfiCond68) ?RET_HIGH load(1, XDATA, add(CFA_XSP16, literal(-4)))
        CFI (cfiCond68) ?BRET_EXT load(1, XDATA, add(CFA_XSP16, literal(-3)))
        CFI (cfiCond68) DPL0 load(1, XDATA, add(CFA_XSP16, literal(-2)))
        CFI (cfiCond68) DPH0 load(1, XDATA, add(CFA_XSP16, literal(-1)))
        CFI (cfiCond68) CFA_SP SP+-1
        CFI (cfiCond68) CFA_XSP16 add(XSP16, 10)
        CFI Block cfiCond69 Using cfiCommon0
        CFI (cfiCond69) NoFunction
        CFI (cfiCond69) Conditional ??CrossCallReturnLabel_59
        CFI (cfiCond69) R6 load(1, XDATA, add(CFA_XSP16, literal(-10)))
        CFI (cfiCond69) VB load(1, XDATA, add(CFA_XSP16, literal(-9)))
        CFI (cfiCond69) V0 load(1, XDATA, add(CFA_XSP16, literal(-8)))
        CFI (cfiCond69) V1 load(1, XDATA, add(CFA_XSP16, literal(-7)))
        CFI (cfiCond69) R7 load(1, XDATA, add(CFA_XSP16, literal(-6)))
        CFI (cfiCond69) ?RET_LOW load(1, XDATA, add(CFA_XSP16, literal(-5)))
        CFI (cfiCond69) ?RET_HIGH load(1, XDATA, add(CFA_XSP16, literal(-4)))
        CFI (cfiCond69) ?BRET_EXT load(1, XDATA, add(CFA_XSP16, literal(-3)))
        CFI (cfiCond69) DPL0 load(1, XDATA, add(CFA_XSP16, literal(-2)))
        CFI (cfiCond69) DPH0 load(1, XDATA, add(CFA_XSP16, literal(-1)))
        CFI (cfiCond69) CFA_SP SP+0
        CFI (cfiCond69) CFA_XSP16 add(XSP16, 10)
        CFI Block cfiCond70 Using cfiCommon0
        CFI (cfiCond70) NoFunction
        CFI (cfiCond70) Conditional ??CrossCallReturnLabel_60
        CFI (cfiCond70) R6 load(1, XDATA, add(CFA_XSP16, literal(-10)))
        CFI (cfiCond70) VB load(1, XDATA, add(CFA_XSP16, literal(-9)))
        CFI (cfiCond70) V0 load(1, XDATA, add(CFA_XSP16, literal(-8)))
        CFI (cfiCond70) V1 load(1, XDATA, add(CFA_XSP16, literal(-7)))
        CFI (cfiCond70) R7 load(1, XDATA, add(CFA_XSP16, literal(-6)))
        CFI (cfiCond70) ?RET_LOW load(1, XDATA, add(CFA_XSP16, literal(-5)))
        CFI (cfiCond70) ?RET_HIGH load(1, XDATA, add(CFA_XSP16, literal(-4)))
        CFI (cfiCond70) ?BRET_EXT load(1, XDATA, add(CFA_XSP16, literal(-3)))
        CFI (cfiCond70) DPL0 load(1, XDATA, add(CFA_XSP16, literal(-2)))
        CFI (cfiCond70) DPH0 load(1, XDATA, add(CFA_XSP16, literal(-1)))
        CFI (cfiCond70) CFA_SP SP+0
        CFI (cfiCond70) CFA_XSP16 add(XSP16, 10)
        CFI Block cfiCond71 Using cfiCommon0
        CFI (cfiCond71) NoFunction
        CFI (cfiCond71) Conditional ??CrossCallReturnLabel_61
        CFI (cfiCond71) R6 load(1, XDATA, add(CFA_XSP16, literal(-10)))
        CFI (cfiCond71) VB load(1, XDATA, add(CFA_XSP16, literal(-9)))
        CFI (cfiCond71) V0 load(1, XDATA, add(CFA_XSP16, literal(-8)))
        CFI (cfiCond71) V1 load(1, XDATA, add(CFA_XSP16, literal(-7)))
        CFI (cfiCond71) R7 load(1, XDATA, add(CFA_XSP16, literal(-6)))
        CFI (cfiCond71) ?RET_LOW load(1, XDATA, add(CFA_XSP16, literal(-5)))
        CFI (cfiCond71) ?RET_HIGH load(1, XDATA, add(CFA_XSP16, literal(-4)))
        CFI (cfiCond71) ?BRET_EXT load(1, XDATA, add(CFA_XSP16, literal(-3)))
        CFI (cfiCond71) DPL0 load(1, XDATA, add(CFA_XSP16, literal(-2)))
        CFI (cfiCond71) DPH0 load(1, XDATA, add(CFA_XSP16, literal(-1)))
        CFI (cfiCond71) CFA_SP SP+0
        CFI (cfiCond71) CFA_XSP16 add(XSP16, 10)
        CFI Block cfiCond72 Using cfiCommon0
        CFI (cfiCond72) NoFunction
        CFI (cfiCond72) Conditional ??CrossCallReturnLabel_62
        CFI (cfiCond72) R6 load(1, XDATA, add(CFA_XSP16, literal(-10)))
        CFI (cfiCond72) VB load(1, XDATA, add(CFA_XSP16, literal(-9)))
        CFI (cfiCond72) V0 load(1, XDATA, add(CFA_XSP16, literal(-8)))
        CFI (cfiCond72) V1 load(1, XDATA, add(CFA_XSP16, literal(-7)))
        CFI (cfiCond72) R7 load(1, XDATA, add(CFA_XSP16, literal(-6)))
        CFI (cfiCond72) ?RET_LOW load(1, XDATA, add(CFA_XSP16, literal(-5)))
        CFI (cfiCond72) ?RET_HIGH load(1, XDATA, add(CFA_XSP16, literal(-4)))
        CFI (cfiCond72) ?BRET_EXT load(1, XDATA, add(CFA_XSP16, literal(-3)))
        CFI (cfiCond72) DPL0 load(1, XDATA, add(CFA_XSP16, literal(-2)))
        CFI (cfiCond72) DPH0 load(1, XDATA, add(CFA_XSP16, literal(-1)))
        CFI (cfiCond72) CFA_SP SP+0
        CFI (cfiCond72) CFA_XSP16 add(XSP16, 10)
        CFI Block cfiCond73 Using cfiCommon0
        CFI (cfiCond73) NoFunction
        CFI (cfiCond73) Conditional ??CrossCallReturnLabel_63
        CFI (cfiCond73) R6 load(1, XDATA, add(CFA_XSP16, literal(-9)))
        CFI (cfiCond73) VB load(1, XDATA, add(CFA_XSP16, literal(-8)))
        CFI (cfiCond73) V0 load(1, XDATA, add(CFA_XSP16, literal(-7)))
        CFI (cfiCond73) R7 load(1, XDATA, add(CFA_XSP16, literal(-6)))
        CFI (cfiCond73) ?RET_LOW load(1, XDATA, add(CFA_XSP16, literal(-5)))
        CFI (cfiCond73) ?RET_HIGH load(1, XDATA, add(CFA_XSP16, literal(-4)))
        CFI (cfiCond73) ?BRET_EXT load(1, XDATA, add(CFA_XSP16, literal(-3)))
        CFI (cfiCond73) DPL0 load(1, XDATA, add(CFA_XSP16, literal(-2)))
        CFI (cfiCond73) DPH0 load(1, XDATA, add(CFA_XSP16, literal(-1)))
        CFI (cfiCond73) CFA_SP SP+0
        CFI (cfiCond73) CFA_XSP16 add(XSP16, 9)
        CFI Block cfiPicker74 Using cfiCommon1
        CFI (cfiPicker74) NoFunction
        CFI (cfiPicker74) Picker
        MOV     DPL,A
        MOV     A,R3
        CFI EndBlock cfiCond66
        CFI EndBlock cfiCond67
        CFI EndBlock cfiCond68
        CFI EndBlock cfiCond69
        CFI EndBlock cfiCond70
        CFI EndBlock cfiCond71
        CFI EndBlock cfiCond72
        CFI EndBlock cfiCond73
        CFI EndBlock cfiPicker74
        REQUIRE ??Subroutine35_0
        ; // Fall through to label ??Subroutine35_0

        RSEG BANKED_CODE:CODE:NOROOT(0)
??Subroutine35_0:
        CFI Block cfiCond75 Using cfiCommon0
        CFI NoFunction
        CFI Conditional ??CrossCallReturnLabel_53
        CFI R6 load(1, XDATA, add(CFA_XSP16, literal(-13)))
        CFI VB load(1, XDATA, add(CFA_XSP16, literal(-12)))
        CFI V0 load(1, XDATA, add(CFA_XSP16, literal(-11)))
        CFI V1 load(1, XDATA, add(CFA_XSP16, literal(-10)))
        CFI V2 load(1, XDATA, add(CFA_XSP16, literal(-9)))
        CFI V3 load(1, XDATA, add(CFA_XSP16, literal(-8)))
        CFI V4 load(1, XDATA, add(CFA_XSP16, literal(-7)))
        CFI R7 load(1, XDATA, add(CFA_XSP16, literal(-6)))
        CFI ?RET_LOW load(1, XDATA, add(CFA_XSP16, literal(-5)))
        CFI ?RET_HIGH load(1, XDATA, add(CFA_XSP16, literal(-4)))
        CFI ?BRET_EXT load(1, XDATA, add(CFA_XSP16, literal(-3)))
        CFI DPL0 load(1, XDATA, add(CFA_XSP16, literal(-2)))
        CFI DPH0 load(1, XDATA, add(CFA_XSP16, literal(-1)))
        CFI CFA_SP SP+0
        CFI CFA_XSP16 add(XSP16, 16)
        CFI Block cfiCond76 Using cfiCommon0
        CFI (cfiCond76) NoFunction
        CFI (cfiCond76) Conditional ??CrossCallReturnLabel_54
        CFI (cfiCond76) R6 load(1, XDATA, add(CFA_XSP16, literal(-18)))
        CFI (cfiCond76) VB load(1, XDATA, add(CFA_XSP16, literal(-17)))
        CFI (cfiCond76) V0 load(1, XDATA, add(CFA_XSP16, literal(-16)))
        CFI (cfiCond76) V1 load(1, XDATA, add(CFA_XSP16, literal(-15)))
        CFI (cfiCond76) V2 load(1, XDATA, add(CFA_XSP16, literal(-14)))
        CFI (cfiCond76) V3 load(1, XDATA, add(CFA_XSP16, literal(-13)))
        CFI (cfiCond76) V4 load(1, XDATA, add(CFA_XSP16, literal(-12)))
        CFI (cfiCond76) V5 load(1, XDATA, add(CFA_XSP16, literal(-11)))
        CFI (cfiCond76) V6 load(1, XDATA, add(CFA_XSP16, literal(-10)))
        CFI (cfiCond76) V7 load(1, XDATA, add(CFA_XSP16, literal(-9)))
        CFI (cfiCond76) V8 load(1, XDATA, add(CFA_XSP16, literal(-8)))
        CFI (cfiCond76) V9 load(1, XDATA, add(CFA_XSP16, literal(-7)))
        CFI (cfiCond76) R7 load(1, XDATA, add(CFA_XSP16, literal(-6)))
        CFI (cfiCond76) ?RET_LOW load(1, XDATA, add(CFA_XSP16, literal(-5)))
        CFI (cfiCond76) ?RET_HIGH load(1, XDATA, add(CFA_XSP16, literal(-4)))
        CFI (cfiCond76) ?BRET_EXT load(1, XDATA, add(CFA_XSP16, literal(-3)))
        CFI (cfiCond76) DPL0 load(1, XDATA, add(CFA_XSP16, literal(-2)))
        CFI (cfiCond76) DPH0 load(1, XDATA, add(CFA_XSP16, literal(-1)))
        CFI (cfiCond76) CFA_SP SP+-1
        CFI (cfiCond76) CFA_XSP16 add(XSP16, 18)
        CFI Block cfiCond77 Using cfiCommon0
        CFI (cfiCond77) NoFunction
        CFI (cfiCond77) Conditional ??CrossCallReturnLabel_55
        CFI (cfiCond77) R6 load(1, XDATA, add(CFA_XSP16, literal(-18)))
        CFI (cfiCond77) VB load(1, XDATA, add(CFA_XSP16, literal(-17)))
        CFI (cfiCond77) V0 load(1, XDATA, add(CFA_XSP16, literal(-16)))
        CFI (cfiCond77) V1 load(1, XDATA, add(CFA_XSP16, literal(-15)))
        CFI (cfiCond77) V2 load(1, XDATA, add(CFA_XSP16, literal(-14)))
        CFI (cfiCond77) V3 load(1, XDATA, add(CFA_XSP16, literal(-13)))
        CFI (cfiCond77) V4 load(1, XDATA, add(CFA_XSP16, literal(-12)))
        CFI (cfiCond77) V5 load(1, XDATA, add(CFA_XSP16, literal(-11)))
        CFI (cfiCond77) V6 load(1, XDATA, add(CFA_XSP16, literal(-10)))
        CFI (cfiCond77) V7 load(1, XDATA, add(CFA_XSP16, literal(-9)))
        CFI (cfiCond77) V8 load(1, XDATA, add(CFA_XSP16, literal(-8)))
        CFI (cfiCond77) V9 load(1, XDATA, add(CFA_XSP16, literal(-7)))
        CFI (cfiCond77) R7 load(1, XDATA, add(CFA_XSP16, literal(-6)))
        CFI (cfiCond77) ?RET_LOW load(1, XDATA, add(CFA_XSP16, literal(-5)))
        CFI (cfiCond77) ?RET_HIGH load(1, XDATA, add(CFA_XSP16, literal(-4)))
        CFI (cfiCond77) ?BRET_EXT load(1, XDATA, add(CFA_XSP16, literal(-3)))
        CFI (cfiCond77) DPL0 load(1, XDATA, add(CFA_XSP16, literal(-2)))
        CFI (cfiCond77) DPH0 load(1, XDATA, add(CFA_XSP16, literal(-1)))
        CFI (cfiCond77) CFA_SP SP+-1
        CFI (cfiCond77) CFA_XSP16 add(XSP16, 18)
        CFI Block cfiCond78 Using cfiCommon0
        CFI (cfiCond78) NoFunction
        CFI (cfiCond78) Conditional ??CrossCallReturnLabel_56
        CFI (cfiCond78) R6 load(1, XDATA, add(CFA_XSP16, literal(-10)))
        CFI (cfiCond78) VB load(1, XDATA, add(CFA_XSP16, literal(-9)))
        CFI (cfiCond78) V0 load(1, XDATA, add(CFA_XSP16, literal(-8)))
        CFI (cfiCond78) V1 load(1, XDATA, add(CFA_XSP16, literal(-7)))
        CFI (cfiCond78) R7 load(1, XDATA, add(CFA_XSP16, literal(-6)))
        CFI (cfiCond78) ?RET_LOW load(1, XDATA, add(CFA_XSP16, literal(-5)))
        CFI (cfiCond78) ?RET_HIGH load(1, XDATA, add(CFA_XSP16, literal(-4)))
        CFI (cfiCond78) ?BRET_EXT load(1, XDATA, add(CFA_XSP16, literal(-3)))
        CFI (cfiCond78) DPL0 load(1, XDATA, add(CFA_XSP16, literal(-2)))
        CFI (cfiCond78) DPH0 load(1, XDATA, add(CFA_XSP16, literal(-1)))
        CFI (cfiCond78) CFA_SP SP+-1
        CFI (cfiCond78) CFA_XSP16 add(XSP16, 10)
        CFI Block cfiCond79 Using cfiCommon0
        CFI (cfiCond79) NoFunction
        CFI (cfiCond79) Conditional ??CrossCallReturnLabel_57
        CFI (cfiCond79) R6 load(1, XDATA, add(CFA_XSP16, literal(-10)))
        CFI (cfiCond79) VB load(1, XDATA, add(CFA_XSP16, literal(-9)))
        CFI (cfiCond79) V0 load(1, XDATA, add(CFA_XSP16, literal(-8)))
        CFI (cfiCond79) V1 load(1, XDATA, add(CFA_XSP16, literal(-7)))
        CFI (cfiCond79) R7 load(1, XDATA, add(CFA_XSP16, literal(-6)))
        CFI (cfiCond79) ?RET_LOW load(1, XDATA, add(CFA_XSP16, literal(-5)))
        CFI (cfiCond79) ?RET_HIGH load(1, XDATA, add(CFA_XSP16, literal(-4)))
        CFI (cfiCond79) ?BRET_EXT load(1, XDATA, add(CFA_XSP16, literal(-3)))
        CFI (cfiCond79) DPL0 load(1, XDATA, add(CFA_XSP16, literal(-2)))
        CFI (cfiCond79) DPH0 load(1, XDATA, add(CFA_XSP16, literal(-1)))
        CFI (cfiCond79) CFA_SP SP+0
        CFI (cfiCond79) CFA_XSP16 add(XSP16, 10)
        CFI Block cfiCond80 Using cfiCommon0
        CFI (cfiCond80) NoFunction
        CFI (cfiCond80) Conditional ??CrossCallReturnLabel_58
        CFI (cfiCond80) R6 load(1, XDATA, add(CFA_XSP16, literal(-10)))
        CFI (cfiCond80) VB load(1, XDATA, add(CFA_XSP16, literal(-9)))
        CFI (cfiCond80) V0 load(1, XDATA, add(CFA_XSP16, literal(-8)))
        CFI (cfiCond80) V1 load(1, XDATA, add(CFA_XSP16, literal(-7)))
        CFI (cfiCond80) R7 load(1, XDATA, add(CFA_XSP16, literal(-6)))
        CFI (cfiCond80) ?RET_LOW load(1, XDATA, add(CFA_XSP16, literal(-5)))
        CFI (cfiCond80) ?RET_HIGH load(1, XDATA, add(CFA_XSP16, literal(-4)))
        CFI (cfiCond80) ?BRET_EXT load(1, XDATA, add(CFA_XSP16, literal(-3)))
        CFI (cfiCond80) DPL0 load(1, XDATA, add(CFA_XSP16, literal(-2)))
        CFI (cfiCond80) DPH0 load(1, XDATA, add(CFA_XSP16, literal(-1)))
        CFI (cfiCond80) CFA_SP SP+-1
        CFI (cfiCond80) CFA_XSP16 add(XSP16, 10)
        CFI Block cfiCond81 Using cfiCommon0
        CFI (cfiCond81) NoFunction
        CFI (cfiCond81) Conditional ??CrossCallReturnLabel_59
        CFI (cfiCond81) R6 load(1, XDATA, add(CFA_XSP16, literal(-10)))
        CFI (cfiCond81) VB load(1, XDATA, add(CFA_XSP16, literal(-9)))
        CFI (cfiCond81) V0 load(1, XDATA, add(CFA_XSP16, literal(-8)))
        CFI (cfiCond81) V1 load(1, XDATA, add(CFA_XSP16, literal(-7)))
        CFI (cfiCond81) R7 load(1, XDATA, add(CFA_XSP16, literal(-6)))
        CFI (cfiCond81) ?RET_LOW load(1, XDATA, add(CFA_XSP16, literal(-5)))
        CFI (cfiCond81) ?RET_HIGH load(1, XDATA, add(CFA_XSP16, literal(-4)))
        CFI (cfiCond81) ?BRET_EXT load(1, XDATA, add(CFA_XSP16, literal(-3)))
        CFI (cfiCond81) DPL0 load(1, XDATA, add(CFA_XSP16, literal(-2)))
        CFI (cfiCond81) DPH0 load(1, XDATA, add(CFA_XSP16, literal(-1)))
        CFI (cfiCond81) CFA_SP SP+0
        CFI (cfiCond81) CFA_XSP16 add(XSP16, 10)
        CFI Block cfiCond82 Using cfiCommon0
        CFI (cfiCond82) NoFunction
        CFI (cfiCond82) Conditional ??CrossCallReturnLabel_60
        CFI (cfiCond82) R6 load(1, XDATA, add(CFA_XSP16, literal(-10)))
        CFI (cfiCond82) VB load(1, XDATA, add(CFA_XSP16, literal(-9)))
        CFI (cfiCond82) V0 load(1, XDATA, add(CFA_XSP16, literal(-8)))
        CFI (cfiCond82) V1 load(1, XDATA, add(CFA_XSP16, literal(-7)))
        CFI (cfiCond82) R7 load(1, XDATA, add(CFA_XSP16, literal(-6)))
        CFI (cfiCond82) ?RET_LOW load(1, XDATA, add(CFA_XSP16, literal(-5)))
        CFI (cfiCond82) ?RET_HIGH load(1, XDATA, add(CFA_XSP16, literal(-4)))
        CFI (cfiCond82) ?BRET_EXT load(1, XDATA, add(CFA_XSP16, literal(-3)))
        CFI (cfiCond82) DPL0 load(1, XDATA, add(CFA_XSP16, literal(-2)))
        CFI (cfiCond82) DPH0 load(1, XDATA, add(CFA_XSP16, literal(-1)))
        CFI (cfiCond82) CFA_SP SP+0
        CFI (cfiCond82) CFA_XSP16 add(XSP16, 10)
        CFI Block cfiCond83 Using cfiCommon0
        CFI (cfiCond83) NoFunction
        CFI (cfiCond83) Conditional ??CrossCallReturnLabel_61
        CFI (cfiCond83) R6 load(1, XDATA, add(CFA_XSP16, literal(-10)))
        CFI (cfiCond83) VB load(1, XDATA, add(CFA_XSP16, literal(-9)))
        CFI (cfiCond83) V0 load(1, XDATA, add(CFA_XSP16, literal(-8)))
        CFI (cfiCond83) V1 load(1, XDATA, add(CFA_XSP16, literal(-7)))
        CFI (cfiCond83) R7 load(1, XDATA, add(CFA_XSP16, literal(-6)))
        CFI (cfiCond83) ?RET_LOW load(1, XDATA, add(CFA_XSP16, literal(-5)))
        CFI (cfiCond83) ?RET_HIGH load(1, XDATA, add(CFA_XSP16, literal(-4)))
        CFI (cfiCond83) ?BRET_EXT load(1, XDATA, add(CFA_XSP16, literal(-3)))
        CFI (cfiCond83) DPL0 load(1, XDATA, add(CFA_XSP16, literal(-2)))
        CFI (cfiCond83) DPH0 load(1, XDATA, add(CFA_XSP16, literal(-1)))
        CFI (cfiCond83) CFA_SP SP+0
        CFI (cfiCond83) CFA_XSP16 add(XSP16, 10)
        CFI Block cfiCond84 Using cfiCommon0
        CFI (cfiCond84) NoFunction
        CFI (cfiCond84) Conditional ??CrossCallReturnLabel_62
        CFI (cfiCond84) R6 load(1, XDATA, add(CFA_XSP16, literal(-10)))
        CFI (cfiCond84) VB load(1, XDATA, add(CFA_XSP16, literal(-9)))
        CFI (cfiCond84) V0 load(1, XDATA, add(CFA_XSP16, literal(-8)))
        CFI (cfiCond84) V1 load(1, XDATA, add(CFA_XSP16, literal(-7)))
        CFI (cfiCond84) R7 load(1, XDATA, add(CFA_XSP16, literal(-6)))
        CFI (cfiCond84) ?RET_LOW load(1, XDATA, add(CFA_XSP16, literal(-5)))
        CFI (cfiCond84) ?RET_HIGH load(1, XDATA, add(CFA_XSP16, literal(-4)))
        CFI (cfiCond84) ?BRET_EXT load(1, XDATA, add(CFA_XSP16, literal(-3)))
        CFI (cfiCond84) DPL0 load(1, XDATA, add(CFA_XSP16, literal(-2)))
        CFI (cfiCond84) DPH0 load(1, XDATA, add(CFA_XSP16, literal(-1)))
        CFI (cfiCond84) CFA_SP SP+0
        CFI (cfiCond84) CFA_XSP16 add(XSP16, 10)
        CFI Block cfiCond85 Using cfiCommon0
        CFI (cfiCond85) NoFunction
        CFI (cfiCond85) Conditional ??CrossCallReturnLabel_63
        CFI (cfiCond85) R6 load(1, XDATA, add(CFA_XSP16, literal(-9)))
        CFI (cfiCond85) VB load(1, XDATA, add(CFA_XSP16, literal(-8)))
        CFI (cfiCond85) V0 load(1, XDATA, add(CFA_XSP16, literal(-7)))
        CFI (cfiCond85) R7 load(1, XDATA, add(CFA_XSP16, literal(-6)))
        CFI (cfiCond85) ?RET_LOW load(1, XDATA, add(CFA_XSP16, literal(-5)))
        CFI (cfiCond85) ?RET_HIGH load(1, XDATA, add(CFA_XSP16, literal(-4)))
        CFI (cfiCond85) ?BRET_EXT load(1, XDATA, add(CFA_XSP16, literal(-3)))
        CFI (cfiCond85) DPL0 load(1, XDATA, add(CFA_XSP16, literal(-2)))
        CFI (cfiCond85) DPH0 load(1, XDATA, add(CFA_XSP16, literal(-1)))
        CFI (cfiCond85) CFA_SP SP+0
        CFI (cfiCond85) CFA_XSP16 add(XSP16, 9)
        CFI Block cfiPicker86 Using cfiCommon1
        CFI (cfiPicker86) NoFunction
        CFI (cfiPicker86) Picker
        LCALL   ??Subroutine40_0 & 0xFFFF
??CrossCallReturnLabel_93:
        RET
        CFI EndBlock cfiCond75
        CFI EndBlock cfiCond76
        CFI EndBlock cfiCond77
        CFI EndBlock cfiCond78
        CFI EndBlock cfiCond79
        CFI EndBlock cfiCond80
        CFI EndBlock cfiCond81
        CFI EndBlock cfiCond82
        CFI EndBlock cfiCond83
        CFI EndBlock cfiCond84
        CFI EndBlock cfiCond85
        CFI EndBlock cfiPicker86

        RSEG BANKED_CODE:CODE:NOROOT(0)
?Subroutine15:
        CFI Block cfiCond87 Using cfiCommon0
        CFI NoFunction
        CFI Conditional ??CrossCallReturnLabel_16
        CFI R6 load(1, XDATA, add(CFA_XSP16, literal(-10)))
        CFI VB load(1, XDATA, add(CFA_XSP16, literal(-9)))
        CFI V0 load(1, XDATA, add(CFA_XSP16, literal(-8)))
        CFI V1 load(1, XDATA, add(CFA_XSP16, literal(-7)))
        CFI R7 load(1, XDATA, add(CFA_XSP16, literal(-6)))
        CFI ?RET_LOW load(1, XDATA, add(CFA_XSP16, literal(-5)))
        CFI ?RET_HIGH load(1, XDATA, add(CFA_XSP16, literal(-4)))
        CFI ?BRET_EXT load(1, XDATA, add(CFA_XSP16, literal(-3)))
        CFI DPL0 load(1, XDATA, add(CFA_XSP16, literal(-2)))
        CFI DPH0 load(1, XDATA, add(CFA_XSP16, literal(-1)))
        CFI CFA_SP SP+0
        CFI CFA_XSP16 add(XSP16, 10)
        CFI Block cfiCond88 Using cfiCommon0
        CFI (cfiCond88) NoFunction
        CFI (cfiCond88) Conditional ??CrossCallReturnLabel_17
        CFI (cfiCond88) R6 load(1, XDATA, add(CFA_XSP16, literal(-10)))
        CFI (cfiCond88) VB load(1, XDATA, add(CFA_XSP16, literal(-9)))
        CFI (cfiCond88) V0 load(1, XDATA, add(CFA_XSP16, literal(-8)))
        CFI (cfiCond88) V1 load(1, XDATA, add(CFA_XSP16, literal(-7)))
        CFI (cfiCond88) R7 load(1, XDATA, add(CFA_XSP16, literal(-6)))
        CFI (cfiCond88) ?RET_LOW load(1, XDATA, add(CFA_XSP16, literal(-5)))
        CFI (cfiCond88) ?RET_HIGH load(1, XDATA, add(CFA_XSP16, literal(-4)))
        CFI (cfiCond88) ?BRET_EXT load(1, XDATA, add(CFA_XSP16, literal(-3)))
        CFI (cfiCond88) DPL0 load(1, XDATA, add(CFA_XSP16, literal(-2)))
        CFI (cfiCond88) DPH0 load(1, XDATA, add(CFA_XSP16, literal(-1)))
        CFI (cfiCond88) CFA_SP SP+0
        CFI (cfiCond88) CFA_XSP16 add(XSP16, 10)
        CFI Block cfiPicker89 Using cfiCommon1
        CFI (cfiPicker89) NoFunction
        CFI (cfiPicker89) Picker
        LCALL   ?Subroutine25 & 0xFFFF
??CrossCallReturnLabel_96:
        MOV     A,#0x1
        MOVX    @DPTR,A
        MOV     A,R2
        RET
        CFI EndBlock cfiCond87
        CFI EndBlock cfiCond88
        CFI EndBlock cfiPicker89

        RSEG BANKED_CODE:CODE:NOROOT(0)
?Subroutine14:
        CFI Block cfiCond90 Using cfiCommon0
        CFI NoFunction
        CFI Conditional ??CrossCallReturnLabel_14
        CFI R6 load(1, XDATA, add(CFA_XSP16, literal(-10)))
        CFI VB load(1, XDATA, add(CFA_XSP16, literal(-9)))
        CFI V0 load(1, XDATA, add(CFA_XSP16, literal(-8)))
        CFI V1 load(1, XDATA, add(CFA_XSP16, literal(-7)))
        CFI R7 load(1, XDATA, add(CFA_XSP16, literal(-6)))
        CFI ?RET_LOW load(1, XDATA, add(CFA_XSP16, literal(-5)))
        CFI ?RET_HIGH load(1, XDATA, add(CFA_XSP16, literal(-4)))
        CFI ?BRET_EXT load(1, XDATA, add(CFA_XSP16, literal(-3)))
        CFI DPL0 load(1, XDATA, add(CFA_XSP16, literal(-2)))
        CFI DPH0 load(1, XDATA, add(CFA_XSP16, literal(-1)))
        CFI CFA_SP SP+0
        CFI CFA_XSP16 add(XSP16, 10)
        CFI Block cfiCond91 Using cfiCommon0
        CFI (cfiCond91) NoFunction
        CFI (cfiCond91) Conditional ??CrossCallReturnLabel_15
        CFI (cfiCond91) R6 load(1, XDATA, add(CFA_XSP16, literal(-10)))
        CFI (cfiCond91) VB load(1, XDATA, add(CFA_XSP16, literal(-9)))
        CFI (cfiCond91) V0 load(1, XDATA, add(CFA_XSP16, literal(-8)))
        CFI (cfiCond91) V1 load(1, XDATA, add(CFA_XSP16, literal(-7)))
        CFI (cfiCond91) R7 load(1, XDATA, add(CFA_XSP16, literal(-6)))
        CFI (cfiCond91) ?RET_LOW load(1, XDATA, add(CFA_XSP16, literal(-5)))
        CFI (cfiCond91) ?RET_HIGH load(1, XDATA, add(CFA_XSP16, literal(-4)))
        CFI (cfiCond91) ?BRET_EXT load(1, XDATA, add(CFA_XSP16, literal(-3)))
        CFI (cfiCond91) DPL0 load(1, XDATA, add(CFA_XSP16, literal(-2)))
        CFI (cfiCond91) DPH0 load(1, XDATA, add(CFA_XSP16, literal(-1)))
        CFI (cfiCond91) CFA_SP SP+0
        CFI (cfiCond91) CFA_XSP16 add(XSP16, 10)
        CFI Block cfiPicker92 Using cfiCommon1
        CFI (cfiPicker92) NoFunction
        CFI (cfiPicker92) Picker
        LCALL   ?Subroutine25 & 0xFFFF
??CrossCallReturnLabel_95:
        MOV     A,#??commonClusterId & 0xff
        MOVX    @DPTR,A
        INC     DPTR
        MOV     A,#(??commonClusterId >> 8) & 0xff
        MOVX    @DPTR,A
        MOV     A,R2
        RET
        CFI EndBlock cfiCond90
        CFI EndBlock cfiCond91
        CFI EndBlock cfiPicker92
//  165 

        RSEG BANKED_CODE:CODE:NOROOT(0)
//  166 static uint16 controlEpProcess(uint8 task_id, uint16 events)
controlEpProcess:
        CFI Block cfiBlock93 Using cfiCommon0
        CFI Function controlEpProcess
        CODE
//  167 {
        FUNCALL controlEpProcess, osal_msg_receive
        LOCFRAME ISTACK, 0, STACK
        LOCFRAME PSTACK, 0, STACK
        LOCFRAME XSTACK, 16, STACK
        LOCFRAME IOVERLAY, 0, STATIC
        LOCFRAME DOVERLAY, 0, STATIC
        ARGFRAME ISTACK, 0, STACK
        ARGFRAME PSTACK, 0, STACK
        ARGFRAME XSTACK, 16, STACK
        ARGFRAME IOVERLAY, 0, STATIC
        ARGFRAME DOVERLAY, 0, STATIC
        FUNCALL controlEpProcess, NLME_GetExtAddr
        LOCFRAME ISTACK, 0, STACK
        LOCFRAME PSTACK, 0, STACK
        LOCFRAME XSTACK, 18, STACK
        LOCFRAME IOVERLAY, 0, STATIC
        LOCFRAME DOVERLAY, 0, STATIC
        ARGFRAME ISTACK, 0, STACK
        ARGFRAME PSTACK, 0, STACK
        ARGFRAME XSTACK, 18, STACK
        ARGFRAME IOVERLAY, 0, STATIC
        ARGFRAME DOVERLAY, 0, STATIC
        FUNCALL controlEpProcess, memcpy
        LOCFRAME ISTACK, 0, STACK
        LOCFRAME PSTACK, 0, STACK
        LOCFRAME XSTACK, 18, STACK
        LOCFRAME IOVERLAY, 0, STATIC
        LOCFRAME DOVERLAY, 0, STATIC
        ARGFRAME ISTACK, 0, STACK
        ARGFRAME PSTACK, 0, STACK
        ARGFRAME XSTACK, 18, STACK
        ARGFRAME IOVERLAY, 0, STATIC
        ARGFRAME DOVERLAY, 0, STATIC
        FUNCALL controlEpProcess, NLME_GetCoordShortAddr
        LOCFRAME ISTACK, 0, STACK
        LOCFRAME PSTACK, 0, STACK
        LOCFRAME XSTACK, 16, STACK
        LOCFRAME IOVERLAY, 0, STATIC
        LOCFRAME DOVERLAY, 0, STATIC
        ARGFRAME ISTACK, 0, STACK
        ARGFRAME PSTACK, 0, STACK
        ARGFRAME XSTACK, 16, STACK
        ARGFRAME IOVERLAY, 0, STATIC
        ARGFRAME DOVERLAY, 0, STATIC
        FUNCALL controlEpProcess, SendData
        LOCFRAME ISTACK, 0, STACK
        LOCFRAME PSTACK, 0, STACK
        LOCFRAME XSTACK, 18, STACK
        LOCFRAME IOVERLAY, 0, STATIC
        LOCFRAME DOVERLAY, 0, STATIC
        ARGFRAME ISTACK, 0, STACK
        ARGFRAME PSTACK, 0, STACK
        ARGFRAME XSTACK, 18, STACK
        ARGFRAME IOVERLAY, 0, STATIC
        ARGFRAME DOVERLAY, 0, STATIC
        FUNCALL controlEpProcess, HalLedBlink
        LOCFRAME ISTACK, 0, STACK
        LOCFRAME PSTACK, 0, STACK
        LOCFRAME XSTACK, 16, STACK
        LOCFRAME IOVERLAY, 0, STATIC
        LOCFRAME DOVERLAY, 0, STATIC
        ARGFRAME ISTACK, 0, STACK
        ARGFRAME PSTACK, 0, STACK
        ARGFRAME XSTACK, 16, STACK
        ARGFRAME IOVERLAY, 0, STATIC
        ARGFRAME DOVERLAY, 0, STATIC
        FUNCALL controlEpProcess, osal_msg_deallocate
        LOCFRAME ISTACK, 0, STACK
        LOCFRAME PSTACK, 0, STACK
        LOCFRAME XSTACK, 16, STACK
        LOCFRAME IOVERLAY, 0, STATIC
        LOCFRAME DOVERLAY, 0, STATIC
        ARGFRAME ISTACK, 0, STACK
        ARGFRAME PSTACK, 0, STACK
        ARGFRAME XSTACK, 16, STACK
        ARGFRAME IOVERLAY, 0, STATIC
        ARGFRAME DOVERLAY, 0, STATIC
        FUNCALL controlEpProcess, osal_msg_receive
        LOCFRAME ISTACK, 0, STACK
        LOCFRAME PSTACK, 0, STACK
        LOCFRAME XSTACK, 16, STACK
        LOCFRAME IOVERLAY, 0, STATIC
        LOCFRAME DOVERLAY, 0, STATIC
        ARGFRAME ISTACK, 0, STACK
        ARGFRAME PSTACK, 0, STACK
        ARGFRAME XSTACK, 16, STACK
        ARGFRAME IOVERLAY, 0, STATIC
        ARGFRAME DOVERLAY, 0, STATIC
        FUNCALL controlEpProcess, SendData
        LOCFRAME ISTACK, 0, STACK
        LOCFRAME PSTACK, 0, STACK
        LOCFRAME XSTACK, 18, STACK
        LOCFRAME IOVERLAY, 0, STATIC
        LOCFRAME DOVERLAY, 0, STATIC
        ARGFRAME ISTACK, 0, STACK
        ARGFRAME PSTACK, 0, STACK
        ARGFRAME XSTACK, 18, STACK
        ARGFRAME IOVERLAY, 0, STATIC
        ARGFRAME DOVERLAY, 0, STATIC
        FUNCALL controlEpProcess, SendData
        LOCFRAME ISTACK, 0, STACK
        LOCFRAME PSTACK, 0, STACK
        LOCFRAME XSTACK, 18, STACK
        LOCFRAME IOVERLAY, 0, STATIC
        LOCFRAME DOVERLAY, 0, STATIC
        ARGFRAME ISTACK, 0, STACK
        ARGFRAME PSTACK, 0, STACK
        ARGFRAME XSTACK, 18, STACK
        ARGFRAME IOVERLAY, 0, STATIC
        ARGFRAME DOVERLAY, 0, STATIC
        FUNCALL controlEpProcess, SendData
        LOCFRAME ISTACK, 0, STACK
        LOCFRAME PSTACK, 0, STACK
        LOCFRAME XSTACK, 18, STACK
        LOCFRAME IOVERLAY, 0, STATIC
        LOCFRAME DOVERLAY, 0, STATIC
        ARGFRAME ISTACK, 0, STACK
        ARGFRAME PSTACK, 0, STACK
        ARGFRAME XSTACK, 18, STACK
        ARGFRAME IOVERLAY, 0, STATIC
        ARGFRAME DOVERLAY, 0, STATIC
        FUNCALL controlEpProcess, HalLedBlink
        LOCFRAME ISTACK, 0, STACK
        LOCFRAME PSTACK, 0, STACK
        LOCFRAME XSTACK, 16, STACK
        LOCFRAME IOVERLAY, 0, STATIC
        LOCFRAME DOVERLAY, 0, STATIC
        ARGFRAME ISTACK, 0, STACK
        ARGFRAME PSTACK, 0, STACK
        ARGFRAME XSTACK, 16, STACK
        ARGFRAME IOVERLAY, 0, STATIC
        ARGFRAME DOVERLAY, 0, STATIC
        FUNCALL controlEpProcess, osal_start_timerEx
        LOCFRAME ISTACK, 0, STACK
        LOCFRAME PSTACK, 0, STACK
        LOCFRAME XSTACK, 16, STACK
        LOCFRAME IOVERLAY, 0, STATIC
        LOCFRAME DOVERLAY, 0, STATIC
        ARGFRAME ISTACK, 0, STACK
        ARGFRAME PSTACK, 0, STACK
        ARGFRAME XSTACK, 16, STACK
        ARGFRAME IOVERLAY, 0, STATIC
        ARGFRAME DOVERLAY, 0, STATIC
        FUNCALL controlEpProcess, osal_stop_timerEx
        LOCFRAME ISTACK, 0, STACK
        LOCFRAME PSTACK, 0, STACK
        LOCFRAME XSTACK, 16, STACK
        LOCFRAME IOVERLAY, 0, STATIC
        LOCFRAME DOVERLAY, 0, STATIC
        ARGFRAME ISTACK, 0, STACK
        ARGFRAME PSTACK, 0, STACK
        ARGFRAME XSTACK, 16, STACK
        ARGFRAME IOVERLAY, 0, STATIC
        ARGFRAME DOVERLAY, 0, STATIC
        MOV     A,#-0xd
        LCALL   ?BANKED_ENTER_XDATA
        CFI DPH0 load(1, XDATA, add(CFA_XSP16, literal(-1)))
        CFI DPL0 load(1, XDATA, add(CFA_XSP16, literal(-2)))
        CFI ?BRET_EXT load(1, XDATA, add(CFA_XSP16, literal(-3)))
        CFI ?RET_HIGH load(1, XDATA, add(CFA_XSP16, literal(-4)))
        CFI ?RET_LOW load(1, XDATA, add(CFA_XSP16, literal(-5)))
        CFI R7 load(1, XDATA, add(CFA_XSP16, literal(-6)))
        CFI V4 load(1, XDATA, add(CFA_XSP16, literal(-7)))
        CFI V3 load(1, XDATA, add(CFA_XSP16, literal(-8)))
        CFI V2 load(1, XDATA, add(CFA_XSP16, literal(-9)))
        CFI V1 load(1, XDATA, add(CFA_XSP16, literal(-10)))
        CFI V0 load(1, XDATA, add(CFA_XSP16, literal(-11)))
        CFI VB load(1, XDATA, add(CFA_XSP16, literal(-12)))
        CFI R6 load(1, XDATA, add(CFA_XSP16, literal(-13)))
        CFI CFA_SP SP+0
        CFI CFA_XSP16 add(XSP16, 13)
        ; Saved register size: 13
        ; Auto size: 3
        MOV     A,#-0x3
        LCALL   ?ALLOC_XSTACK8
        CFI CFA_XSP16 add(XSP16, 16)
        MOV     ?V0 + 4,R1
        MOV     ?V0 + 2,R2
        MOV     ?V0 + 3,R3
//  168     afIncomingMSGPacket_t *MSGpkt;
//  169     //系统消息事件。
//  170     if ( events & SYS_EVENT_MSG )
        MOV     A,R3
        ANL     A,#0x80
        JNZ     $+5
        LJMP    ??controlEpProcess_0 & 0xFFFF
//  171     {
//  172         MSGpkt = (afIncomingMSGPacket_t *)osal_msg_receive(task_id);
        ; Setup parameters for call to function osal_msg_receive
        SJMP    ??controlEpProcess_1
//  173         while ( MSGpkt )
//  174         {                
//  175             switch ( MSGpkt->hdr.event )
//  176             {         
//  177 //#if defined(ZDO_COORDINATOR) 
//  178 #if defined(ZDO_COORDINATOR) || defined(PEER_ROUTER) || defined(PEER_COORD)              
//  179             case CMD_SERIAL_MSG:
//  180 //              SampleApp_UartMessage((uint8 *)MSGpkt);                                          
//  181                 uartMsgProcesser((uint8 *)MSGpkt);
//  182                 HalLedBlink( HAL_LED_1, 2, 50, 90 );
//  183                 break;
//  184 #endif
//  185             // Received when a messages is received (OTA) for this endpoint
//  186             case AF_INCOMING_MSG_CMD:
//  187             {               
//  188                 #if defined(PEER_ROUTER) || defined(PEER_COORD)
//  189                     HalUARTWrite(HAL_UART_PORT_0, &(MSGpkt->cmd.Data[0]), 2);
//  190                     break;
//  191                 #endif
//  192                 // TODO: QueryProfile or QueryTopo
//  193                 switch(MSGpkt->clusterId)
//  194                 {
//  195                 case SAPP_PERIODIC_CLUSTERID:
//  196                     switch(MSGpkt->cmd.Data[0])
//  197                     {
//  198                     case 0x01:
//  199                         // CtrlQueryProfile
//  200                         // 获取到数据包的来源地址来当做发送数据的目标
//  201                         SendData(CONTROL_ENDPOINT, funcTableBuffer->ft_data, MSGpkt->srcAddr.addr.shortAddr, MSGpkt->srcAddr.endPoint, sizeof(FUNCTABLE) + funcCount * sizeof(FUNCINFO));
//  202                         break;
//  203                     case 0x02:
//  204                         // CtrlQueryTopo
//  205                         // 获取到数据包的来源地址来当做发送数据的目标
//  206                         SendData(CONTROL_ENDPOINT, (unsigned char *)&topoBuffer, MSGpkt->srcAddr.addr.shortAddr, MSGpkt->srcAddr.endPoint, sizeof(TOPOINFO));                        
//  207                         break;
//  208                     case 0x03:
//  209                         // CtrlQuerySpecialFunction
//  210                         // cmd.Data[0] = 3, cmd.Data[1] = funcCode, cmd.Data[2] = funcID
//  211                         {
//  212                             uint8 i;
//  213                             for(i = 0; i < funcTableBuffer->ft_count; i++)
//  214                             {
//  215                                 if((funcTableBuffer->ft_list[i].type == MSGpkt->cmd.Data[1])
//  216                                    && (funcTableBuffer->ft_list[i].id == MSGpkt->cmd.Data[2]))
//  217                                 {
//  218                                     // 0x03, EndPoint, rCycle
//  219                                     uint8 specialFunc[3] = { 0x03, i + 1, funcTableBuffer->ft_list[i].cycle };
//  220                                     SendData(CONTROL_ENDPOINT, specialFunc, MSGpkt->srcAddr.addr.shortAddr, MSGpkt->srcAddr.endPoint, sizeof(specialFunc));
//  221                                     break;
//  222                                 }
//  223                             }
//  224                         }
//  225                         break;
//  226                     default:
//  227                         {
//  228                             int i;
//  229                             for(i = 0; i < funcCount; i++)
//  230                             {
//  231                                 struct ep_info_t *ep = &funcList[i];
//  232                                 if(ep->res_available)   (*ep->res_available)(ep, ResControlPkg, MSGpkt);
//  233                             }
//  234                         }
//  235                         break;
//  236                     }               
//  237                     HalLedBlink( HAL_LED_1, 1, 50, 250 );
//  238                     break;
//  239                 }
//  240                 break;
//  241             }
//  242             // Received whenever the device changes state in the network
//  243             case ZDO_STATE_CHANGE:
//  244             {
//  245                 devStates_t st = (devStates_t)(MSGpkt->hdr.status);
??controlEpProcess_2:
        INC     DPTR
        MOVX    A,@DPTR
        MOV     R0,A
//  246                 if ( (st == DEV_ZB_COORD)
//  247                         || (st == DEV_ROUTER)
//  248                         || (st == DEV_END_DEVICE) )
        MOV     A,#0x9
        XRL     A,R0
        JZ      ??controlEpProcess_3
        MOV     A,#0x7
        XRL     A,R0
        JZ      ??controlEpProcess_3
        MOV     A,#0x6
        XRL     A,R0
        JNZ     ??controlEpProcess_4
//  249                 {
//  250 //                  topoBuffer->type = 0x02;
//  251                     memcpy(topoBuffer.IEEE, NLME_GetExtAddr(), 8);
??controlEpProcess_3:
        ; Setup parameters for call to function memcpy
        MOV     ?V0 + 0,#0x8
        MOV     ?V0 + 1,#0x0
        MOV     R0,#?V0 + 0
        LCALL   ?PUSH_XSTACK_I_TWO
        CFI CFA_XSP16 add(XSP16, 18)
        ; Setup parameters for call to function NLME_GetExtAddr
        LCALL   ??NLME_GetExtAddr?relay
        MOV     A,R2
        MOV     R4,A
        MOV     A,R3
        MOV     R5,A
        MOV     R2,#(topoBuffer + 1) & 0xff
        MOV     R3,#((topoBuffer + 1) >> 8) & 0xff
        LCALL   ??memcpy?relay
        MOV     A,#0x2
        LCALL   ?DEALLOC_XSTACK8
        CFI CFA_XSP16 add(XSP16, 16)
//  252 #if !defined(ZDO_COORDINATOR)
//  253                     topoBuffer.PAddr = NLME_GetCoordShortAddr();
        ; Setup parameters for call to function NLME_GetCoordShortAddr
        LCALL   ??NLME_GetCoordShortAddr?relay
        MOV     DPTR,#topoBuffer + 9
        MOV     A,R2
        MOVX    @DPTR,A
        INC     DPTR
        MOV     A,R3
        MOVX    @DPTR,A
//  254 #else                                                             
//  255                     topoBuffer.PAddr = 0xFFFF;
//  256                     uint8 i,TxPower;
//  257                     uint16 SrcSaddr;
//  258                     uint8 *LongAddr;//物理地址
//  259                     //显示协调器的配置信息
//  260                     ClrScreen();                                               
//  261                     PutString_cn(24,0,"网络协调器");
//  262                     TxPower = TXPOWER;
//  263                     HalLcdWriteStringValue( "Send Power:",TxPower, 16, HAL_LCD_LINE_2);                                           
//  264                     SrcSaddr = NLME_GetShortAddr();
//  265                     HalLcdWriteStringValue( "Short Addr:",SrcSaddr, 16, HAL_LCD_LINE_3);
//  266                     LongAddr = NLME_GetExtAddr();  
//  267                     for(i=0;i<8;i++)
//  268                         PutAbyte(i*16,48,LongAddr[i]);                                                                                                                                                                                                
//  269                     for(i=0;i<30;i++){
//  270                         TimeDelay(60000);
//  271                     }
//  272                     ClrScreen();                                                                                               
//  273                     PutString_cn(24,0,"网络协调器");	
//  274                     PutString_cn(0,16,"---------------");	                                                
//  275                     PutString_cn(4,32,"网络已成功建立");	
//  276                     PutString_cn(4,48,"可接收节点加入");	
//  277                     
//  278 #endif
//  279                     //向协调器发送拓扑信息
//  280                     SendData(CONTROL_ENDPOINT, (unsigned char *)&topoBuffer, 0x0000, TRANSFER_ENDPOINT, sizeof(TOPOINFO));
        ; Setup parameters for call to function SendData
        MOV     ?V0 + 0,#0xb
        MOV     R0,#?V0 + 0
        LCALL   ?PUSH_XSTACK_I_ONE
        CFI CFA_XSP16 add(XSP16, 17)
        MOV     ?V0 + 0,#0x1
        MOV     R0,#?V0 + 0
        LCALL   ?PUSH_XSTACK_I_ONE
        CFI CFA_XSP16 add(XSP16, 18)
        MOV     R4,#0x0
        MOV     R5,#0x0
        MOV     R2,#topoBuffer & 0xff
        MOV     R3,#(topoBuffer >> 8) & 0xff
??controlEpProcess_5:
        MOV     R1,#-0x10
        LCALL   ??SendData?relay
        MOV     A,#0x2
        LCALL   ?DEALLOC_XSTACK8
        CFI CFA_XSP16 add(XSP16, 16)
//  281                     HalLedBlink( HAL_LED_1, 1, 50, 250 );
        ; Setup parameters for call to function HalLedBlink
??controlEpProcess_6:
        MOV     R4,#-0x6
        MOV     R5,#0x0
        MOV     R3,#0x32
        MOV     R2,#0x1
        MOV     R1,#0x1
        LCALL   ??HalLedBlink?relay
//  282                 }
//  283             }
//  284             break;
//  285             default:
//  286                 break;
//  287             }
//  288             // Release the memory
//  289             osal_msg_deallocate( (uint8 *)MSGpkt );
??controlEpProcess_4:
        ; Setup parameters for call to function osal_msg_deallocate
        MOV     A,R6
        MOV     R2,A
        MOV     A,R7
        MOV     R3,A
        LCALL   ??osal_msg_deallocate?relay
//  290             // Next - if one is available
//  291             MSGpkt = (afIncomingMSGPacket_t *)osal_msg_receive( task_id );
        ; Setup parameters for call to function osal_msg_receive
        MOV     R1,?V0 + 4
??controlEpProcess_1:
        LCALL   ??osal_msg_receive?relay
        MOV     ?V0 + 0,R2
        MOV     ?V0 + 1,R3
        MOV     R6,?V0 + 0
        MOV     R7,?V0 + 1
        MOV     A,R6
        ORL     A,R7
        JNZ     $+5
        LJMP    ??controlEpProcess_7 & 0xFFFF
        MOV     DPL,R6
        MOV     DPH,R7
        MOVX    A,@DPTR
        ADD     A,#-0x1a
        JZ      ??controlEpProcess_8
        ADD     A,#0x49
        JNZ     $+5
        LJMP    ??controlEpProcess_2 & 0xFFFF
        SJMP    ??controlEpProcess_4
??controlEpProcess_8:
        INC     DPTR
        INC     DPTR
        INC     DPTR
        INC     DPTR
        MOVX    A,@DPTR
        XRL     A,#0x1
        JNZ     ??controlEpProcess_9
        INC     DPTR
        MOVX    A,@DPTR
??controlEpProcess_9:
        JNZ     ??controlEpProcess_4
        MOV     A,R6
        ADD     A,#0x22
        MOV     DPL,A
        MOV     A,R7
        LCALL   ??Subroutine35_0 & 0xFFFF
??CrossCallReturnLabel_53:
        LCALL   ??Subroutine36_0 & 0xFFFF
??CrossCallReturnLabel_67:
        MOVX    A,@DPTR
        DEC     A
        JZ      ??controlEpProcess_10
        DEC     A
        JZ      ??controlEpProcess_11
        DEC     A
        JZ      ??controlEpProcess_12
        LJMP    ??controlEpProcess_13 & 0xFFFF
??controlEpProcess_10:
        ; Setup parameters for call to function SendData
        MOV     B,#0x3
        MOV     DPTR,#funcCount
        MOVX    A,@DPTR
        MUL     AB
        ADD     A,#0x2
        MOV     ?V0 + 0,A
        MOV     R0,#?V0 + 0
        LCALL   ?PUSH_XSTACK_I_ONE
        CFI CFA_XSP16 add(XSP16, 17)
        LCALL   ?Subroutine11 & 0xFFFF
??CrossCallReturnLabel_11:
        LCALL   ?PUSH_XSTACK_I_ONE
        CFI CFA_XSP16 add(XSP16, 18)
        LCALL   ?Subroutine9 & 0xFFFF
??CrossCallReturnLabel_84:
        MOV     DPTR,#funcTableBuffer
        MOVX    A,@DPTR
        MOV     R2,A
        INC     DPTR
        MOVX    A,@DPTR
        MOV     R3,A
??controlEpProcess_14:
        LJMP    ??controlEpProcess_5 & 0xFFFF
        CFI CFA_XSP16 add(XSP16, 16)
??controlEpProcess_11:
        ; Setup parameters for call to function SendData
        MOV     ?V0 + 0,#0xb
        MOV     R0,#?V0 + 0
        LCALL   ?PUSH_XSTACK_I_ONE
        CFI CFA_XSP16 add(XSP16, 17)
        LCALL   ?Subroutine11 & 0xFFFF
??CrossCallReturnLabel_12:
        LCALL   ?PUSH_XSTACK_I_ONE
        CFI CFA_XSP16 add(XSP16, 18)
        LCALL   ?Subroutine9 & 0xFFFF
??CrossCallReturnLabel_85:
        MOV     R2,#topoBuffer & 0xff
        MOV     R3,#(topoBuffer >> 8) & 0xff
        SJMP    ??controlEpProcess_14
        CFI CFA_XSP16 add(XSP16, 16)
??controlEpProcess_12:
        MOV     R3,#0x0
        SJMP    ??controlEpProcess_15
??controlEpProcess_16:
        INC     R3
??controlEpProcess_15:
        LCALL   ?Subroutine6 & 0xFFFF
??CrossCallReturnLabel_73:
        INC     DPTR
        MOVX    A,@DPTR
        MOV     R0,A
        MOV     A,R3
        CLR     C
        SUBB    A,R0
        JC      $+5
        LJMP    ??controlEpProcess_6 & 0xFFFF
        MOV     A,R3
        MOV     B,#0x3
        MUL     AB
        MOV     R0,A
        MOV     R1,B
        LCALL   ?Subroutine24 & 0xFFFF
??CrossCallReturnLabel_31:
        LCALL   ?Subroutine5 & 0xFFFF
??CrossCallReturnLabel_3:
        MOVX    A,@DPTR
        XRL     A,R0
        JNZ     ??controlEpProcess_16
        MOV     A,R3
        MOV     B,#0x3
        MUL     AB
        MOV     R0,A
        MOV     R1,B
        MOV     DPTR,#funcTableBuffer
        MOVX    A,@DPTR
        ADD     A,R0
        INC     DPTR
        MOVX    A,@DPTR
        ADDC    A,R1
        MOV     DPL,R2
        MOV     DPH,A
        INC     DPTR
        LCALL   ?Subroutine5 & 0xFFFF
??CrossCallReturnLabel_4:
        INC     DPTR
        MOVX    A,@DPTR
        XRL     A,R0
        JNZ     ??controlEpProcess_16
        MOV     DPL,?XSP + 0
        MOV     DPH,?XSP + 1
        MOV     R4,DPL
        MOV     R5,DPH
        MOV     DPH,#(`?<Constant {3, 0, 0}>` >> 8) & 0xff
        MOV     DPL,#`?<Constant {3, 0, 0}>` & 0xff
        MOV     A,#0x3
        LCALL   ?MOVE_LONG8_XDATA_XDATA
        INC     A
        ADD     A,R3
        PUSH    A
        CFI CFA_SP SP+-1
        MOV     A,#0x1
        LCALL   ?XSTACK_DISP0_8
        POP     A
        CFI CFA_SP SP+0
        MOVX    @DPTR,A
        MOV     A,R3
        MOV     B,#0x3
        MUL     AB
        MOV     R0,A
        MOV     R1,B
        LCALL   ?Subroutine8 & 0xFFFF
??CrossCallReturnLabel_8:
        MOVX    A,@DPTR
        PUSH    A
        CFI CFA_SP SP+-1
        MOV     A,#0x2
        LCALL   ?XSTACK_DISP0_8
        POP     A
        CFI CFA_SP SP+0
        MOVX    @DPTR,A
        ; Setup parameters for call to function SendData
        MOV     ?V0 + 0,#0x3
        MOV     R0,#?V0 + 0
        LCALL   ?PUSH_XSTACK_I_ONE
        CFI CFA_XSP16 add(XSP16, 17)
        LCALL   ?Subroutine11 & 0xFFFF
??CrossCallReturnLabel_13:
        LCALL   ?PUSH_XSTACK_I_ONE
        CFI CFA_XSP16 add(XSP16, 18)
        LCALL   ?Subroutine9 & 0xFFFF
??CrossCallReturnLabel_86:
        MOV     A,#0x2
        LCALL   ?XSTACK_DISP0_8
        MOV     R2,DPL
        MOV     R3,DPH
        LJMP    ??controlEpProcess_5 & 0xFFFF
        CFI CFA_XSP16 add(XSP16, 16)
??controlEpProcess_13:
        MOV     ?V0 + 0,#0x0
        MOV     ?V0 + 1,#0x0
        SJMP    ??CrossCallReturnLabel_27
??controlEpProcess_17:
        MOV     A,?V0 + 0
        MOV     B,#0x21
        MUL     AB
        MOV     R0,A
        MOV     R2,B
        MOV     B,#0x21
        MOV     A,?V0 + 1
        LCALL   ?Subroutine19 & 0xFFFF
??CrossCallReturnLabel_22:
        LCALL   ?Subroutine3 & 0xFFFF
??CrossCallReturnLabel_50:
        JZ      ??controlEpProcess_18
        ; Setup parameters for indirect call
        MOV     A,R6
        MOV     R4,A
        MOV     A,R7
        MOV     R5,A
        MOV     R1,#0x4
        MOV     DPL,R2
        MOV     DPH,R3
        INC     DPTR
        INC     DPTR
        INC     DPTR
        INC     DPTR
        INC     DPTR
        INC     DPTR
        LCALL   ??Subroutine37_0 & 0xFFFF
??CrossCallReturnLabel_65:
        LCALL   ?CALL_IND
??controlEpProcess_18:
        LCALL   ?Subroutine22 & 0xFFFF
??CrossCallReturnLabel_27:
        LCALL   ?Subroutine7 & 0xFFFF
??CrossCallReturnLabel_5:
        JC      ??controlEpProcess_17
        ; Setup parameters for call to function HalLedBlink
        LJMP    ??controlEpProcess_6 & 0xFFFF
//  292         }
//  293         // return unprocessed events
//  294         return (events ^ SYS_EVENT_MSG);  //返回当前任务待处理事件标志。
??controlEpProcess_7:
        MOV     R2,?V0 + 2
        MOV     A,?V0 + 3
        XRL     A,#0x80
        MOV     R3,A
        LJMP    ??controlEpProcess_19 & 0xFFFF
//  295     }
//  296     // 定时器时间到, 遍历所有端点看是否有userTimer
//  297     if(events & SAPP_SEND_PERIODIC_MSG_EVT)
??controlEpProcess_0:
        MOV     A,R2
        MOV     C,0xE0 /* A   */.0
        JC      $+5
        LJMP    ??controlEpProcess_20 & 0xFFFF
//  298     {
//  299         int i;
//  300         uint8 hasUserTimer = 0;
        MOV     ?V0 + 0,#0x0
//  301         for(i = 0; i < funcCount; i++)
        MOV     R6,#0x0
        MOV     R7,#0x0
        SJMP    ??CrossCallReturnLabel_26
//  302         {
//  303             struct ep_info_t *ep = &funcList[i];
??controlEpProcess_21:
        MOV     A,R6
        MOV     R0,A
        MOV     A,R7
        MOV     R1,A
        MOV     A,R0
        MOV     B,#0x21
        MUL     AB
        MOV     R0,A
        MOV     R2,B
        MOV     B,#0x21
        MOV     A,R1
        LCALL   ?Subroutine19 & 0xFFFF
//  304             if(ep->userTimer && ep->res_available)
??CrossCallReturnLabel_23:
        MOV     A,R2
        ADD     A,#0xe
        MOV     DPL,A
        MOV     A,R3
        LCALL   ??Subroutine39_0 & 0xFFFF
??CrossCallReturnLabel_74:
        JZ      ??controlEpProcess_22
        LCALL   ?Subroutine3 & 0xFFFF
??CrossCallReturnLabel_51:
        JZ      ??controlEpProcess_22
//  305             {
//  306                 hasUserTimer = 1;
        MOV     ?V0 + 0,#0x1
//  307                 ep->userTimer = ep->userTimer - 1;
        MOV     A,R2
        ADD     A,#0xe
        MOV     DPL,A
        MOV     A,R3
        LCALL   ??Subroutine39_0 & 0xFFFF
??CrossCallReturnLabel_75:
        DEC     A
        MOVX    @DPTR,A
//  308                 if(ep->userTimer <= 1)
        CLR     C
        SUBB    A,#0x2
        JNC     ??controlEpProcess_22
//  309                 {
//  310                     ep->userTimer = 0;
        CLR     A
        MOVX    @DPTR,A
//  311                     (*ep->res_available)(ep, ResUserTimer, NULL);
        ; Setup parameters for indirect call
        MOV     R4,A
        MOV     R5,A
        MOV     R1,#0x3
        MOV     DPL,R2
        MOV     DPH,R3
        INC     DPTR
        INC     DPTR
        INC     DPTR
        INC     DPTR
        INC     DPTR
        INC     DPTR
        LCALL   ??Subroutine36_0 & 0xFFFF
//  312                 }
//  313             }
//  314         }
??CrossCallReturnLabel_68:
        LCALL   ?CALL_IND
??controlEpProcess_22:
        LCALL   ?Subroutine21 & 0xFFFF
??CrossCallReturnLabel_26:
        LCALL   ?Subroutine4 & 0xFFFF
??CrossCallReturnLabel_2:
        JC      ??controlEpProcess_21
//  315         if(hasUserTimer)
        MOV     A,?V0 + 0
        MOV     C,0xE0 /* A   */.0
        JNC     ??controlEpProcess_23
//  316         {
//  317             // 重新启动定时器
//  318             osal_start_timerEx(task_id, SAPP_SEND_PERIODIC_MSG_EVT, 1000);
        ; Setup parameters for call to function osal_start_timerEx
        MOV     R4,#-0x18
        MOV     R5,#0x3
        MOV     R2,#0x1
        MOV     R3,#0x0
        MOV     R1,?V0 + 4
        LCALL   ??osal_start_timerEx?relay
        SJMP    ??controlEpProcess_24
//  319         }
//  320         else
//  321         {
//  322             isUserTimerRunning = 0;
??controlEpProcess_23:
        MOV     DPTR,#isUserTimerRunning
        CLR     A
        MOVX    @DPTR,A
//  323             osal_stop_timerEx(task_id, SAPP_SEND_PERIODIC_MSG_EVT);
        ; Setup parameters for call to function osal_stop_timerEx
        MOV     R2,#0x1
        MOV     R3,A
        MOV     R1,?V0 + 4
        LCALL   ??osal_stop_timerEx?relay
//  324         }
//  325         // return unprocessed events
//  326         return (events ^ SAPP_SEND_PERIODIC_MSG_EVT);
??controlEpProcess_24:
        MOV     A,?V0 + 2
        XRL     A,#0x1
        MOV     R2,A
        MOV     R3,?V0 + 3
        SJMP    ??controlEpProcess_19
//  327     }
//  328     // Discard unknown events
//  329     return 0;
??controlEpProcess_20:
        MOV     R2,#0x0
        MOV     R3,#0x0
??controlEpProcess_19:
        MOV     A,#0x3
        LCALL   ?DEALLOC_XSTACK8
        CFI CFA_XSP16 add(XSP16, 13)
        MOV     R7,#0x5
        LJMP    ?BANKED_LEAVE_XDATA
        CFI EndBlock cfiBlock93
//  330 }

        RSEG BANKED_CODE:CODE:NOROOT(0)
?Subroutine21:
        CFI Block cfiCond94 Using cfiCommon0
        CFI NoFunction
        CFI Conditional ??CrossCallReturnLabel_24
        CFI R6 load(1, XDATA, add(CFA_XSP16, literal(-10)))
        CFI VB load(1, XDATA, add(CFA_XSP16, literal(-9)))
        CFI V0 load(1, XDATA, add(CFA_XSP16, literal(-8)))
        CFI V1 load(1, XDATA, add(CFA_XSP16, literal(-7)))
        CFI R7 load(1, XDATA, add(CFA_XSP16, literal(-6)))
        CFI ?RET_LOW load(1, XDATA, add(CFA_XSP16, literal(-5)))
        CFI ?RET_HIGH load(1, XDATA, add(CFA_XSP16, literal(-4)))
        CFI ?BRET_EXT load(1, XDATA, add(CFA_XSP16, literal(-3)))
        CFI DPL0 load(1, XDATA, add(CFA_XSP16, literal(-2)))
        CFI DPH0 load(1, XDATA, add(CFA_XSP16, literal(-1)))
        CFI CFA_SP SP+0
        CFI CFA_XSP16 add(XSP16, 10)
        CFI Block cfiCond95 Using cfiCommon0
        CFI (cfiCond95) NoFunction
        CFI (cfiCond95) Conditional ??CrossCallReturnLabel_25
        CFI (cfiCond95) R6 load(1, XDATA, add(CFA_XSP16, literal(-10)))
        CFI (cfiCond95) VB load(1, XDATA, add(CFA_XSP16, literal(-9)))
        CFI (cfiCond95) V0 load(1, XDATA, add(CFA_XSP16, literal(-8)))
        CFI (cfiCond95) V1 load(1, XDATA, add(CFA_XSP16, literal(-7)))
        CFI (cfiCond95) R7 load(1, XDATA, add(CFA_XSP16, literal(-6)))
        CFI (cfiCond95) ?RET_LOW load(1, XDATA, add(CFA_XSP16, literal(-5)))
        CFI (cfiCond95) ?RET_HIGH load(1, XDATA, add(CFA_XSP16, literal(-4)))
        CFI (cfiCond95) ?BRET_EXT load(1, XDATA, add(CFA_XSP16, literal(-3)))
        CFI (cfiCond95) DPL0 load(1, XDATA, add(CFA_XSP16, literal(-2)))
        CFI (cfiCond95) DPH0 load(1, XDATA, add(CFA_XSP16, literal(-1)))
        CFI (cfiCond95) CFA_SP SP+0
        CFI (cfiCond95) CFA_XSP16 add(XSP16, 10)
        CFI Block cfiCond96 Using cfiCommon0
        CFI (cfiCond96) NoFunction
        CFI (cfiCond96) Conditional ??CrossCallReturnLabel_26
        CFI (cfiCond96) R6 load(1, XDATA, add(CFA_XSP16, literal(-13)))
        CFI (cfiCond96) VB load(1, XDATA, add(CFA_XSP16, literal(-12)))
        CFI (cfiCond96) V0 load(1, XDATA, add(CFA_XSP16, literal(-11)))
        CFI (cfiCond96) V1 load(1, XDATA, add(CFA_XSP16, literal(-10)))
        CFI (cfiCond96) V2 load(1, XDATA, add(CFA_XSP16, literal(-9)))
        CFI (cfiCond96) V3 load(1, XDATA, add(CFA_XSP16, literal(-8)))
        CFI (cfiCond96) V4 load(1, XDATA, add(CFA_XSP16, literal(-7)))
        CFI (cfiCond96) R7 load(1, XDATA, add(CFA_XSP16, literal(-6)))
        CFI (cfiCond96) ?RET_LOW load(1, XDATA, add(CFA_XSP16, literal(-5)))
        CFI (cfiCond96) ?RET_HIGH load(1, XDATA, add(CFA_XSP16, literal(-4)))
        CFI (cfiCond96) ?BRET_EXT load(1, XDATA, add(CFA_XSP16, literal(-3)))
        CFI (cfiCond96) DPL0 load(1, XDATA, add(CFA_XSP16, literal(-2)))
        CFI (cfiCond96) DPH0 load(1, XDATA, add(CFA_XSP16, literal(-1)))
        CFI (cfiCond96) CFA_SP SP+0
        CFI (cfiCond96) CFA_XSP16 add(XSP16, 16)
        CFI Block cfiPicker97 Using cfiCommon1
        CFI (cfiPicker97) NoFunction
        CFI (cfiPicker97) Picker
        MOV     A,R6
        ADD     A,#0x1
        INC     R6
        MOV     A,R7
        ADDC    A,#0x0
        MOV     R7,A
        RET
        CFI EndBlock cfiCond94
        CFI EndBlock cfiCond95
        CFI EndBlock cfiCond96
        CFI EndBlock cfiPicker97

        RSEG BANKED_CODE:CODE:NOROOT(0)
?Subroutine19:
        CFI Block cfiCond98 Using cfiCommon0
        CFI NoFunction
        CFI Conditional ??CrossCallReturnLabel_22
        CFI R6 load(1, XDATA, add(CFA_XSP16, literal(-13)))
        CFI VB load(1, XDATA, add(CFA_XSP16, literal(-12)))
        CFI V0 load(1, XDATA, add(CFA_XSP16, literal(-11)))
        CFI V1 load(1, XDATA, add(CFA_XSP16, literal(-10)))
        CFI V2 load(1, XDATA, add(CFA_XSP16, literal(-9)))
        CFI V3 load(1, XDATA, add(CFA_XSP16, literal(-8)))
        CFI V4 load(1, XDATA, add(CFA_XSP16, literal(-7)))
        CFI R7 load(1, XDATA, add(CFA_XSP16, literal(-6)))
        CFI ?RET_LOW load(1, XDATA, add(CFA_XSP16, literal(-5)))
        CFI ?RET_HIGH load(1, XDATA, add(CFA_XSP16, literal(-4)))
        CFI ?BRET_EXT load(1, XDATA, add(CFA_XSP16, literal(-3)))
        CFI DPL0 load(1, XDATA, add(CFA_XSP16, literal(-2)))
        CFI DPH0 load(1, XDATA, add(CFA_XSP16, literal(-1)))
        CFI CFA_SP SP+0
        CFI CFA_XSP16 add(XSP16, 16)
        CFI Block cfiCond99 Using cfiCommon0
        CFI (cfiCond99) NoFunction
        CFI (cfiCond99) Conditional ??CrossCallReturnLabel_23
        CFI (cfiCond99) R6 load(1, XDATA, add(CFA_XSP16, literal(-13)))
        CFI (cfiCond99) VB load(1, XDATA, add(CFA_XSP16, literal(-12)))
        CFI (cfiCond99) V0 load(1, XDATA, add(CFA_XSP16, literal(-11)))
        CFI (cfiCond99) V1 load(1, XDATA, add(CFA_XSP16, literal(-10)))
        CFI (cfiCond99) V2 load(1, XDATA, add(CFA_XSP16, literal(-9)))
        CFI (cfiCond99) V3 load(1, XDATA, add(CFA_XSP16, literal(-8)))
        CFI (cfiCond99) V4 load(1, XDATA, add(CFA_XSP16, literal(-7)))
        CFI (cfiCond99) R7 load(1, XDATA, add(CFA_XSP16, literal(-6)))
        CFI (cfiCond99) ?RET_LOW load(1, XDATA, add(CFA_XSP16, literal(-5)))
        CFI (cfiCond99) ?RET_HIGH load(1, XDATA, add(CFA_XSP16, literal(-4)))
        CFI (cfiCond99) ?BRET_EXT load(1, XDATA, add(CFA_XSP16, literal(-3)))
        CFI (cfiCond99) DPL0 load(1, XDATA, add(CFA_XSP16, literal(-2)))
        CFI (cfiCond99) DPH0 load(1, XDATA, add(CFA_XSP16, literal(-1)))
        CFI (cfiCond99) CFA_SP SP+0
        CFI (cfiCond99) CFA_XSP16 add(XSP16, 16)
        CFI Block cfiPicker100 Using cfiCommon1
        CFI (cfiPicker100) NoFunction
        CFI (cfiPicker100) Picker
        MUL     AB
        ADD     A,R2
        MOV     R1,A
        MOV     A,#funcList & 0xff
        ADD     A,R0
        MOV     R2,A
        MOV     A,#(funcList >> 8) & 0xff
        ADDC    A,R1
        MOV     R3,A
        RET
        CFI EndBlock cfiCond98
        CFI EndBlock cfiCond99
        CFI EndBlock cfiPicker100

        RSEG BANKED_CODE:CODE:NOROOT(0)
?Subroutine11:
        CFI Block cfiCond101 Using cfiCommon0
        CFI NoFunction
        CFI Conditional ??CrossCallReturnLabel_11
        CFI R6 load(1, XDATA, add(CFA_XSP16, literal(-13)))
        CFI VB load(1, XDATA, add(CFA_XSP16, literal(-12)))
        CFI V0 load(1, XDATA, add(CFA_XSP16, literal(-11)))
        CFI V1 load(1, XDATA, add(CFA_XSP16, literal(-10)))
        CFI V2 load(1, XDATA, add(CFA_XSP16, literal(-9)))
        CFI V3 load(1, XDATA, add(CFA_XSP16, literal(-8)))
        CFI V4 load(1, XDATA, add(CFA_XSP16, literal(-7)))
        CFI R7 load(1, XDATA, add(CFA_XSP16, literal(-6)))
        CFI ?RET_LOW load(1, XDATA, add(CFA_XSP16, literal(-5)))
        CFI ?RET_HIGH load(1, XDATA, add(CFA_XSP16, literal(-4)))
        CFI ?BRET_EXT load(1, XDATA, add(CFA_XSP16, literal(-3)))
        CFI DPL0 load(1, XDATA, add(CFA_XSP16, literal(-2)))
        CFI DPH0 load(1, XDATA, add(CFA_XSP16, literal(-1)))
        CFI CFA_SP SP+0
        CFI CFA_XSP16 add(XSP16, 17)
        CFI Block cfiCond102 Using cfiCommon0
        CFI (cfiCond102) NoFunction
        CFI (cfiCond102) Conditional ??CrossCallReturnLabel_12
        CFI (cfiCond102) R6 load(1, XDATA, add(CFA_XSP16, literal(-13)))
        CFI (cfiCond102) VB load(1, XDATA, add(CFA_XSP16, literal(-12)))
        CFI (cfiCond102) V0 load(1, XDATA, add(CFA_XSP16, literal(-11)))
        CFI (cfiCond102) V1 load(1, XDATA, add(CFA_XSP16, literal(-10)))
        CFI (cfiCond102) V2 load(1, XDATA, add(CFA_XSP16, literal(-9)))
        CFI (cfiCond102) V3 load(1, XDATA, add(CFA_XSP16, literal(-8)))
        CFI (cfiCond102) V4 load(1, XDATA, add(CFA_XSP16, literal(-7)))
        CFI (cfiCond102) R7 load(1, XDATA, add(CFA_XSP16, literal(-6)))
        CFI (cfiCond102) ?RET_LOW load(1, XDATA, add(CFA_XSP16, literal(-5)))
        CFI (cfiCond102) ?RET_HIGH load(1, XDATA, add(CFA_XSP16, literal(-4)))
        CFI (cfiCond102) ?BRET_EXT load(1, XDATA, add(CFA_XSP16, literal(-3)))
        CFI (cfiCond102) DPL0 load(1, XDATA, add(CFA_XSP16, literal(-2)))
        CFI (cfiCond102) DPH0 load(1, XDATA, add(CFA_XSP16, literal(-1)))
        CFI (cfiCond102) CFA_SP SP+0
        CFI (cfiCond102) CFA_XSP16 add(XSP16, 17)
        CFI Block cfiCond103 Using cfiCommon0
        CFI (cfiCond103) NoFunction
        CFI (cfiCond103) Conditional ??CrossCallReturnLabel_13
        CFI (cfiCond103) R6 load(1, XDATA, add(CFA_XSP16, literal(-13)))
        CFI (cfiCond103) VB load(1, XDATA, add(CFA_XSP16, literal(-12)))
        CFI (cfiCond103) V0 load(1, XDATA, add(CFA_XSP16, literal(-11)))
        CFI (cfiCond103) V1 load(1, XDATA, add(CFA_XSP16, literal(-10)))
        CFI (cfiCond103) V2 load(1, XDATA, add(CFA_XSP16, literal(-9)))
        CFI (cfiCond103) V3 load(1, XDATA, add(CFA_XSP16, literal(-8)))
        CFI (cfiCond103) V4 load(1, XDATA, add(CFA_XSP16, literal(-7)))
        CFI (cfiCond103) R7 load(1, XDATA, add(CFA_XSP16, literal(-6)))
        CFI (cfiCond103) ?RET_LOW load(1, XDATA, add(CFA_XSP16, literal(-5)))
        CFI (cfiCond103) ?RET_HIGH load(1, XDATA, add(CFA_XSP16, literal(-4)))
        CFI (cfiCond103) ?BRET_EXT load(1, XDATA, add(CFA_XSP16, literal(-3)))
        CFI (cfiCond103) DPL0 load(1, XDATA, add(CFA_XSP16, literal(-2)))
        CFI (cfiCond103) DPH0 load(1, XDATA, add(CFA_XSP16, literal(-1)))
        CFI (cfiCond103) CFA_SP SP+0
        CFI (cfiCond103) CFA_XSP16 add(XSP16, 17)
        CFI Block cfiPicker104 Using cfiCommon1
        CFI (cfiPicker104) NoFunction
        CFI (cfiPicker104) Picker
        MOV     A,R6
        ADD     A,#0xf
        MOV     DPL,A
        MOV     A,R7
        LCALL   ??Subroutine40_0 & 0xFFFF
??CrossCallReturnLabel_92:
        MOVX    A,@DPTR
        MOV     ?V0 + 0,A
        MOV     R0,#?V0 + 0
        RET
        CFI EndBlock cfiCond101
        CFI EndBlock cfiCond102
        CFI EndBlock cfiCond103
        CFI EndBlock cfiPicker104

        RSEG BANKED_CODE:CODE:NOROOT(0)
?Subroutine8:
        CFI Block cfiCond105 Using cfiCommon0
        CFI NoFunction
        CFI Conditional ??CrossCallReturnLabel_7
        CFI R6 load(1, XDATA, add(CFA_XSP16, literal(-10)))
        CFI VB load(1, XDATA, add(CFA_XSP16, literal(-9)))
        CFI V0 load(1, XDATA, add(CFA_XSP16, literal(-8)))
        CFI V1 load(1, XDATA, add(CFA_XSP16, literal(-7)))
        CFI R7 load(1, XDATA, add(CFA_XSP16, literal(-6)))
        CFI ?RET_LOW load(1, XDATA, add(CFA_XSP16, literal(-5)))
        CFI ?RET_HIGH load(1, XDATA, add(CFA_XSP16, literal(-4)))
        CFI ?BRET_EXT load(1, XDATA, add(CFA_XSP16, literal(-3)))
        CFI DPL0 load(1, XDATA, add(CFA_XSP16, literal(-2)))
        CFI DPH0 load(1, XDATA, add(CFA_XSP16, literal(-1)))
        CFI CFA_SP SP+-1
        CFI CFA_XSP16 add(XSP16, 10)
        CFI Block cfiCond106 Using cfiCommon0
        CFI (cfiCond106) NoFunction
        CFI (cfiCond106) Conditional ??CrossCallReturnLabel_8
        CFI (cfiCond106) R6 load(1, XDATA, add(CFA_XSP16, literal(-13)))
        CFI (cfiCond106) VB load(1, XDATA, add(CFA_XSP16, literal(-12)))
        CFI (cfiCond106) V0 load(1, XDATA, add(CFA_XSP16, literal(-11)))
        CFI (cfiCond106) V1 load(1, XDATA, add(CFA_XSP16, literal(-10)))
        CFI (cfiCond106) V2 load(1, XDATA, add(CFA_XSP16, literal(-9)))
        CFI (cfiCond106) V3 load(1, XDATA, add(CFA_XSP16, literal(-8)))
        CFI (cfiCond106) V4 load(1, XDATA, add(CFA_XSP16, literal(-7)))
        CFI (cfiCond106) R7 load(1, XDATA, add(CFA_XSP16, literal(-6)))
        CFI (cfiCond106) ?RET_LOW load(1, XDATA, add(CFA_XSP16, literal(-5)))
        CFI (cfiCond106) ?RET_HIGH load(1, XDATA, add(CFA_XSP16, literal(-4)))
        CFI (cfiCond106) ?BRET_EXT load(1, XDATA, add(CFA_XSP16, literal(-3)))
        CFI (cfiCond106) DPL0 load(1, XDATA, add(CFA_XSP16, literal(-2)))
        CFI (cfiCond106) DPH0 load(1, XDATA, add(CFA_XSP16, literal(-1)))
        CFI (cfiCond106) CFA_SP SP+0
        CFI (cfiCond106) CFA_XSP16 add(XSP16, 16)
        CFI Block cfiPicker107 Using cfiCommon1
        CFI (cfiPicker107) NoFunction
        CFI (cfiPicker107) Picker
        LCALL   ?Subroutine24 & 0xFFFF
??CrossCallReturnLabel_32:
        INC     DPTR
        INC     DPTR
        INC     DPTR
        INC     DPTR
        RET
        CFI EndBlock cfiCond105
        CFI EndBlock cfiCond106
        CFI EndBlock cfiPicker107

        RSEG BANKED_CODE:CODE:NOROOT(0)
?Subroutine24:
        CFI Block cfiCond108 Using cfiCommon0
        CFI NoFunction
        CFI Conditional ??CrossCallReturnLabel_31
        CFI R6 load(1, XDATA, add(CFA_XSP16, literal(-13)))
        CFI VB load(1, XDATA, add(CFA_XSP16, literal(-12)))
        CFI V0 load(1, XDATA, add(CFA_XSP16, literal(-11)))
        CFI V1 load(1, XDATA, add(CFA_XSP16, literal(-10)))
        CFI V2 load(1, XDATA, add(CFA_XSP16, literal(-9)))
        CFI V3 load(1, XDATA, add(CFA_XSP16, literal(-8)))
        CFI V4 load(1, XDATA, add(CFA_XSP16, literal(-7)))
        CFI R7 load(1, XDATA, add(CFA_XSP16, literal(-6)))
        CFI ?RET_LOW load(1, XDATA, add(CFA_XSP16, literal(-5)))
        CFI ?RET_HIGH load(1, XDATA, add(CFA_XSP16, literal(-4)))
        CFI ?BRET_EXT load(1, XDATA, add(CFA_XSP16, literal(-3)))
        CFI DPL0 load(1, XDATA, add(CFA_XSP16, literal(-2)))
        CFI DPH0 load(1, XDATA, add(CFA_XSP16, literal(-1)))
        CFI CFA_SP SP+0
        CFI CFA_XSP16 add(XSP16, 16)
        CFI Block cfiCond109 Using cfiCommon0
        CFI (cfiCond109) NoFunction
        CFI (cfiCond109) Conditional ??CrossCallReturnLabel_32, ??CrossCallReturnLabel_7
        CFI (cfiCond109) R6 load(1, XDATA, add(CFA_XSP16, literal(-10)))
        CFI (cfiCond109) VB load(1, XDATA, add(CFA_XSP16, literal(-9)))
        CFI (cfiCond109) V0 load(1, XDATA, add(CFA_XSP16, literal(-8)))
        CFI (cfiCond109) V1 load(1, XDATA, add(CFA_XSP16, literal(-7)))
        CFI (cfiCond109) R7 load(1, XDATA, add(CFA_XSP16, literal(-6)))
        CFI (cfiCond109) ?RET_LOW load(1, XDATA, add(CFA_XSP16, literal(-5)))
        CFI (cfiCond109) ?RET_HIGH load(1, XDATA, add(CFA_XSP16, literal(-4)))
        CFI (cfiCond109) ?BRET_EXT load(1, XDATA, add(CFA_XSP16, literal(-3)))
        CFI (cfiCond109) DPL0 load(1, XDATA, add(CFA_XSP16, literal(-2)))
        CFI (cfiCond109) DPH0 load(1, XDATA, add(CFA_XSP16, literal(-1)))
        CFI (cfiCond109) CFA_SP SP+-1
        CFI (cfiCond109) CFA_XSP16 add(XSP16, 10)
        CFI Block cfiCond110 Using cfiCommon0
        CFI (cfiCond110) NoFunction
        CFI (cfiCond110) Conditional ??CrossCallReturnLabel_32, ??CrossCallReturnLabel_8
        CFI (cfiCond110) R6 load(1, XDATA, add(CFA_XSP16, literal(-13)))
        CFI (cfiCond110) VB load(1, XDATA, add(CFA_XSP16, literal(-12)))
        CFI (cfiCond110) V0 load(1, XDATA, add(CFA_XSP16, literal(-11)))
        CFI (cfiCond110) V1 load(1, XDATA, add(CFA_XSP16, literal(-10)))
        CFI (cfiCond110) V2 load(1, XDATA, add(CFA_XSP16, literal(-9)))
        CFI (cfiCond110) V3 load(1, XDATA, add(CFA_XSP16, literal(-8)))
        CFI (cfiCond110) V4 load(1, XDATA, add(CFA_XSP16, literal(-7)))
        CFI (cfiCond110) R7 load(1, XDATA, add(CFA_XSP16, literal(-6)))
        CFI (cfiCond110) ?RET_LOW load(1, XDATA, add(CFA_XSP16, literal(-5)))
        CFI (cfiCond110) ?RET_HIGH load(1, XDATA, add(CFA_XSP16, literal(-4)))
        CFI (cfiCond110) ?BRET_EXT load(1, XDATA, add(CFA_XSP16, literal(-3)))
        CFI (cfiCond110) DPL0 load(1, XDATA, add(CFA_XSP16, literal(-2)))
        CFI (cfiCond110) DPH0 load(1, XDATA, add(CFA_XSP16, literal(-1)))
        CFI (cfiCond110) CFA_SP SP+0
        CFI (cfiCond110) CFA_XSP16 add(XSP16, 16)
        CFI Block cfiPicker111 Using cfiCommon1
        CFI (cfiPicker111) NoFunction
        CFI (cfiPicker111) Picker
        MOV     DPTR,#funcTableBuffer
        MOVX    A,@DPTR
        ADD     A,R0
        MOV     R2,A
        INC     DPTR
        MOVX    A,@DPTR
        ADDC    A,R1
        MOV     DPL,R2
        MOV     DPH,A
        RET
        CFI EndBlock cfiCond108
        CFI EndBlock cfiCond109
        CFI EndBlock cfiCond110
        CFI EndBlock cfiPicker111

        RSEG BANKED_CODE:CODE:NOROOT(0)
?Subroutine6:
        CFI Block cfiCond112 Using cfiCommon0
        CFI NoFunction
        CFI Conditional ??CrossCallReturnLabel_71
        CFI R6 load(1, XDATA, add(CFA_XSP16, literal(-10)))
        CFI VB load(1, XDATA, add(CFA_XSP16, literal(-9)))
        CFI V0 load(1, XDATA, add(CFA_XSP16, literal(-8)))
        CFI V1 load(1, XDATA, add(CFA_XSP16, literal(-7)))
        CFI R7 load(1, XDATA, add(CFA_XSP16, literal(-6)))
        CFI ?RET_LOW load(1, XDATA, add(CFA_XSP16, literal(-5)))
        CFI ?RET_HIGH load(1, XDATA, add(CFA_XSP16, literal(-4)))
        CFI ?BRET_EXT load(1, XDATA, add(CFA_XSP16, literal(-3)))
        CFI DPL0 load(1, XDATA, add(CFA_XSP16, literal(-2)))
        CFI DPH0 load(1, XDATA, add(CFA_XSP16, literal(-1)))
        CFI CFA_SP SP+0
        CFI CFA_XSP16 add(XSP16, 10)
        CFI Block cfiCond113 Using cfiCommon0
        CFI (cfiCond113) NoFunction
        CFI (cfiCond113) Conditional ??CrossCallReturnLabel_72
        CFI (cfiCond113) R6 load(1, XDATA, add(CFA_XSP16, literal(-10)))
        CFI (cfiCond113) VB load(1, XDATA, add(CFA_XSP16, literal(-9)))
        CFI (cfiCond113) V0 load(1, XDATA, add(CFA_XSP16, literal(-8)))
        CFI (cfiCond113) V1 load(1, XDATA, add(CFA_XSP16, literal(-7)))
        CFI (cfiCond113) R7 load(1, XDATA, add(CFA_XSP16, literal(-6)))
        CFI (cfiCond113) ?RET_LOW load(1, XDATA, add(CFA_XSP16, literal(-5)))
        CFI (cfiCond113) ?RET_HIGH load(1, XDATA, add(CFA_XSP16, literal(-4)))
        CFI (cfiCond113) ?BRET_EXT load(1, XDATA, add(CFA_XSP16, literal(-3)))
        CFI (cfiCond113) DPL0 load(1, XDATA, add(CFA_XSP16, literal(-2)))
        CFI (cfiCond113) DPH0 load(1, XDATA, add(CFA_XSP16, literal(-1)))
        CFI (cfiCond113) CFA_SP SP+-1
        CFI (cfiCond113) CFA_XSP16 add(XSP16, 10)
        CFI Block cfiCond114 Using cfiCommon0
        CFI (cfiCond114) NoFunction
        CFI (cfiCond114) Conditional ??CrossCallReturnLabel_73
        CFI (cfiCond114) R6 load(1, XDATA, add(CFA_XSP16, literal(-13)))
        CFI (cfiCond114) VB load(1, XDATA, add(CFA_XSP16, literal(-12)))
        CFI (cfiCond114) V0 load(1, XDATA, add(CFA_XSP16, literal(-11)))
        CFI (cfiCond114) V1 load(1, XDATA, add(CFA_XSP16, literal(-10)))
        CFI (cfiCond114) V2 load(1, XDATA, add(CFA_XSP16, literal(-9)))
        CFI (cfiCond114) V3 load(1, XDATA, add(CFA_XSP16, literal(-8)))
        CFI (cfiCond114) V4 load(1, XDATA, add(CFA_XSP16, literal(-7)))
        CFI (cfiCond114) R7 load(1, XDATA, add(CFA_XSP16, literal(-6)))
        CFI (cfiCond114) ?RET_LOW load(1, XDATA, add(CFA_XSP16, literal(-5)))
        CFI (cfiCond114) ?RET_HIGH load(1, XDATA, add(CFA_XSP16, literal(-4)))
        CFI (cfiCond114) ?BRET_EXT load(1, XDATA, add(CFA_XSP16, literal(-3)))
        CFI (cfiCond114) DPL0 load(1, XDATA, add(CFA_XSP16, literal(-2)))
        CFI (cfiCond114) DPH0 load(1, XDATA, add(CFA_XSP16, literal(-1)))
        CFI (cfiCond114) CFA_SP SP+0
        CFI (cfiCond114) CFA_XSP16 add(XSP16, 16)
        CFI Block cfiPicker115 Using cfiCommon1
        CFI (cfiPicker115) NoFunction
        CFI (cfiPicker115) Picker
        MOV     DPTR,#funcTableBuffer
        CFI EndBlock cfiCond112
        CFI EndBlock cfiCond113
        CFI EndBlock cfiCond114
        CFI EndBlock cfiPicker115
        REQUIRE ??Subroutine36_0
        ; // Fall through to label ??Subroutine36_0

        RSEG BANKED_CODE:CODE:NOROOT(0)
??Subroutine36_0:
        CFI Block cfiCond116 Using cfiCommon0
        CFI NoFunction
        CFI Conditional ??CrossCallReturnLabel_67
        CFI R6 load(1, XDATA, add(CFA_XSP16, literal(-13)))
        CFI VB load(1, XDATA, add(CFA_XSP16, literal(-12)))
        CFI V0 load(1, XDATA, add(CFA_XSP16, literal(-11)))
        CFI V1 load(1, XDATA, add(CFA_XSP16, literal(-10)))
        CFI V2 load(1, XDATA, add(CFA_XSP16, literal(-9)))
        CFI V3 load(1, XDATA, add(CFA_XSP16, literal(-8)))
        CFI V4 load(1, XDATA, add(CFA_XSP16, literal(-7)))
        CFI R7 load(1, XDATA, add(CFA_XSP16, literal(-6)))
        CFI ?RET_LOW load(1, XDATA, add(CFA_XSP16, literal(-5)))
        CFI ?RET_HIGH load(1, XDATA, add(CFA_XSP16, literal(-4)))
        CFI ?BRET_EXT load(1, XDATA, add(CFA_XSP16, literal(-3)))
        CFI DPL0 load(1, XDATA, add(CFA_XSP16, literal(-2)))
        CFI DPH0 load(1, XDATA, add(CFA_XSP16, literal(-1)))
        CFI CFA_SP SP+0
        CFI CFA_XSP16 add(XSP16, 16)
        CFI Block cfiCond117 Using cfiCommon0
        CFI (cfiCond117) NoFunction
        CFI (cfiCond117) Conditional ??CrossCallReturnLabel_68
        CFI (cfiCond117) R6 load(1, XDATA, add(CFA_XSP16, literal(-13)))
        CFI (cfiCond117) VB load(1, XDATA, add(CFA_XSP16, literal(-12)))
        CFI (cfiCond117) V0 load(1, XDATA, add(CFA_XSP16, literal(-11)))
        CFI (cfiCond117) V1 load(1, XDATA, add(CFA_XSP16, literal(-10)))
        CFI (cfiCond117) V2 load(1, XDATA, add(CFA_XSP16, literal(-9)))
        CFI (cfiCond117) V3 load(1, XDATA, add(CFA_XSP16, literal(-8)))
        CFI (cfiCond117) V4 load(1, XDATA, add(CFA_XSP16, literal(-7)))
        CFI (cfiCond117) R7 load(1, XDATA, add(CFA_XSP16, literal(-6)))
        CFI (cfiCond117) ?RET_LOW load(1, XDATA, add(CFA_XSP16, literal(-5)))
        CFI (cfiCond117) ?RET_HIGH load(1, XDATA, add(CFA_XSP16, literal(-4)))
        CFI (cfiCond117) ?BRET_EXT load(1, XDATA, add(CFA_XSP16, literal(-3)))
        CFI (cfiCond117) DPL0 load(1, XDATA, add(CFA_XSP16, literal(-2)))
        CFI (cfiCond117) DPH0 load(1, XDATA, add(CFA_XSP16, literal(-1)))
        CFI (cfiCond117) CFA_SP SP+0
        CFI (cfiCond117) CFA_XSP16 add(XSP16, 16)
        CFI Block cfiCond118 Using cfiCommon0
        CFI (cfiCond118) NoFunction
        CFI (cfiCond118) Conditional ??CrossCallReturnLabel_69
        CFI (cfiCond118) R6 load(1, XDATA, add(CFA_XSP16, literal(-18)))
        CFI (cfiCond118) VB load(1, XDATA, add(CFA_XSP16, literal(-17)))
        CFI (cfiCond118) V0 load(1, XDATA, add(CFA_XSP16, literal(-16)))
        CFI (cfiCond118) V1 load(1, XDATA, add(CFA_XSP16, literal(-15)))
        CFI (cfiCond118) V2 load(1, XDATA, add(CFA_XSP16, literal(-14)))
        CFI (cfiCond118) V3 load(1, XDATA, add(CFA_XSP16, literal(-13)))
        CFI (cfiCond118) V4 load(1, XDATA, add(CFA_XSP16, literal(-12)))
        CFI (cfiCond118) V5 load(1, XDATA, add(CFA_XSP16, literal(-11)))
        CFI (cfiCond118) V6 load(1, XDATA, add(CFA_XSP16, literal(-10)))
        CFI (cfiCond118) V7 load(1, XDATA, add(CFA_XSP16, literal(-9)))
        CFI (cfiCond118) V8 load(1, XDATA, add(CFA_XSP16, literal(-8)))
        CFI (cfiCond118) V9 load(1, XDATA, add(CFA_XSP16, literal(-7)))
        CFI (cfiCond118) R7 load(1, XDATA, add(CFA_XSP16, literal(-6)))
        CFI (cfiCond118) ?RET_LOW load(1, XDATA, add(CFA_XSP16, literal(-5)))
        CFI (cfiCond118) ?RET_HIGH load(1, XDATA, add(CFA_XSP16, literal(-4)))
        CFI (cfiCond118) ?BRET_EXT load(1, XDATA, add(CFA_XSP16, literal(-3)))
        CFI (cfiCond118) DPL0 load(1, XDATA, add(CFA_XSP16, literal(-2)))
        CFI (cfiCond118) DPH0 load(1, XDATA, add(CFA_XSP16, literal(-1)))
        CFI (cfiCond118) CFA_SP SP+0
        CFI (cfiCond118) CFA_XSP16 add(XSP16, 20)
        CFI Block cfiCond119 Using cfiCommon0
        CFI (cfiCond119) NoFunction
        CFI (cfiCond119) Conditional ??CrossCallReturnLabel_70
        CFI (cfiCond119) R6 load(1, XDATA, add(CFA_XSP16, literal(-18)))
        CFI (cfiCond119) VB load(1, XDATA, add(CFA_XSP16, literal(-17)))
        CFI (cfiCond119) V0 load(1, XDATA, add(CFA_XSP16, literal(-16)))
        CFI (cfiCond119) V1 load(1, XDATA, add(CFA_XSP16, literal(-15)))
        CFI (cfiCond119) V2 load(1, XDATA, add(CFA_XSP16, literal(-14)))
        CFI (cfiCond119) V3 load(1, XDATA, add(CFA_XSP16, literal(-13)))
        CFI (cfiCond119) V4 load(1, XDATA, add(CFA_XSP16, literal(-12)))
        CFI (cfiCond119) V5 load(1, XDATA, add(CFA_XSP16, literal(-11)))
        CFI (cfiCond119) V6 load(1, XDATA, add(CFA_XSP16, literal(-10)))
        CFI (cfiCond119) V7 load(1, XDATA, add(CFA_XSP16, literal(-9)))
        CFI (cfiCond119) V8 load(1, XDATA, add(CFA_XSP16, literal(-8)))
        CFI (cfiCond119) V9 load(1, XDATA, add(CFA_XSP16, literal(-7)))
        CFI (cfiCond119) R7 load(1, XDATA, add(CFA_XSP16, literal(-6)))
        CFI (cfiCond119) ?RET_LOW load(1, XDATA, add(CFA_XSP16, literal(-5)))
        CFI (cfiCond119) ?RET_HIGH load(1, XDATA, add(CFA_XSP16, literal(-4)))
        CFI (cfiCond119) ?BRET_EXT load(1, XDATA, add(CFA_XSP16, literal(-3)))
        CFI (cfiCond119) DPL0 load(1, XDATA, add(CFA_XSP16, literal(-2)))
        CFI (cfiCond119) DPH0 load(1, XDATA, add(CFA_XSP16, literal(-1)))
        CFI (cfiCond119) CFA_SP SP+0
        CFI (cfiCond119) CFA_XSP16 add(XSP16, 18)
        CFI Block cfiCond120 Using cfiCommon0
        CFI (cfiCond120) NoFunction
        CFI (cfiCond120) Conditional ??CrossCallReturnLabel_71
        CFI (cfiCond120) R6 load(1, XDATA, add(CFA_XSP16, literal(-10)))
        CFI (cfiCond120) VB load(1, XDATA, add(CFA_XSP16, literal(-9)))
        CFI (cfiCond120) V0 load(1, XDATA, add(CFA_XSP16, literal(-8)))
        CFI (cfiCond120) V1 load(1, XDATA, add(CFA_XSP16, literal(-7)))
        CFI (cfiCond120) R7 load(1, XDATA, add(CFA_XSP16, literal(-6)))
        CFI (cfiCond120) ?RET_LOW load(1, XDATA, add(CFA_XSP16, literal(-5)))
        CFI (cfiCond120) ?RET_HIGH load(1, XDATA, add(CFA_XSP16, literal(-4)))
        CFI (cfiCond120) ?BRET_EXT load(1, XDATA, add(CFA_XSP16, literal(-3)))
        CFI (cfiCond120) DPL0 load(1, XDATA, add(CFA_XSP16, literal(-2)))
        CFI (cfiCond120) DPH0 load(1, XDATA, add(CFA_XSP16, literal(-1)))
        CFI (cfiCond120) CFA_SP SP+0
        CFI (cfiCond120) CFA_XSP16 add(XSP16, 10)
        CFI Block cfiCond121 Using cfiCommon0
        CFI (cfiCond121) NoFunction
        CFI (cfiCond121) Conditional ??CrossCallReturnLabel_72
        CFI (cfiCond121) R6 load(1, XDATA, add(CFA_XSP16, literal(-10)))
        CFI (cfiCond121) VB load(1, XDATA, add(CFA_XSP16, literal(-9)))
        CFI (cfiCond121) V0 load(1, XDATA, add(CFA_XSP16, literal(-8)))
        CFI (cfiCond121) V1 load(1, XDATA, add(CFA_XSP16, literal(-7)))
        CFI (cfiCond121) R7 load(1, XDATA, add(CFA_XSP16, literal(-6)))
        CFI (cfiCond121) ?RET_LOW load(1, XDATA, add(CFA_XSP16, literal(-5)))
        CFI (cfiCond121) ?RET_HIGH load(1, XDATA, add(CFA_XSP16, literal(-4)))
        CFI (cfiCond121) ?BRET_EXT load(1, XDATA, add(CFA_XSP16, literal(-3)))
        CFI (cfiCond121) DPL0 load(1, XDATA, add(CFA_XSP16, literal(-2)))
        CFI (cfiCond121) DPH0 load(1, XDATA, add(CFA_XSP16, literal(-1)))
        CFI (cfiCond121) CFA_SP SP+-1
        CFI (cfiCond121) CFA_XSP16 add(XSP16, 10)
        CFI Block cfiCond122 Using cfiCommon0
        CFI (cfiCond122) NoFunction
        CFI (cfiCond122) Conditional ??CrossCallReturnLabel_73
        CFI (cfiCond122) R6 load(1, XDATA, add(CFA_XSP16, literal(-13)))
        CFI (cfiCond122) VB load(1, XDATA, add(CFA_XSP16, literal(-12)))
        CFI (cfiCond122) V0 load(1, XDATA, add(CFA_XSP16, literal(-11)))
        CFI (cfiCond122) V1 load(1, XDATA, add(CFA_XSP16, literal(-10)))
        CFI (cfiCond122) V2 load(1, XDATA, add(CFA_XSP16, literal(-9)))
        CFI (cfiCond122) V3 load(1, XDATA, add(CFA_XSP16, literal(-8)))
        CFI (cfiCond122) V4 load(1, XDATA, add(CFA_XSP16, literal(-7)))
        CFI (cfiCond122) R7 load(1, XDATA, add(CFA_XSP16, literal(-6)))
        CFI (cfiCond122) ?RET_LOW load(1, XDATA, add(CFA_XSP16, literal(-5)))
        CFI (cfiCond122) ?RET_HIGH load(1, XDATA, add(CFA_XSP16, literal(-4)))
        CFI (cfiCond122) ?BRET_EXT load(1, XDATA, add(CFA_XSP16, literal(-3)))
        CFI (cfiCond122) DPL0 load(1, XDATA, add(CFA_XSP16, literal(-2)))
        CFI (cfiCond122) DPH0 load(1, XDATA, add(CFA_XSP16, literal(-1)))
        CFI (cfiCond122) CFA_SP SP+0
        CFI (cfiCond122) CFA_XSP16 add(XSP16, 16)
        CFI Block cfiPicker123 Using cfiCommon1
        CFI (cfiPicker123) NoFunction
        CFI (cfiPicker123) Picker
        MOVX    A,@DPTR
        MOV     R0,A
        CFI EndBlock cfiCond116
        CFI EndBlock cfiCond117
        CFI EndBlock cfiCond118
        CFI EndBlock cfiCond119
        CFI EndBlock cfiCond120
        CFI EndBlock cfiCond121
        CFI EndBlock cfiCond122
        CFI EndBlock cfiPicker123
        REQUIRE ??Subroutine37_0
        ; // Fall through to label ??Subroutine37_0

        RSEG BANKED_CODE:CODE:NOROOT(0)
??Subroutine37_0:
        CFI Block cfiCond124 Using cfiCommon0
        CFI NoFunction
        CFI Conditional ??CrossCallReturnLabel_64
        CFI R6 load(1, XDATA, add(CFA_XSP16, literal(-10)))
        CFI VB load(1, XDATA, add(CFA_XSP16, literal(-9)))
        CFI V0 load(1, XDATA, add(CFA_XSP16, literal(-8)))
        CFI V1 load(1, XDATA, add(CFA_XSP16, literal(-7)))
        CFI R7 load(1, XDATA, add(CFA_XSP16, literal(-6)))
        CFI ?RET_LOW load(1, XDATA, add(CFA_XSP16, literal(-5)))
        CFI ?RET_HIGH load(1, XDATA, add(CFA_XSP16, literal(-4)))
        CFI ?BRET_EXT load(1, XDATA, add(CFA_XSP16, literal(-3)))
        CFI DPL0 load(1, XDATA, add(CFA_XSP16, literal(-2)))
        CFI DPH0 load(1, XDATA, add(CFA_XSP16, literal(-1)))
        CFI CFA_SP SP+0
        CFI CFA_XSP16 add(XSP16, 10)
        CFI Block cfiCond125 Using cfiCommon0
        CFI (cfiCond125) NoFunction
        CFI (cfiCond125) Conditional ??CrossCallReturnLabel_65
        CFI (cfiCond125) R6 load(1, XDATA, add(CFA_XSP16, literal(-13)))
        CFI (cfiCond125) VB load(1, XDATA, add(CFA_XSP16, literal(-12)))
        CFI (cfiCond125) V0 load(1, XDATA, add(CFA_XSP16, literal(-11)))
        CFI (cfiCond125) V1 load(1, XDATA, add(CFA_XSP16, literal(-10)))
        CFI (cfiCond125) V2 load(1, XDATA, add(CFA_XSP16, literal(-9)))
        CFI (cfiCond125) V3 load(1, XDATA, add(CFA_XSP16, literal(-8)))
        CFI (cfiCond125) V4 load(1, XDATA, add(CFA_XSP16, literal(-7)))
        CFI (cfiCond125) R7 load(1, XDATA, add(CFA_XSP16, literal(-6)))
        CFI (cfiCond125) ?RET_LOW load(1, XDATA, add(CFA_XSP16, literal(-5)))
        CFI (cfiCond125) ?RET_HIGH load(1, XDATA, add(CFA_XSP16, literal(-4)))
        CFI (cfiCond125) ?BRET_EXT load(1, XDATA, add(CFA_XSP16, literal(-3)))
        CFI (cfiCond125) DPL0 load(1, XDATA, add(CFA_XSP16, literal(-2)))
        CFI (cfiCond125) DPH0 load(1, XDATA, add(CFA_XSP16, literal(-1)))
        CFI (cfiCond125) CFA_SP SP+0
        CFI (cfiCond125) CFA_XSP16 add(XSP16, 16)
        CFI Block cfiCond126 Using cfiCommon0
        CFI (cfiCond126) NoFunction
        CFI (cfiCond126) Conditional ??CrossCallReturnLabel_66
        CFI (cfiCond126) R6 load(1, XDATA, add(CFA_XSP16, literal(-18)))
        CFI (cfiCond126) VB load(1, XDATA, add(CFA_XSP16, literal(-17)))
        CFI (cfiCond126) V0 load(1, XDATA, add(CFA_XSP16, literal(-16)))
        CFI (cfiCond126) V1 load(1, XDATA, add(CFA_XSP16, literal(-15)))
        CFI (cfiCond126) V2 load(1, XDATA, add(CFA_XSP16, literal(-14)))
        CFI (cfiCond126) V3 load(1, XDATA, add(CFA_XSP16, literal(-13)))
        CFI (cfiCond126) V4 load(1, XDATA, add(CFA_XSP16, literal(-12)))
        CFI (cfiCond126) V5 load(1, XDATA, add(CFA_XSP16, literal(-11)))
        CFI (cfiCond126) V6 load(1, XDATA, add(CFA_XSP16, literal(-10)))
        CFI (cfiCond126) V7 load(1, XDATA, add(CFA_XSP16, literal(-9)))
        CFI (cfiCond126) V8 load(1, XDATA, add(CFA_XSP16, literal(-8)))
        CFI (cfiCond126) V9 load(1, XDATA, add(CFA_XSP16, literal(-7)))
        CFI (cfiCond126) R7 load(1, XDATA, add(CFA_XSP16, literal(-6)))
        CFI (cfiCond126) ?RET_LOW load(1, XDATA, add(CFA_XSP16, literal(-5)))
        CFI (cfiCond126) ?RET_HIGH load(1, XDATA, add(CFA_XSP16, literal(-4)))
        CFI (cfiCond126) ?BRET_EXT load(1, XDATA, add(CFA_XSP16, literal(-3)))
        CFI (cfiCond126) DPL0 load(1, XDATA, add(CFA_XSP16, literal(-2)))
        CFI (cfiCond126) DPH0 load(1, XDATA, add(CFA_XSP16, literal(-1)))
        CFI (cfiCond126) CFA_SP SP+0
        CFI (cfiCond126) CFA_XSP16 add(XSP16, 18)
        CFI Block cfiCond127 Using cfiCommon0
        CFI (cfiCond127) NoFunction
        CFI (cfiCond127) Conditional ??CrossCallReturnLabel_67
        CFI (cfiCond127) R6 load(1, XDATA, add(CFA_XSP16, literal(-13)))
        CFI (cfiCond127) VB load(1, XDATA, add(CFA_XSP16, literal(-12)))
        CFI (cfiCond127) V0 load(1, XDATA, add(CFA_XSP16, literal(-11)))
        CFI (cfiCond127) V1 load(1, XDATA, add(CFA_XSP16, literal(-10)))
        CFI (cfiCond127) V2 load(1, XDATA, add(CFA_XSP16, literal(-9)))
        CFI (cfiCond127) V3 load(1, XDATA, add(CFA_XSP16, literal(-8)))
        CFI (cfiCond127) V4 load(1, XDATA, add(CFA_XSP16, literal(-7)))
        CFI (cfiCond127) R7 load(1, XDATA, add(CFA_XSP16, literal(-6)))
        CFI (cfiCond127) ?RET_LOW load(1, XDATA, add(CFA_XSP16, literal(-5)))
        CFI (cfiCond127) ?RET_HIGH load(1, XDATA, add(CFA_XSP16, literal(-4)))
        CFI (cfiCond127) ?BRET_EXT load(1, XDATA, add(CFA_XSP16, literal(-3)))
        CFI (cfiCond127) DPL0 load(1, XDATA, add(CFA_XSP16, literal(-2)))
        CFI (cfiCond127) DPH0 load(1, XDATA, add(CFA_XSP16, literal(-1)))
        CFI (cfiCond127) CFA_SP SP+0
        CFI (cfiCond127) CFA_XSP16 add(XSP16, 16)
        CFI Block cfiCond128 Using cfiCommon0
        CFI (cfiCond128) NoFunction
        CFI (cfiCond128) Conditional ??CrossCallReturnLabel_68
        CFI (cfiCond128) R6 load(1, XDATA, add(CFA_XSP16, literal(-13)))
        CFI (cfiCond128) VB load(1, XDATA, add(CFA_XSP16, literal(-12)))
        CFI (cfiCond128) V0 load(1, XDATA, add(CFA_XSP16, literal(-11)))
        CFI (cfiCond128) V1 load(1, XDATA, add(CFA_XSP16, literal(-10)))
        CFI (cfiCond128) V2 load(1, XDATA, add(CFA_XSP16, literal(-9)))
        CFI (cfiCond128) V3 load(1, XDATA, add(CFA_XSP16, literal(-8)))
        CFI (cfiCond128) V4 load(1, XDATA, add(CFA_XSP16, literal(-7)))
        CFI (cfiCond128) R7 load(1, XDATA, add(CFA_XSP16, literal(-6)))
        CFI (cfiCond128) ?RET_LOW load(1, XDATA, add(CFA_XSP16, literal(-5)))
        CFI (cfiCond128) ?RET_HIGH load(1, XDATA, add(CFA_XSP16, literal(-4)))
        CFI (cfiCond128) ?BRET_EXT load(1, XDATA, add(CFA_XSP16, literal(-3)))
        CFI (cfiCond128) DPL0 load(1, XDATA, add(CFA_XSP16, literal(-2)))
        CFI (cfiCond128) DPH0 load(1, XDATA, add(CFA_XSP16, literal(-1)))
        CFI (cfiCond128) CFA_SP SP+0
        CFI (cfiCond128) CFA_XSP16 add(XSP16, 16)
        CFI Block cfiCond129 Using cfiCommon0
        CFI (cfiCond129) NoFunction
        CFI (cfiCond129) Conditional ??CrossCallReturnLabel_69
        CFI (cfiCond129) R6 load(1, XDATA, add(CFA_XSP16, literal(-18)))
        CFI (cfiCond129) VB load(1, XDATA, add(CFA_XSP16, literal(-17)))
        CFI (cfiCond129) V0 load(1, XDATA, add(CFA_XSP16, literal(-16)))
        CFI (cfiCond129) V1 load(1, XDATA, add(CFA_XSP16, literal(-15)))
        CFI (cfiCond129) V2 load(1, XDATA, add(CFA_XSP16, literal(-14)))
        CFI (cfiCond129) V3 load(1, XDATA, add(CFA_XSP16, literal(-13)))
        CFI (cfiCond129) V4 load(1, XDATA, add(CFA_XSP16, literal(-12)))
        CFI (cfiCond129) V5 load(1, XDATA, add(CFA_XSP16, literal(-11)))
        CFI (cfiCond129) V6 load(1, XDATA, add(CFA_XSP16, literal(-10)))
        CFI (cfiCond129) V7 load(1, XDATA, add(CFA_XSP16, literal(-9)))
        CFI (cfiCond129) V8 load(1, XDATA, add(CFA_XSP16, literal(-8)))
        CFI (cfiCond129) V9 load(1, XDATA, add(CFA_XSP16, literal(-7)))
        CFI (cfiCond129) R7 load(1, XDATA, add(CFA_XSP16, literal(-6)))
        CFI (cfiCond129) ?RET_LOW load(1, XDATA, add(CFA_XSP16, literal(-5)))
        CFI (cfiCond129) ?RET_HIGH load(1, XDATA, add(CFA_XSP16, literal(-4)))
        CFI (cfiCond129) ?BRET_EXT load(1, XDATA, add(CFA_XSP16, literal(-3)))
        CFI (cfiCond129) DPL0 load(1, XDATA, add(CFA_XSP16, literal(-2)))
        CFI (cfiCond129) DPH0 load(1, XDATA, add(CFA_XSP16, literal(-1)))
        CFI (cfiCond129) CFA_SP SP+0
        CFI (cfiCond129) CFA_XSP16 add(XSP16, 20)
        CFI Block cfiCond130 Using cfiCommon0
        CFI (cfiCond130) NoFunction
        CFI (cfiCond130) Conditional ??CrossCallReturnLabel_70
        CFI (cfiCond130) R6 load(1, XDATA, add(CFA_XSP16, literal(-18)))
        CFI (cfiCond130) VB load(1, XDATA, add(CFA_XSP16, literal(-17)))
        CFI (cfiCond130) V0 load(1, XDATA, add(CFA_XSP16, literal(-16)))
        CFI (cfiCond130) V1 load(1, XDATA, add(CFA_XSP16, literal(-15)))
        CFI (cfiCond130) V2 load(1, XDATA, add(CFA_XSP16, literal(-14)))
        CFI (cfiCond130) V3 load(1, XDATA, add(CFA_XSP16, literal(-13)))
        CFI (cfiCond130) V4 load(1, XDATA, add(CFA_XSP16, literal(-12)))
        CFI (cfiCond130) V5 load(1, XDATA, add(CFA_XSP16, literal(-11)))
        CFI (cfiCond130) V6 load(1, XDATA, add(CFA_XSP16, literal(-10)))
        CFI (cfiCond130) V7 load(1, XDATA, add(CFA_XSP16, literal(-9)))
        CFI (cfiCond130) V8 load(1, XDATA, add(CFA_XSP16, literal(-8)))
        CFI (cfiCond130) V9 load(1, XDATA, add(CFA_XSP16, literal(-7)))
        CFI (cfiCond130) R7 load(1, XDATA, add(CFA_XSP16, literal(-6)))
        CFI (cfiCond130) ?RET_LOW load(1, XDATA, add(CFA_XSP16, literal(-5)))
        CFI (cfiCond130) ?RET_HIGH load(1, XDATA, add(CFA_XSP16, literal(-4)))
        CFI (cfiCond130) ?BRET_EXT load(1, XDATA, add(CFA_XSP16, literal(-3)))
        CFI (cfiCond130) DPL0 load(1, XDATA, add(CFA_XSP16, literal(-2)))
        CFI (cfiCond130) DPH0 load(1, XDATA, add(CFA_XSP16, literal(-1)))
        CFI (cfiCond130) CFA_SP SP+0
        CFI (cfiCond130) CFA_XSP16 add(XSP16, 18)
        CFI Block cfiCond131 Using cfiCommon0
        CFI (cfiCond131) NoFunction
        CFI (cfiCond131) Conditional ??CrossCallReturnLabel_71
        CFI (cfiCond131) R6 load(1, XDATA, add(CFA_XSP16, literal(-10)))
        CFI (cfiCond131) VB load(1, XDATA, add(CFA_XSP16, literal(-9)))
        CFI (cfiCond131) V0 load(1, XDATA, add(CFA_XSP16, literal(-8)))
        CFI (cfiCond131) V1 load(1, XDATA, add(CFA_XSP16, literal(-7)))
        CFI (cfiCond131) R7 load(1, XDATA, add(CFA_XSP16, literal(-6)))
        CFI (cfiCond131) ?RET_LOW load(1, XDATA, add(CFA_XSP16, literal(-5)))
        CFI (cfiCond131) ?RET_HIGH load(1, XDATA, add(CFA_XSP16, literal(-4)))
        CFI (cfiCond131) ?BRET_EXT load(1, XDATA, add(CFA_XSP16, literal(-3)))
        CFI (cfiCond131) DPL0 load(1, XDATA, add(CFA_XSP16, literal(-2)))
        CFI (cfiCond131) DPH0 load(1, XDATA, add(CFA_XSP16, literal(-1)))
        CFI (cfiCond131) CFA_SP SP+0
        CFI (cfiCond131) CFA_XSP16 add(XSP16, 10)
        CFI Block cfiCond132 Using cfiCommon0
        CFI (cfiCond132) NoFunction
        CFI (cfiCond132) Conditional ??CrossCallReturnLabel_72
        CFI (cfiCond132) R6 load(1, XDATA, add(CFA_XSP16, literal(-10)))
        CFI (cfiCond132) VB load(1, XDATA, add(CFA_XSP16, literal(-9)))
        CFI (cfiCond132) V0 load(1, XDATA, add(CFA_XSP16, literal(-8)))
        CFI (cfiCond132) V1 load(1, XDATA, add(CFA_XSP16, literal(-7)))
        CFI (cfiCond132) R7 load(1, XDATA, add(CFA_XSP16, literal(-6)))
        CFI (cfiCond132) ?RET_LOW load(1, XDATA, add(CFA_XSP16, literal(-5)))
        CFI (cfiCond132) ?RET_HIGH load(1, XDATA, add(CFA_XSP16, literal(-4)))
        CFI (cfiCond132) ?BRET_EXT load(1, XDATA, add(CFA_XSP16, literal(-3)))
        CFI (cfiCond132) DPL0 load(1, XDATA, add(CFA_XSP16, literal(-2)))
        CFI (cfiCond132) DPH0 load(1, XDATA, add(CFA_XSP16, literal(-1)))
        CFI (cfiCond132) CFA_SP SP+-1
        CFI (cfiCond132) CFA_XSP16 add(XSP16, 10)
        CFI Block cfiCond133 Using cfiCommon0
        CFI (cfiCond133) NoFunction
        CFI (cfiCond133) Conditional ??CrossCallReturnLabel_73
        CFI (cfiCond133) R6 load(1, XDATA, add(CFA_XSP16, literal(-13)))
        CFI (cfiCond133) VB load(1, XDATA, add(CFA_XSP16, literal(-12)))
        CFI (cfiCond133) V0 load(1, XDATA, add(CFA_XSP16, literal(-11)))
        CFI (cfiCond133) V1 load(1, XDATA, add(CFA_XSP16, literal(-10)))
        CFI (cfiCond133) V2 load(1, XDATA, add(CFA_XSP16, literal(-9)))
        CFI (cfiCond133) V3 load(1, XDATA, add(CFA_XSP16, literal(-8)))
        CFI (cfiCond133) V4 load(1, XDATA, add(CFA_XSP16, literal(-7)))
        CFI (cfiCond133) R7 load(1, XDATA, add(CFA_XSP16, literal(-6)))
        CFI (cfiCond133) ?RET_LOW load(1, XDATA, add(CFA_XSP16, literal(-5)))
        CFI (cfiCond133) ?RET_HIGH load(1, XDATA, add(CFA_XSP16, literal(-4)))
        CFI (cfiCond133) ?BRET_EXT load(1, XDATA, add(CFA_XSP16, literal(-3)))
        CFI (cfiCond133) DPL0 load(1, XDATA, add(CFA_XSP16, literal(-2)))
        CFI (cfiCond133) DPH0 load(1, XDATA, add(CFA_XSP16, literal(-1)))
        CFI (cfiCond133) CFA_SP SP+0
        CFI (cfiCond133) CFA_XSP16 add(XSP16, 16)
        CFI Block cfiPicker134 Using cfiCommon1
        CFI (cfiPicker134) NoFunction
        CFI (cfiPicker134) Picker
        INC     DPTR
        MOVX    A,@DPTR
        MOV     DPH,A
        MOV     DPL,R0
        RET
        CFI EndBlock cfiCond124
        CFI EndBlock cfiCond125
        CFI EndBlock cfiCond126
        CFI EndBlock cfiCond127
        CFI EndBlock cfiCond128
        CFI EndBlock cfiCond129
        CFI EndBlock cfiCond130
        CFI EndBlock cfiCond131
        CFI EndBlock cfiCond132
        CFI EndBlock cfiCond133
        CFI EndBlock cfiPicker134

        RSEG BANKED_CODE:CODE:NOROOT(0)
?Subroutine5:
        CFI Block cfiCond135 Using cfiCommon0
        CFI NoFunction
        CFI Conditional ??CrossCallReturnLabel_3
        CFI R6 load(1, XDATA, add(CFA_XSP16, literal(-13)))
        CFI VB load(1, XDATA, add(CFA_XSP16, literal(-12)))
        CFI V0 load(1, XDATA, add(CFA_XSP16, literal(-11)))
        CFI V1 load(1, XDATA, add(CFA_XSP16, literal(-10)))
        CFI V2 load(1, XDATA, add(CFA_XSP16, literal(-9)))
        CFI V3 load(1, XDATA, add(CFA_XSP16, literal(-8)))
        CFI V4 load(1, XDATA, add(CFA_XSP16, literal(-7)))
        CFI R7 load(1, XDATA, add(CFA_XSP16, literal(-6)))
        CFI ?RET_LOW load(1, XDATA, add(CFA_XSP16, literal(-5)))
        CFI ?RET_HIGH load(1, XDATA, add(CFA_XSP16, literal(-4)))
        CFI ?BRET_EXT load(1, XDATA, add(CFA_XSP16, literal(-3)))
        CFI DPL0 load(1, XDATA, add(CFA_XSP16, literal(-2)))
        CFI DPH0 load(1, XDATA, add(CFA_XSP16, literal(-1)))
        CFI CFA_SP SP+0
        CFI CFA_XSP16 add(XSP16, 16)
        CFI Block cfiCond136 Using cfiCommon0
        CFI (cfiCond136) NoFunction
        CFI (cfiCond136) Conditional ??CrossCallReturnLabel_4
        CFI (cfiCond136) R6 load(1, XDATA, add(CFA_XSP16, literal(-13)))
        CFI (cfiCond136) VB load(1, XDATA, add(CFA_XSP16, literal(-12)))
        CFI (cfiCond136) V0 load(1, XDATA, add(CFA_XSP16, literal(-11)))
        CFI (cfiCond136) V1 load(1, XDATA, add(CFA_XSP16, literal(-10)))
        CFI (cfiCond136) V2 load(1, XDATA, add(CFA_XSP16, literal(-9)))
        CFI (cfiCond136) V3 load(1, XDATA, add(CFA_XSP16, literal(-8)))
        CFI (cfiCond136) V4 load(1, XDATA, add(CFA_XSP16, literal(-7)))
        CFI (cfiCond136) R7 load(1, XDATA, add(CFA_XSP16, literal(-6)))
        CFI (cfiCond136) ?RET_LOW load(1, XDATA, add(CFA_XSP16, literal(-5)))
        CFI (cfiCond136) ?RET_HIGH load(1, XDATA, add(CFA_XSP16, literal(-4)))
        CFI (cfiCond136) ?BRET_EXT load(1, XDATA, add(CFA_XSP16, literal(-3)))
        CFI (cfiCond136) DPL0 load(1, XDATA, add(CFA_XSP16, literal(-2)))
        CFI (cfiCond136) DPH0 load(1, XDATA, add(CFA_XSP16, literal(-1)))
        CFI (cfiCond136) CFA_SP SP+0
        CFI (cfiCond136) CFA_XSP16 add(XSP16, 16)
        CFI Block cfiPicker137 Using cfiCommon1
        CFI (cfiPicker137) NoFunction
        CFI (cfiPicker137) Picker
        INC     DPTR
        INC     DPTR
        MOVX    A,@DPTR
        MOV     R0,A
        MOV     A,R6
        ADD     A,#0x22
        MOV     DPL,A
        MOV     A,R7
        LCALL   ??Subroutine40_0 & 0xFFFF
??CrossCallReturnLabel_91:
        MOVX    A,@DPTR
        MOV     R1,A
        INC     DPTR
        MOVX    A,@DPTR
        MOV     DPH,A
        MOV     DPL,R1
        INC     DPTR
        RET
        CFI EndBlock cfiCond135
        CFI EndBlock cfiCond136
        CFI EndBlock cfiPicker137

        RSEG BANKED_CODE:CODE:NOROOT(0)
?Subroutine4:
        CFI Block cfiCond138 Using cfiCommon0
        CFI NoFunction
        CFI Conditional ??CrossCallReturnLabel_0
        CFI R6 load(1, XDATA, add(CFA_XSP16, literal(-10)))
        CFI VB load(1, XDATA, add(CFA_XSP16, literal(-9)))
        CFI V0 load(1, XDATA, add(CFA_XSP16, literal(-8)))
        CFI V1 load(1, XDATA, add(CFA_XSP16, literal(-7)))
        CFI R7 load(1, XDATA, add(CFA_XSP16, literal(-6)))
        CFI ?RET_LOW load(1, XDATA, add(CFA_XSP16, literal(-5)))
        CFI ?RET_HIGH load(1, XDATA, add(CFA_XSP16, literal(-4)))
        CFI ?BRET_EXT load(1, XDATA, add(CFA_XSP16, literal(-3)))
        CFI DPL0 load(1, XDATA, add(CFA_XSP16, literal(-2)))
        CFI DPH0 load(1, XDATA, add(CFA_XSP16, literal(-1)))
        CFI CFA_SP SP+0
        CFI CFA_XSP16 add(XSP16, 10)
        CFI Block cfiCond139 Using cfiCommon0
        CFI (cfiCond139) NoFunction
        CFI (cfiCond139) Conditional ??CrossCallReturnLabel_1
        CFI (cfiCond139) R6 load(1, XDATA, add(CFA_XSP16, literal(-10)))
        CFI (cfiCond139) VB load(1, XDATA, add(CFA_XSP16, literal(-9)))
        CFI (cfiCond139) V0 load(1, XDATA, add(CFA_XSP16, literal(-8)))
        CFI (cfiCond139) V1 load(1, XDATA, add(CFA_XSP16, literal(-7)))
        CFI (cfiCond139) R7 load(1, XDATA, add(CFA_XSP16, literal(-6)))
        CFI (cfiCond139) ?RET_LOW load(1, XDATA, add(CFA_XSP16, literal(-5)))
        CFI (cfiCond139) ?RET_HIGH load(1, XDATA, add(CFA_XSP16, literal(-4)))
        CFI (cfiCond139) ?BRET_EXT load(1, XDATA, add(CFA_XSP16, literal(-3)))
        CFI (cfiCond139) DPL0 load(1, XDATA, add(CFA_XSP16, literal(-2)))
        CFI (cfiCond139) DPH0 load(1, XDATA, add(CFA_XSP16, literal(-1)))
        CFI (cfiCond139) CFA_SP SP+0
        CFI (cfiCond139) CFA_XSP16 add(XSP16, 10)
        CFI Block cfiCond140 Using cfiCommon0
        CFI (cfiCond140) NoFunction
        CFI (cfiCond140) Conditional ??CrossCallReturnLabel_2
        CFI (cfiCond140) R6 load(1, XDATA, add(CFA_XSP16, literal(-13)))
        CFI (cfiCond140) VB load(1, XDATA, add(CFA_XSP16, literal(-12)))
        CFI (cfiCond140) V0 load(1, XDATA, add(CFA_XSP16, literal(-11)))
        CFI (cfiCond140) V1 load(1, XDATA, add(CFA_XSP16, literal(-10)))
        CFI (cfiCond140) V2 load(1, XDATA, add(CFA_XSP16, literal(-9)))
        CFI (cfiCond140) V3 load(1, XDATA, add(CFA_XSP16, literal(-8)))
        CFI (cfiCond140) V4 load(1, XDATA, add(CFA_XSP16, literal(-7)))
        CFI (cfiCond140) R7 load(1, XDATA, add(CFA_XSP16, literal(-6)))
        CFI (cfiCond140) ?RET_LOW load(1, XDATA, add(CFA_XSP16, literal(-5)))
        CFI (cfiCond140) ?RET_HIGH load(1, XDATA, add(CFA_XSP16, literal(-4)))
        CFI (cfiCond140) ?BRET_EXT load(1, XDATA, add(CFA_XSP16, literal(-3)))
        CFI (cfiCond140) DPL0 load(1, XDATA, add(CFA_XSP16, literal(-2)))
        CFI (cfiCond140) DPH0 load(1, XDATA, add(CFA_XSP16, literal(-1)))
        CFI (cfiCond140) CFA_SP SP+0
        CFI (cfiCond140) CFA_XSP16 add(XSP16, 16)
        CFI Block cfiPicker141 Using cfiCommon1
        CFI (cfiPicker141) NoFunction
        CFI (cfiPicker141) Picker
        MOV     DPTR,#funcCount
        MOVX    A,@DPTR
        MOV     R0,A
        CLR     C
        MOV     A,R6
        SUBB    A,R0
        MOV     A,R7
        LCALL   ?Subroutine28 & 0xFFFF
??CrossCallReturnLabel_38:
        RET
        CFI EndBlock cfiCond138
        CFI EndBlock cfiCond139
        CFI EndBlock cfiCond140
        CFI EndBlock cfiPicker141
//  331 

        RSEG BANKED_CODE:CODE:NOROOT(0)
//  332 static uint16 functionEpProcess(uint8 task_id, uint16 events)
functionEpProcess:
        CFI Block cfiBlock142 Using cfiCommon0
        CFI Function functionEpProcess
        CODE
//  333 {
        FUNCALL functionEpProcess, osal_msg_receive
        LOCFRAME ISTACK, 0, STACK
        LOCFRAME PSTACK, 0, STACK
        LOCFRAME XSTACK, 18, STACK
        LOCFRAME IOVERLAY, 0, STATIC
        LOCFRAME DOVERLAY, 0, STATIC
        ARGFRAME ISTACK, 0, STACK
        ARGFRAME PSTACK, 0, STACK
        ARGFRAME XSTACK, 18, STACK
        ARGFRAME IOVERLAY, 0, STATIC
        ARGFRAME DOVERLAY, 0, STATIC
        FUNCALL functionEpProcess, osal_stop_timerEx
        LOCFRAME ISTACK, 0, STACK
        LOCFRAME PSTACK, 0, STACK
        LOCFRAME XSTACK, 18, STACK
        LOCFRAME IOVERLAY, 0, STATIC
        LOCFRAME DOVERLAY, 0, STATIC
        ARGFRAME ISTACK, 0, STACK
        ARGFRAME PSTACK, 0, STACK
        ARGFRAME XSTACK, 18, STACK
        ARGFRAME IOVERLAY, 0, STATIC
        ARGFRAME DOVERLAY, 0, STATIC
        FUNCALL functionEpProcess, osal_msg_deallocate
        LOCFRAME ISTACK, 0, STACK
        LOCFRAME PSTACK, 0, STACK
        LOCFRAME XSTACK, 18, STACK
        LOCFRAME IOVERLAY, 0, STATIC
        LOCFRAME DOVERLAY, 0, STATIC
        ARGFRAME ISTACK, 0, STACK
        ARGFRAME PSTACK, 0, STACK
        ARGFRAME XSTACK, 18, STACK
        ARGFRAME IOVERLAY, 0, STATIC
        ARGFRAME DOVERLAY, 0, STATIC
        FUNCALL functionEpProcess, osal_msg_receive
        LOCFRAME ISTACK, 0, STACK
        LOCFRAME PSTACK, 0, STACK
        LOCFRAME XSTACK, 18, STACK
        LOCFRAME IOVERLAY, 0, STATIC
        LOCFRAME DOVERLAY, 0, STATIC
        ARGFRAME ISTACK, 0, STACK
        ARGFRAME PSTACK, 0, STACK
        ARGFRAME XSTACK, 18, STACK
        ARGFRAME IOVERLAY, 0, STATIC
        ARGFRAME DOVERLAY, 0, STATIC
        FUNCALL functionEpProcess, HalLedBlink
        LOCFRAME ISTACK, 0, STACK
        LOCFRAME PSTACK, 0, STACK
        LOCFRAME XSTACK, 18, STACK
        LOCFRAME IOVERLAY, 0, STATIC
        LOCFRAME DOVERLAY, 0, STATIC
        ARGFRAME ISTACK, 0, STACK
        ARGFRAME PSTACK, 0, STACK
        ARGFRAME XSTACK, 18, STACK
        ARGFRAME IOVERLAY, 0, STATIC
        ARGFRAME DOVERLAY, 0, STATIC
        FUNCALL functionEpProcess, osal_start_timerEx
        LOCFRAME ISTACK, 0, STACK
        LOCFRAME PSTACK, 0, STACK
        LOCFRAME XSTACK, 18, STACK
        LOCFRAME IOVERLAY, 0, STATIC
        LOCFRAME DOVERLAY, 0, STATIC
        ARGFRAME ISTACK, 0, STACK
        ARGFRAME PSTACK, 0, STACK
        ARGFRAME XSTACK, 18, STACK
        ARGFRAME IOVERLAY, 0, STATIC
        ARGFRAME DOVERLAY, 0, STATIC
        FUNCALL functionEpProcess, osal_start_timerEx
        LOCFRAME ISTACK, 0, STACK
        LOCFRAME PSTACK, 0, STACK
        LOCFRAME XSTACK, 18, STACK
        LOCFRAME IOVERLAY, 0, STATIC
        LOCFRAME DOVERLAY, 0, STATIC
        ARGFRAME ISTACK, 0, STACK
        ARGFRAME PSTACK, 0, STACK
        ARGFRAME XSTACK, 18, STACK
        ARGFRAME IOVERLAY, 0, STATIC
        ARGFRAME DOVERLAY, 0, STATIC
        MOV     A,#-0x12
        LCALL   ?BANKED_ENTER_XDATA
        CFI DPH0 load(1, XDATA, add(CFA_XSP16, literal(-1)))
        CFI DPL0 load(1, XDATA, add(CFA_XSP16, literal(-2)))
        CFI ?BRET_EXT load(1, XDATA, add(CFA_XSP16, literal(-3)))
        CFI ?RET_HIGH load(1, XDATA, add(CFA_XSP16, literal(-4)))
        CFI ?RET_LOW load(1, XDATA, add(CFA_XSP16, literal(-5)))
        CFI R7 load(1, XDATA, add(CFA_XSP16, literal(-6)))
        CFI V9 load(1, XDATA, add(CFA_XSP16, literal(-7)))
        CFI V8 load(1, XDATA, add(CFA_XSP16, literal(-8)))
        CFI V7 load(1, XDATA, add(CFA_XSP16, literal(-9)))
        CFI V6 load(1, XDATA, add(CFA_XSP16, literal(-10)))
        CFI V5 load(1, XDATA, add(CFA_XSP16, literal(-11)))
        CFI V4 load(1, XDATA, add(CFA_XSP16, literal(-12)))
        CFI V3 load(1, XDATA, add(CFA_XSP16, literal(-13)))
        CFI V2 load(1, XDATA, add(CFA_XSP16, literal(-14)))
        CFI V1 load(1, XDATA, add(CFA_XSP16, literal(-15)))
        CFI V0 load(1, XDATA, add(CFA_XSP16, literal(-16)))
        CFI VB load(1, XDATA, add(CFA_XSP16, literal(-17)))
        CFI R6 load(1, XDATA, add(CFA_XSP16, literal(-18)))
        CFI CFA_SP SP+0
        CFI CFA_XSP16 add(XSP16, 18)
        ; Saved register size: 18
        ; Auto size: 0
        MOV     ?V0 + 6,R1
        MOV     A,R2
        MOV     R6,A
        MOV     A,R3
        MOV     R7,A
//  334     afIncomingMSGPacket_t *MSGpkt;
//  335     if(events & SYS_EVENT_MSG)
        ANL     A,#0x80
        JNZ     $+5
        LJMP    ??functionEpProcess_0 & 0xFFFF
//  336     {
//  337         MSGpkt = (afIncomingMSGPacket_t *)osal_msg_receive( task_id );
        ; Setup parameters for call to function osal_msg_receive
        SJMP    ??functionEpProcess_1
//  338         while ( MSGpkt )
//  339         {
//  340             switch ( MSGpkt->hdr.event )
//  341             {
//  342             // 接收到数据包
//  343             case AF_INCOMING_MSG_CMD:
//  344                 //点对点及广播实验                
//  345                 {
//  346                     switch ( MSGpkt->clusterId )
//  347                     {
//  348                     case SAPP_PERIODIC_CLUSTERID:
//  349                         if(MSGpkt->endPoint <= funcCount)
//  350                         {
//  351                             struct ep_info_t *ep = &funcList[MSGpkt->endPoint - 1];
//  352                             if(ep->incoming_data)
//  353                                 (*ep->incoming_data)(ep, MSGpkt->srcAddr.addr.shortAddr, MSGpkt->srcAddr.endPoint, &MSGpkt->cmd);
//  354                         }
//  355                         HalLedBlink( HAL_LED_1, 1, 50, 250 );
//  356                         break;
//  357                     }
//  358                 }
//  359                 break;
//  360 
//  361             case ZDO_STATE_CHANGE:
//  362                 {
//  363                     curNwkState = (devStates_t)(MSGpkt->hdr.status);
//  364                     if ( (curNwkState == DEV_ZB_COORD)
//  365                             || (curNwkState == DEV_ROUTER)
//  366                             || (curNwkState == DEV_END_DEVICE) )
//  367                     {
//  368                         int i;
//  369                         int hasTimeOut = 0;
//  370                         for(i = 0; i < funcCount; i++)
//  371                         {
//  372                             struct ep_info_t *ep = &funcList[i];
//  373                             if(ep->nwk_stat_change)
//  374                                 (*ep->nwk_stat_change)(ep);
//  375                             // 重置端点计数器
//  376                             if(ep->time_out && ep->function.cycle)
//  377                             {
//  378                                 ep->timerTick = ep->function.cycle;
//  379                                 hasTimeOut = 1;
//  380                             }
//  381                         }
//  382                         if(hasTimeOut)
//  383                         {
//  384                             // 加入网络成功,启动定时器,为各个端点提供定时
//  385                             osal_start_timerEx(task_id,
//  386                                                SAPP_SEND_PERIODIC_MSG_EVT,
//  387                                                1000);
//  388                         }
//  389                     }
//  390                     else
//  391                         osal_stop_timerEx(task_id, SAPP_SEND_PERIODIC_MSG_EVT);
??functionEpProcess_2:
        ; Setup parameters for call to function osal_stop_timerEx
        MOV     R2,#0x1
        MOV     R3,#0x0
        MOV     R1,?V0 + 6
        LCALL   ??osal_stop_timerEx?relay
//  392                 }
//  393                 break;
//  394             default:
//  395                 break;
//  396             }
//  397             // Release the memory
//  398             osal_msg_deallocate( (uint8 *)MSGpkt );
??functionEpProcess_3:
        ; Setup parameters for call to function osal_msg_deallocate
        MOV     R2,?V0 + 0
        MOV     R3,?V0 + 1
        LCALL   ??osal_msg_deallocate?relay
//  399             // Next - if one is available
//  400             MSGpkt = (afIncomingMSGPacket_t *)osal_msg_receive( task_id );
        ; Setup parameters for call to function osal_msg_receive
        MOV     R1,?V0 + 6
??functionEpProcess_1:
        LCALL   ??osal_msg_receive?relay
        MOV     ?V0 + 0,R2
        MOV     ?V0 + 1,R3
        MOV     A,?V0 + 0
        ORL     A,?V0 + 1
        JNZ     $+5
        LJMP    ??functionEpProcess_4 & 0xFFFF
        MOV     DPL,?V0 + 0
        MOV     DPH,?V0 + 1
        MOVX    A,@DPTR
        ADD     A,#-0x1a
        JZ      ??functionEpProcess_5
        ADD     A,#0x49
        JZ      ??functionEpProcess_6
        SJMP    ??functionEpProcess_3
??functionEpProcess_5:
        INC     DPTR
        INC     DPTR
        INC     DPTR
        INC     DPTR
        MOVX    A,@DPTR
        XRL     A,#0x1
        JNZ     ??functionEpProcess_7
        INC     DPTR
        MOVX    A,@DPTR
??functionEpProcess_7:
        JNZ     ??functionEpProcess_3
        LCALL   ?Subroutine12 & 0xFFFF
??CrossCallReturnLabel_79:
        MOV     R0,A
        MOV     DPTR,#funcCount
        MOVX    A,@DPTR
        CLR     C
        SUBB    A,R0
        JC      ??functionEpProcess_8
        LCALL   ?Subroutine12 & 0xFFFF
??CrossCallReturnLabel_80:
        MOV     B,#0x21
        MUL     AB
        MOV     R0,A
        MOV     R1,B
        MOV     A,#(funcList + 223) & 0xff
        ADD     A,R0
        MOV     R2,A
        MOV     A,#((funcList - 33) >> 8) & 0xff
        ADDC    A,R1
        MOV     R3,A
        MOV     DPL,R2
        MOV     DPH,R3
        LCALL   ??Subroutine32_0 & 0xFFFF
??CrossCallReturnLabel_46:
        JZ      ??functionEpProcess_8
        ; Setup parameters for indirect call
        MOV     A,?V0 + 0
        ADD     A,#0x1f
        MOV     ?V0 + 2,A
        MOV     A,?V0 + 1
        ADDC    A,#0x0
        MOV     ?V0 + 3,A
        MOV     R0,#?V0 + 2
        LCALL   ?PUSH_XSTACK_I_TWO
        CFI CFA_XSP16 add(XSP16, 20)
        MOV     A,?V0 + 0
        ADD     A,#0xf
        LCALL   ??Subroutine38_0 & 0xFFFF
??CrossCallReturnLabel_78:
        MOV     R1,A
        MOV     DPL,?V0 + 0
        MOV     DPH,?V0 + 1
        LCALL   ??Subroutine41_0 & 0xFFFF
??CrossCallReturnLabel_83:
        MOV     DPL,R2
        MOV     DPH,R3
        INC     DPTR
        INC     DPTR
        LCALL   ??Subroutine36_0 & 0xFFFF
??CrossCallReturnLabel_69:
        LCALL   ?CALL_IND
        MOV     A,#0x2
        LCALL   ?DEALLOC_XSTACK8
        CFI CFA_XSP16 add(XSP16, 18)
??functionEpProcess_8:
        ; Setup parameters for call to function HalLedBlink
        MOV     R4,#-0x6
        MOV     R5,#0x0
        MOV     R3,#0x32
        MOV     R2,#0x1
        MOV     R1,#0x1
        LCALL   ??HalLedBlink?relay
        LJMP    ??functionEpProcess_3 & 0xFFFF
??functionEpProcess_6:
        INC     DPTR
        MOVX    A,@DPTR
        MOV     DPTR,#curNwkState
        MOVX    @DPTR,A
        XRL     A,#0x9
        JZ      ??functionEpProcess_9
        MOVX    A,@DPTR
        XRL     A,#0x7
        JZ      ??functionEpProcess_9
        MOVX    A,@DPTR
        XRL     A,#0x6
        JZ      $+5
        LJMP    ??functionEpProcess_2 & 0xFFFF
??functionEpProcess_9:
        MOV     ?V0 + 4,#0x0
        MOV     ?V0 + 2,#0x0
        MOV     ?V0 + 3,#0x0
        SJMP    ??functionEpProcess_10
??functionEpProcess_11:
        MOV     A,?V0 + 2
        MOV     B,#0x21
        MUL     AB
        MOV     R0,A
        MOV     R2,B
        MOV     B,#0x21
        MOV     A,?V0 + 3
        LCALL   ??Subroutine29_0 & 0xFFFF
??CrossCallReturnLabel_40:
        MOV     ?V0 + 8,A
        MOV     A,#(funcList >> 8) & 0xff
        ADDC    A,R1
        MOV     ?V0 + 9,A
        MOV     DPL,?V0 + 8
        MOV     DPH,A
        LCALL   ??Subroutine34_0 & 0xFFFF
??CrossCallReturnLabel_44:
        JZ      ??functionEpProcess_12
        ; Setup parameters for indirect call
        MOV     R2,?V0 + 8
        MOV     R3,?V0 + 9
        MOV     DPL,R2
        MOV     DPH,R3
        LCALL   ??Subroutine37_0 & 0xFFFF
??CrossCallReturnLabel_66:
        LCALL   ?CALL_IND
??functionEpProcess_12:
        MOV     DPL,?V0 + 8
        MOV     DPH,?V0 + 9
        LCALL   ??Subroutine31_0 & 0xFFFF
??CrossCallReturnLabel_47:
        JZ      ??functionEpProcess_13
        MOV     DPL,?V0 + 8
        MOV     DPH,?V0 + 9
        INC     DPTR
        INC     DPTR
        INC     DPTR
        INC     DPTR
        INC     DPTR
        INC     DPTR
        INC     DPTR
        INC     DPTR
        INC     DPTR
        INC     DPTR
        MOVX    A,@DPTR
        JZ      ??functionEpProcess_13
        PUSH    A
        CFI CFA_SP SP+-1
        MOV     A,?V0 + 8
        ADD     A,#0xd
        MOV     DPL,A
        MOV     A,?V0 + 9
        LCALL   ??Subroutine35_0 & 0xFFFF
??CrossCallReturnLabel_54:
        POP     A
        CFI CFA_SP SP+0
        MOVX    @DPTR,A
        MOV     ?V0 + 4,#0x1
??functionEpProcess_13:
        MOV     A,?V0 + 2
        ADD     A,#0x1
        MOV     ?V0 + 2,A
        MOV     A,?V0 + 3
        ADDC    A,#0x0
        MOV     ?V0 + 3,A
??functionEpProcess_10:
        MOV     DPTR,#funcCount
        MOVX    A,@DPTR
        MOV     R0,A
        CLR     C
        MOV     A,?V0 + 2
        SUBB    A,R0
        MOV     A,?V0 + 3
        LCALL   ?Subroutine28 & 0xFFFF
??CrossCallReturnLabel_37:
        JC      ??functionEpProcess_11
        MOV     A,?V0 + 4
        MOV     C,0xE0 /* A   */.0
        JC      $+5
        LJMP    ??functionEpProcess_3 & 0xFFFF
        ; Setup parameters for call to function osal_start_timerEx
        MOV     R4,#-0x18
        MOV     R5,#0x3
        MOV     R2,#0x1
        MOV     R3,#0x0
        MOV     R1,?V0 + 6
        LCALL   ??osal_start_timerEx?relay
        LJMP    ??functionEpProcess_3 & 0xFFFF
//  401         }
//  402         // return unprocessed events
//  403         return (events ^ SYS_EVENT_MSG);
??functionEpProcess_4:
        MOV     A,R6
        MOV     R2,A
        MOV     A,R7
        XRL     A,#0x80
??functionEpProcess_14:
        MOV     R3,A
        LJMP    ??functionEpProcess_15 & 0xFFFF
//  404     }
//  405 
//  406     // 定时器时间到, 遍历所有端点看是否有需要调用time_out
//  407     if(events & SAPP_SEND_PERIODIC_MSG_EVT)
??functionEpProcess_0:
        MOV     A,R6
        MOV     C,0xE0 /* A   */.0
        JC      $+5
        LJMP    ??functionEpProcess_16 & 0xFFFF
//  408     {
//  409         int i;
//  410         for(i = 0; i < funcCount; i++)
        MOV     ?V0 + 0,#0x0
        MOV     ?V0 + 1,#0x0
        SJMP    ??CrossCallReturnLabel_28
//  411         {
//  412             struct ep_info_t *ep = &funcList[i];
??functionEpProcess_17:
        MOV     A,?V0 + 0
        MOV     B,#0x21
        MUL     AB
        MOV     R0,A
        MOV     R2,B
        MOV     B,#0x21
        MOV     A,?V0 + 1
        LCALL   ??Subroutine29_0 & 0xFFFF
??CrossCallReturnLabel_41:
        MOV     ?V0 + 2,A
        MOV     A,#(funcList >> 8) & 0xff
        ADDC    A,R1
        MOV     ?V0 + 3,A
//  413             if(ep->time_out && ep->function.cycle)
        MOV     DPL,?V0 + 2
        MOV     DPH,A
        LCALL   ??Subroutine31_0 & 0xFFFF
??CrossCallReturnLabel_48:
        JZ      ??functionEpProcess_18
        MOV     DPL,?V0 + 2
        MOV     DPH,?V0 + 3
        INC     DPTR
        INC     DPTR
        INC     DPTR
        INC     DPTR
        INC     DPTR
        INC     DPTR
        INC     DPTR
        INC     DPTR
        INC     DPTR
        INC     DPTR
        MOVX    A,@DPTR
        JZ      ??functionEpProcess_18
//  414             {
//  415                 // 端点需要周期执行
//  416                 ep->timerTick = ep->timerTick - 1;
        MOV     A,?V0 + 2
        ADD     A,#0xd
        MOV     DPL,A
        MOV     A,?V0 + 3
        LCALL   ??Subroutine39_0 & 0xFFFF
??CrossCallReturnLabel_76:
        DEC     A
        MOVX    @DPTR,A
//  417                 if(ep->timerTick == 0)
        JNZ     ??functionEpProcess_18
//  418                 {
//  419                   // 定时时间到,执行time_out函数
//  420                   (*ep->time_out)(ep);
        ; Setup parameters for indirect call
        MOV     R2,?V0 + 2
        MOV     R3,?V0 + 3
        MOV     DPL,R2
        MOV     DPH,R3
        INC     DPTR
        INC     DPTR
        INC     DPTR
        INC     DPTR
        LCALL   ??Subroutine36_0 & 0xFFFF
??CrossCallReturnLabel_70:
        LCALL   ?CALL_IND
//  421                   ep->timerTick = ep->function.cycle;
        MOV     DPL,?V0 + 2
        MOV     DPH,?V0 + 3
        INC     DPTR
        INC     DPTR
        INC     DPTR
        INC     DPTR
        INC     DPTR
        INC     DPTR
        INC     DPTR
        INC     DPTR
        INC     DPTR
        INC     DPTR
        MOVX    A,@DPTR
        PUSH    A
        CFI CFA_SP SP+-1
        MOV     A,?V0 + 2
        ADD     A,#0xd
        MOV     DPL,A
        MOV     A,?V0 + 3
        LCALL   ??Subroutine35_0 & 0xFFFF
//  422                 }
//  423             }
//  424 #if 0
//  425             if(ep->userTimer && ep->res_available)
//  426             {
//  427                 ep->userTimer = ep->userTimer - 1;
//  428                 if(ep->userTimer <= 1)
//  429                 {
//  430                     (*ep->res_available)(ep, ResUserTimer, NULL);
//  431                     ep->userTimer = 0;
//  432                 }
//  433             }
//  434 #endif
//  435         }
??CrossCallReturnLabel_55:
        POP     A
        CFI CFA_SP SP+0
        MOVX    @DPTR,A
??functionEpProcess_18:
        LCALL   ?Subroutine22 & 0xFFFF
??CrossCallReturnLabel_28:
        LCALL   ?Subroutine7 & 0xFFFF
??CrossCallReturnLabel_6:
        JC      ??functionEpProcess_17
//  436         // 重新启动定时器
//  437         osal_start_timerEx(task_id, SAPP_SEND_PERIODIC_MSG_EVT, 1000);
        ; Setup parameters for call to function osal_start_timerEx
        MOV     R4,#-0x18
        MOV     R5,#0x3
        MOV     R2,#0x1
        MOV     R3,#0x0
        MOV     R1,?V0 + 6
        LCALL   ??osal_start_timerEx?relay
//  438         // return unprocessed events
//  439         return (events ^ SAPP_SEND_PERIODIC_MSG_EVT);
        MOV     A,R6
        XRL     A,#0x1
        MOV     R2,A
        MOV     A,R7
        LJMP    ??functionEpProcess_14 & 0xFFFF
//  440     }
//  441     // Discard unknown events
//  442     return 0;
??functionEpProcess_16:
        MOV     R2,#0x0
        MOV     R3,#0x0
??functionEpProcess_15:
        MOV     R7,#0xa
        LJMP    ?BANKED_LEAVE_XDATA
        CFI EndBlock cfiBlock142
//  443 }

        RSEG BANKED_CODE:CODE:NOROOT(0)
?Subroutine22:
        CFI Block cfiCond143 Using cfiCommon0
        CFI NoFunction
        CFI Conditional ??CrossCallReturnLabel_27
        CFI R6 load(1, XDATA, add(CFA_XSP16, literal(-13)))
        CFI VB load(1, XDATA, add(CFA_XSP16, literal(-12)))
        CFI V0 load(1, XDATA, add(CFA_XSP16, literal(-11)))
        CFI V1 load(1, XDATA, add(CFA_XSP16, literal(-10)))
        CFI V2 load(1, XDATA, add(CFA_XSP16, literal(-9)))
        CFI V3 load(1, XDATA, add(CFA_XSP16, literal(-8)))
        CFI V4 load(1, XDATA, add(CFA_XSP16, literal(-7)))
        CFI R7 load(1, XDATA, add(CFA_XSP16, literal(-6)))
        CFI ?RET_LOW load(1, XDATA, add(CFA_XSP16, literal(-5)))
        CFI ?RET_HIGH load(1, XDATA, add(CFA_XSP16, literal(-4)))
        CFI ?BRET_EXT load(1, XDATA, add(CFA_XSP16, literal(-3)))
        CFI DPL0 load(1, XDATA, add(CFA_XSP16, literal(-2)))
        CFI DPH0 load(1, XDATA, add(CFA_XSP16, literal(-1)))
        CFI CFA_SP SP+0
        CFI CFA_XSP16 add(XSP16, 16)
        CFI Block cfiCond144 Using cfiCommon0
        CFI (cfiCond144) NoFunction
        CFI (cfiCond144) Conditional ??CrossCallReturnLabel_28
        CFI (cfiCond144) R6 load(1, XDATA, add(CFA_XSP16, literal(-18)))
        CFI (cfiCond144) VB load(1, XDATA, add(CFA_XSP16, literal(-17)))
        CFI (cfiCond144) V0 load(1, XDATA, add(CFA_XSP16, literal(-16)))
        CFI (cfiCond144) V1 load(1, XDATA, add(CFA_XSP16, literal(-15)))
        CFI (cfiCond144) V2 load(1, XDATA, add(CFA_XSP16, literal(-14)))
        CFI (cfiCond144) V3 load(1, XDATA, add(CFA_XSP16, literal(-13)))
        CFI (cfiCond144) V4 load(1, XDATA, add(CFA_XSP16, literal(-12)))
        CFI (cfiCond144) V5 load(1, XDATA, add(CFA_XSP16, literal(-11)))
        CFI (cfiCond144) V6 load(1, XDATA, add(CFA_XSP16, literal(-10)))
        CFI (cfiCond144) V7 load(1, XDATA, add(CFA_XSP16, literal(-9)))
        CFI (cfiCond144) V8 load(1, XDATA, add(CFA_XSP16, literal(-8)))
        CFI (cfiCond144) V9 load(1, XDATA, add(CFA_XSP16, literal(-7)))
        CFI (cfiCond144) R7 load(1, XDATA, add(CFA_XSP16, literal(-6)))
        CFI (cfiCond144) ?RET_LOW load(1, XDATA, add(CFA_XSP16, literal(-5)))
        CFI (cfiCond144) ?RET_HIGH load(1, XDATA, add(CFA_XSP16, literal(-4)))
        CFI (cfiCond144) ?BRET_EXT load(1, XDATA, add(CFA_XSP16, literal(-3)))
        CFI (cfiCond144) DPL0 load(1, XDATA, add(CFA_XSP16, literal(-2)))
        CFI (cfiCond144) DPH0 load(1, XDATA, add(CFA_XSP16, literal(-1)))
        CFI (cfiCond144) CFA_SP SP+0
        CFI (cfiCond144) CFA_XSP16 add(XSP16, 18)
        CFI Block cfiPicker145 Using cfiCommon1
        CFI (cfiPicker145) NoFunction
        CFI (cfiPicker145) Picker
        MOV     A,?V0 + 0
        ADD     A,#0x1
        MOV     ?V0 + 0,A
        MOV     A,?V0 + 1
        ADDC    A,#0x0
        MOV     ?V0 + 1,A
        RET
        CFI EndBlock cfiCond143
        CFI EndBlock cfiCond144
        CFI EndBlock cfiPicker145

        RSEG BANKED_CODE:CODE:NOROOT(0)
?Subroutine12:
        CFI Block cfiCond146 Using cfiCommon0
        CFI NoFunction
        CFI Conditional ??CrossCallReturnLabel_79
        CFI R6 load(1, XDATA, add(CFA_XSP16, literal(-18)))
        CFI VB load(1, XDATA, add(CFA_XSP16, literal(-17)))
        CFI V0 load(1, XDATA, add(CFA_XSP16, literal(-16)))
        CFI V1 load(1, XDATA, add(CFA_XSP16, literal(-15)))
        CFI V2 load(1, XDATA, add(CFA_XSP16, literal(-14)))
        CFI V3 load(1, XDATA, add(CFA_XSP16, literal(-13)))
        CFI V4 load(1, XDATA, add(CFA_XSP16, literal(-12)))
        CFI V5 load(1, XDATA, add(CFA_XSP16, literal(-11)))
        CFI V6 load(1, XDATA, add(CFA_XSP16, literal(-10)))
        CFI V7 load(1, XDATA, add(CFA_XSP16, literal(-9)))
        CFI V8 load(1, XDATA, add(CFA_XSP16, literal(-8)))
        CFI V9 load(1, XDATA, add(CFA_XSP16, literal(-7)))
        CFI R7 load(1, XDATA, add(CFA_XSP16, literal(-6)))
        CFI ?RET_LOW load(1, XDATA, add(CFA_XSP16, literal(-5)))
        CFI ?RET_HIGH load(1, XDATA, add(CFA_XSP16, literal(-4)))
        CFI ?BRET_EXT load(1, XDATA, add(CFA_XSP16, literal(-3)))
        CFI DPL0 load(1, XDATA, add(CFA_XSP16, literal(-2)))
        CFI DPH0 load(1, XDATA, add(CFA_XSP16, literal(-1)))
        CFI CFA_SP SP+0
        CFI CFA_XSP16 add(XSP16, 18)
        CFI Block cfiCond147 Using cfiCommon0
        CFI (cfiCond147) NoFunction
        CFI (cfiCond147) Conditional ??CrossCallReturnLabel_80
        CFI (cfiCond147) R6 load(1, XDATA, add(CFA_XSP16, literal(-18)))
        CFI (cfiCond147) VB load(1, XDATA, add(CFA_XSP16, literal(-17)))
        CFI (cfiCond147) V0 load(1, XDATA, add(CFA_XSP16, literal(-16)))
        CFI (cfiCond147) V1 load(1, XDATA, add(CFA_XSP16, literal(-15)))
        CFI (cfiCond147) V2 load(1, XDATA, add(CFA_XSP16, literal(-14)))
        CFI (cfiCond147) V3 load(1, XDATA, add(CFA_XSP16, literal(-13)))
        CFI (cfiCond147) V4 load(1, XDATA, add(CFA_XSP16, literal(-12)))
        CFI (cfiCond147) V5 load(1, XDATA, add(CFA_XSP16, literal(-11)))
        CFI (cfiCond147) V6 load(1, XDATA, add(CFA_XSP16, literal(-10)))
        CFI (cfiCond147) V7 load(1, XDATA, add(CFA_XSP16, literal(-9)))
        CFI (cfiCond147) V8 load(1, XDATA, add(CFA_XSP16, literal(-8)))
        CFI (cfiCond147) V9 load(1, XDATA, add(CFA_XSP16, literal(-7)))
        CFI (cfiCond147) R7 load(1, XDATA, add(CFA_XSP16, literal(-6)))
        CFI (cfiCond147) ?RET_LOW load(1, XDATA, add(CFA_XSP16, literal(-5)))
        CFI (cfiCond147) ?RET_HIGH load(1, XDATA, add(CFA_XSP16, literal(-4)))
        CFI (cfiCond147) ?BRET_EXT load(1, XDATA, add(CFA_XSP16, literal(-3)))
        CFI (cfiCond147) DPL0 load(1, XDATA, add(CFA_XSP16, literal(-2)))
        CFI (cfiCond147) DPH0 load(1, XDATA, add(CFA_XSP16, literal(-1)))
        CFI (cfiCond147) CFA_SP SP+0
        CFI (cfiCond147) CFA_XSP16 add(XSP16, 18)
        CFI Block cfiPicker148 Using cfiCommon1
        CFI (cfiPicker148) NoFunction
        CFI (cfiPicker148) Picker
        MOV     A,?V0 + 0
        ADD     A,#0x14
        CFI EndBlock cfiCond146
        CFI EndBlock cfiCond147
        CFI EndBlock cfiPicker148
        REQUIRE ??Subroutine38_0
        ; // Fall through to label ??Subroutine38_0

        RSEG BANKED_CODE:CODE:NOROOT(0)
??Subroutine38_0:
        CFI Block cfiCond149 Using cfiCommon0
        CFI NoFunction
        CFI Conditional ??CrossCallReturnLabel_78
        CFI R6 load(1, XDATA, add(CFA_XSP16, literal(-18)))
        CFI VB load(1, XDATA, add(CFA_XSP16, literal(-17)))
        CFI V0 load(1, XDATA, add(CFA_XSP16, literal(-16)))
        CFI V1 load(1, XDATA, add(CFA_XSP16, literal(-15)))
        CFI V2 load(1, XDATA, add(CFA_XSP16, literal(-14)))
        CFI V3 load(1, XDATA, add(CFA_XSP16, literal(-13)))
        CFI V4 load(1, XDATA, add(CFA_XSP16, literal(-12)))
        CFI V5 load(1, XDATA, add(CFA_XSP16, literal(-11)))
        CFI V6 load(1, XDATA, add(CFA_XSP16, literal(-10)))
        CFI V7 load(1, XDATA, add(CFA_XSP16, literal(-9)))
        CFI V8 load(1, XDATA, add(CFA_XSP16, literal(-8)))
        CFI V9 load(1, XDATA, add(CFA_XSP16, literal(-7)))
        CFI R7 load(1, XDATA, add(CFA_XSP16, literal(-6)))
        CFI ?RET_LOW load(1, XDATA, add(CFA_XSP16, literal(-5)))
        CFI ?RET_HIGH load(1, XDATA, add(CFA_XSP16, literal(-4)))
        CFI ?BRET_EXT load(1, XDATA, add(CFA_XSP16, literal(-3)))
        CFI DPL0 load(1, XDATA, add(CFA_XSP16, literal(-2)))
        CFI DPH0 load(1, XDATA, add(CFA_XSP16, literal(-1)))
        CFI CFA_SP SP+0
        CFI CFA_XSP16 add(XSP16, 20)
        CFI Block cfiCond150 Using cfiCommon0
        CFI (cfiCond150) NoFunction
        CFI (cfiCond150) Conditional ??CrossCallReturnLabel_79
        CFI (cfiCond150) R6 load(1, XDATA, add(CFA_XSP16, literal(-18)))
        CFI (cfiCond150) VB load(1, XDATA, add(CFA_XSP16, literal(-17)))
        CFI (cfiCond150) V0 load(1, XDATA, add(CFA_XSP16, literal(-16)))
        CFI (cfiCond150) V1 load(1, XDATA, add(CFA_XSP16, literal(-15)))
        CFI (cfiCond150) V2 load(1, XDATA, add(CFA_XSP16, literal(-14)))
        CFI (cfiCond150) V3 load(1, XDATA, add(CFA_XSP16, literal(-13)))
        CFI (cfiCond150) V4 load(1, XDATA, add(CFA_XSP16, literal(-12)))
        CFI (cfiCond150) V5 load(1, XDATA, add(CFA_XSP16, literal(-11)))
        CFI (cfiCond150) V6 load(1, XDATA, add(CFA_XSP16, literal(-10)))
        CFI (cfiCond150) V7 load(1, XDATA, add(CFA_XSP16, literal(-9)))
        CFI (cfiCond150) V8 load(1, XDATA, add(CFA_XSP16, literal(-8)))
        CFI (cfiCond150) V9 load(1, XDATA, add(CFA_XSP16, literal(-7)))
        CFI (cfiCond150) R7 load(1, XDATA, add(CFA_XSP16, literal(-6)))
        CFI (cfiCond150) ?RET_LOW load(1, XDATA, add(CFA_XSP16, literal(-5)))
        CFI (cfiCond150) ?RET_HIGH load(1, XDATA, add(CFA_XSP16, literal(-4)))
        CFI (cfiCond150) ?BRET_EXT load(1, XDATA, add(CFA_XSP16, literal(-3)))
        CFI (cfiCond150) DPL0 load(1, XDATA, add(CFA_XSP16, literal(-2)))
        CFI (cfiCond150) DPH0 load(1, XDATA, add(CFA_XSP16, literal(-1)))
        CFI (cfiCond150) CFA_SP SP+0
        CFI (cfiCond150) CFA_XSP16 add(XSP16, 18)
        CFI Block cfiCond151 Using cfiCommon0
        CFI (cfiCond151) NoFunction
        CFI (cfiCond151) Conditional ??CrossCallReturnLabel_80
        CFI (cfiCond151) R6 load(1, XDATA, add(CFA_XSP16, literal(-18)))
        CFI (cfiCond151) VB load(1, XDATA, add(CFA_XSP16, literal(-17)))
        CFI (cfiCond151) V0 load(1, XDATA, add(CFA_XSP16, literal(-16)))
        CFI (cfiCond151) V1 load(1, XDATA, add(CFA_XSP16, literal(-15)))
        CFI (cfiCond151) V2 load(1, XDATA, add(CFA_XSP16, literal(-14)))
        CFI (cfiCond151) V3 load(1, XDATA, add(CFA_XSP16, literal(-13)))
        CFI (cfiCond151) V4 load(1, XDATA, add(CFA_XSP16, literal(-12)))
        CFI (cfiCond151) V5 load(1, XDATA, add(CFA_XSP16, literal(-11)))
        CFI (cfiCond151) V6 load(1, XDATA, add(CFA_XSP16, literal(-10)))
        CFI (cfiCond151) V7 load(1, XDATA, add(CFA_XSP16, literal(-9)))
        CFI (cfiCond151) V8 load(1, XDATA, add(CFA_XSP16, literal(-8)))
        CFI (cfiCond151) V9 load(1, XDATA, add(CFA_XSP16, literal(-7)))
        CFI (cfiCond151) R7 load(1, XDATA, add(CFA_XSP16, literal(-6)))
        CFI (cfiCond151) ?RET_LOW load(1, XDATA, add(CFA_XSP16, literal(-5)))
        CFI (cfiCond151) ?RET_HIGH load(1, XDATA, add(CFA_XSP16, literal(-4)))
        CFI (cfiCond151) ?BRET_EXT load(1, XDATA, add(CFA_XSP16, literal(-3)))
        CFI (cfiCond151) DPL0 load(1, XDATA, add(CFA_XSP16, literal(-2)))
        CFI (cfiCond151) DPH0 load(1, XDATA, add(CFA_XSP16, literal(-1)))
        CFI (cfiCond151) CFA_SP SP+0
        CFI (cfiCond151) CFA_XSP16 add(XSP16, 18)
        CFI Block cfiPicker152 Using cfiCommon1
        CFI (cfiPicker152) NoFunction
        CFI (cfiPicker152) Picker
        MOV     DPL,A
        MOV     A,?V0 + 1
        CFI EndBlock cfiCond149
        CFI EndBlock cfiCond150
        CFI EndBlock cfiCond151
        CFI EndBlock cfiPicker152
        REQUIRE ??Subroutine39_0
        ; // Fall through to label ??Subroutine39_0

        RSEG BANKED_CODE:CODE:NOROOT(0)
??Subroutine39_0:
        CFI Block cfiCond153 Using cfiCommon0
        CFI NoFunction
        CFI Conditional ??CrossCallReturnLabel_74
        CFI R6 load(1, XDATA, add(CFA_XSP16, literal(-13)))
        CFI VB load(1, XDATA, add(CFA_XSP16, literal(-12)))
        CFI V0 load(1, XDATA, add(CFA_XSP16, literal(-11)))
        CFI V1 load(1, XDATA, add(CFA_XSP16, literal(-10)))
        CFI V2 load(1, XDATA, add(CFA_XSP16, literal(-9)))
        CFI V3 load(1, XDATA, add(CFA_XSP16, literal(-8)))
        CFI V4 load(1, XDATA, add(CFA_XSP16, literal(-7)))
        CFI R7 load(1, XDATA, add(CFA_XSP16, literal(-6)))
        CFI ?RET_LOW load(1, XDATA, add(CFA_XSP16, literal(-5)))
        CFI ?RET_HIGH load(1, XDATA, add(CFA_XSP16, literal(-4)))
        CFI ?BRET_EXT load(1, XDATA, add(CFA_XSP16, literal(-3)))
        CFI DPL0 load(1, XDATA, add(CFA_XSP16, literal(-2)))
        CFI DPH0 load(1, XDATA, add(CFA_XSP16, literal(-1)))
        CFI CFA_SP SP+0
        CFI CFA_XSP16 add(XSP16, 16)
        CFI Block cfiCond154 Using cfiCommon0
        CFI (cfiCond154) NoFunction
        CFI (cfiCond154) Conditional ??CrossCallReturnLabel_75
        CFI (cfiCond154) R6 load(1, XDATA, add(CFA_XSP16, literal(-13)))
        CFI (cfiCond154) VB load(1, XDATA, add(CFA_XSP16, literal(-12)))
        CFI (cfiCond154) V0 load(1, XDATA, add(CFA_XSP16, literal(-11)))
        CFI (cfiCond154) V1 load(1, XDATA, add(CFA_XSP16, literal(-10)))
        CFI (cfiCond154) V2 load(1, XDATA, add(CFA_XSP16, literal(-9)))
        CFI (cfiCond154) V3 load(1, XDATA, add(CFA_XSP16, literal(-8)))
        CFI (cfiCond154) V4 load(1, XDATA, add(CFA_XSP16, literal(-7)))
        CFI (cfiCond154) R7 load(1, XDATA, add(CFA_XSP16, literal(-6)))
        CFI (cfiCond154) ?RET_LOW load(1, XDATA, add(CFA_XSP16, literal(-5)))
        CFI (cfiCond154) ?RET_HIGH load(1, XDATA, add(CFA_XSP16, literal(-4)))
        CFI (cfiCond154) ?BRET_EXT load(1, XDATA, add(CFA_XSP16, literal(-3)))
        CFI (cfiCond154) DPL0 load(1, XDATA, add(CFA_XSP16, literal(-2)))
        CFI (cfiCond154) DPH0 load(1, XDATA, add(CFA_XSP16, literal(-1)))
        CFI (cfiCond154) CFA_SP SP+0
        CFI (cfiCond154) CFA_XSP16 add(XSP16, 16)
        CFI Block cfiCond155 Using cfiCommon0
        CFI (cfiCond155) NoFunction
        CFI (cfiCond155) Conditional ??CrossCallReturnLabel_76
        CFI (cfiCond155) R6 load(1, XDATA, add(CFA_XSP16, literal(-18)))
        CFI (cfiCond155) VB load(1, XDATA, add(CFA_XSP16, literal(-17)))
        CFI (cfiCond155) V0 load(1, XDATA, add(CFA_XSP16, literal(-16)))
        CFI (cfiCond155) V1 load(1, XDATA, add(CFA_XSP16, literal(-15)))
        CFI (cfiCond155) V2 load(1, XDATA, add(CFA_XSP16, literal(-14)))
        CFI (cfiCond155) V3 load(1, XDATA, add(CFA_XSP16, literal(-13)))
        CFI (cfiCond155) V4 load(1, XDATA, add(CFA_XSP16, literal(-12)))
        CFI (cfiCond155) V5 load(1, XDATA, add(CFA_XSP16, literal(-11)))
        CFI (cfiCond155) V6 load(1, XDATA, add(CFA_XSP16, literal(-10)))
        CFI (cfiCond155) V7 load(1, XDATA, add(CFA_XSP16, literal(-9)))
        CFI (cfiCond155) V8 load(1, XDATA, add(CFA_XSP16, literal(-8)))
        CFI (cfiCond155) V9 load(1, XDATA, add(CFA_XSP16, literal(-7)))
        CFI (cfiCond155) R7 load(1, XDATA, add(CFA_XSP16, literal(-6)))
        CFI (cfiCond155) ?RET_LOW load(1, XDATA, add(CFA_XSP16, literal(-5)))
        CFI (cfiCond155) ?RET_HIGH load(1, XDATA, add(CFA_XSP16, literal(-4)))
        CFI (cfiCond155) ?BRET_EXT load(1, XDATA, add(CFA_XSP16, literal(-3)))
        CFI (cfiCond155) DPL0 load(1, XDATA, add(CFA_XSP16, literal(-2)))
        CFI (cfiCond155) DPH0 load(1, XDATA, add(CFA_XSP16, literal(-1)))
        CFI (cfiCond155) CFA_SP SP+0
        CFI (cfiCond155) CFA_XSP16 add(XSP16, 18)
        CFI Block cfiCond156 Using cfiCommon0
        CFI (cfiCond156) NoFunction
        CFI (cfiCond156) Conditional ??CrossCallReturnLabel_77
        CFI (cfiCond156) DPL0 Frame(CFA_SP, 4)
        CFI (cfiCond156) DPH0 Frame(CFA_SP, 5)
        CFI (cfiCond156) CFA_SP SP+-5
        CFI Block cfiCond157 Using cfiCommon0
        CFI (cfiCond157) NoFunction
        CFI (cfiCond157) Conditional ??CrossCallReturnLabel_78
        CFI (cfiCond157) R6 load(1, XDATA, add(CFA_XSP16, literal(-18)))
        CFI (cfiCond157) VB load(1, XDATA, add(CFA_XSP16, literal(-17)))
        CFI (cfiCond157) V0 load(1, XDATA, add(CFA_XSP16, literal(-16)))
        CFI (cfiCond157) V1 load(1, XDATA, add(CFA_XSP16, literal(-15)))
        CFI (cfiCond157) V2 load(1, XDATA, add(CFA_XSP16, literal(-14)))
        CFI (cfiCond157) V3 load(1, XDATA, add(CFA_XSP16, literal(-13)))
        CFI (cfiCond157) V4 load(1, XDATA, add(CFA_XSP16, literal(-12)))
        CFI (cfiCond157) V5 load(1, XDATA, add(CFA_XSP16, literal(-11)))
        CFI (cfiCond157) V6 load(1, XDATA, add(CFA_XSP16, literal(-10)))
        CFI (cfiCond157) V7 load(1, XDATA, add(CFA_XSP16, literal(-9)))
        CFI (cfiCond157) V8 load(1, XDATA, add(CFA_XSP16, literal(-8)))
        CFI (cfiCond157) V9 load(1, XDATA, add(CFA_XSP16, literal(-7)))
        CFI (cfiCond157) R7 load(1, XDATA, add(CFA_XSP16, literal(-6)))
        CFI (cfiCond157) ?RET_LOW load(1, XDATA, add(CFA_XSP16, literal(-5)))
        CFI (cfiCond157) ?RET_HIGH load(1, XDATA, add(CFA_XSP16, literal(-4)))
        CFI (cfiCond157) ?BRET_EXT load(1, XDATA, add(CFA_XSP16, literal(-3)))
        CFI (cfiCond157) DPL0 load(1, XDATA, add(CFA_XSP16, literal(-2)))
        CFI (cfiCond157) DPH0 load(1, XDATA, add(CFA_XSP16, literal(-1)))
        CFI (cfiCond157) CFA_SP SP+0
        CFI (cfiCond157) CFA_XSP16 add(XSP16, 20)
        CFI Block cfiCond158 Using cfiCommon0
        CFI (cfiCond158) NoFunction
        CFI (cfiCond158) Conditional ??CrossCallReturnLabel_79
        CFI (cfiCond158) R6 load(1, XDATA, add(CFA_XSP16, literal(-18)))
        CFI (cfiCond158) VB load(1, XDATA, add(CFA_XSP16, literal(-17)))
        CFI (cfiCond158) V0 load(1, XDATA, add(CFA_XSP16, literal(-16)))
        CFI (cfiCond158) V1 load(1, XDATA, add(CFA_XSP16, literal(-15)))
        CFI (cfiCond158) V2 load(1, XDATA, add(CFA_XSP16, literal(-14)))
        CFI (cfiCond158) V3 load(1, XDATA, add(CFA_XSP16, literal(-13)))
        CFI (cfiCond158) V4 load(1, XDATA, add(CFA_XSP16, literal(-12)))
        CFI (cfiCond158) V5 load(1, XDATA, add(CFA_XSP16, literal(-11)))
        CFI (cfiCond158) V6 load(1, XDATA, add(CFA_XSP16, literal(-10)))
        CFI (cfiCond158) V7 load(1, XDATA, add(CFA_XSP16, literal(-9)))
        CFI (cfiCond158) V8 load(1, XDATA, add(CFA_XSP16, literal(-8)))
        CFI (cfiCond158) V9 load(1, XDATA, add(CFA_XSP16, literal(-7)))
        CFI (cfiCond158) R7 load(1, XDATA, add(CFA_XSP16, literal(-6)))
        CFI (cfiCond158) ?RET_LOW load(1, XDATA, add(CFA_XSP16, literal(-5)))
        CFI (cfiCond158) ?RET_HIGH load(1, XDATA, add(CFA_XSP16, literal(-4)))
        CFI (cfiCond158) ?BRET_EXT load(1, XDATA, add(CFA_XSP16, literal(-3)))
        CFI (cfiCond158) DPL0 load(1, XDATA, add(CFA_XSP16, literal(-2)))
        CFI (cfiCond158) DPH0 load(1, XDATA, add(CFA_XSP16, literal(-1)))
        CFI (cfiCond158) CFA_SP SP+0
        CFI (cfiCond158) CFA_XSP16 add(XSP16, 18)
        CFI Block cfiCond159 Using cfiCommon0
        CFI (cfiCond159) NoFunction
        CFI (cfiCond159) Conditional ??CrossCallReturnLabel_80
        CFI (cfiCond159) R6 load(1, XDATA, add(CFA_XSP16, literal(-18)))
        CFI (cfiCond159) VB load(1, XDATA, add(CFA_XSP16, literal(-17)))
        CFI (cfiCond159) V0 load(1, XDATA, add(CFA_XSP16, literal(-16)))
        CFI (cfiCond159) V1 load(1, XDATA, add(CFA_XSP16, literal(-15)))
        CFI (cfiCond159) V2 load(1, XDATA, add(CFA_XSP16, literal(-14)))
        CFI (cfiCond159) V3 load(1, XDATA, add(CFA_XSP16, literal(-13)))
        CFI (cfiCond159) V4 load(1, XDATA, add(CFA_XSP16, literal(-12)))
        CFI (cfiCond159) V5 load(1, XDATA, add(CFA_XSP16, literal(-11)))
        CFI (cfiCond159) V6 load(1, XDATA, add(CFA_XSP16, literal(-10)))
        CFI (cfiCond159) V7 load(1, XDATA, add(CFA_XSP16, literal(-9)))
        CFI (cfiCond159) V8 load(1, XDATA, add(CFA_XSP16, literal(-8)))
        CFI (cfiCond159) V9 load(1, XDATA, add(CFA_XSP16, literal(-7)))
        CFI (cfiCond159) R7 load(1, XDATA, add(CFA_XSP16, literal(-6)))
        CFI (cfiCond159) ?RET_LOW load(1, XDATA, add(CFA_XSP16, literal(-5)))
        CFI (cfiCond159) ?RET_HIGH load(1, XDATA, add(CFA_XSP16, literal(-4)))
        CFI (cfiCond159) ?BRET_EXT load(1, XDATA, add(CFA_XSP16, literal(-3)))
        CFI (cfiCond159) DPL0 load(1, XDATA, add(CFA_XSP16, literal(-2)))
        CFI (cfiCond159) DPH0 load(1, XDATA, add(CFA_XSP16, literal(-1)))
        CFI (cfiCond159) CFA_SP SP+0
        CFI (cfiCond159) CFA_XSP16 add(XSP16, 18)
        CFI Block cfiPicker160 Using cfiCommon1
        CFI (cfiPicker160) NoFunction
        CFI (cfiPicker160) Picker
        LCALL   ??Subroutine40_0 & 0xFFFF
??CrossCallReturnLabel_94:
        MOVX    A,@DPTR
        RET
        CFI EndBlock cfiCond153
        CFI EndBlock cfiCond154
        CFI EndBlock cfiCond155
        CFI EndBlock cfiCond156
        CFI EndBlock cfiCond157
        CFI EndBlock cfiCond158
        CFI EndBlock cfiCond159
        CFI EndBlock cfiPicker160

        RSEG BANKED_CODE:CODE:NOROOT(0)
?Subroutine25:
        CFI Block cfiCond161 Using cfiCommon0
        CFI NoFunction
        CFI Conditional ??CrossCallReturnLabel_96, ??CrossCallReturnLabel_16
        CFI R6 load(1, XDATA, add(CFA_XSP16, literal(-10)))
        CFI VB load(1, XDATA, add(CFA_XSP16, literal(-9)))
        CFI V0 load(1, XDATA, add(CFA_XSP16, literal(-8)))
        CFI V1 load(1, XDATA, add(CFA_XSP16, literal(-7)))
        CFI R7 load(1, XDATA, add(CFA_XSP16, literal(-6)))
        CFI ?RET_LOW load(1, XDATA, add(CFA_XSP16, literal(-5)))
        CFI ?RET_HIGH load(1, XDATA, add(CFA_XSP16, literal(-4)))
        CFI ?BRET_EXT load(1, XDATA, add(CFA_XSP16, literal(-3)))
        CFI DPL0 load(1, XDATA, add(CFA_XSP16, literal(-2)))
        CFI DPH0 load(1, XDATA, add(CFA_XSP16, literal(-1)))
        CFI CFA_SP SP+0
        CFI CFA_XSP16 add(XSP16, 10)
        CFI Block cfiCond162 Using cfiCommon0
        CFI (cfiCond162) NoFunction
        CFI (cfiCond162) Conditional ??CrossCallReturnLabel_96, ??CrossCallReturnLabel_17
        CFI (cfiCond162) R6 load(1, XDATA, add(CFA_XSP16, literal(-10)))
        CFI (cfiCond162) VB load(1, XDATA, add(CFA_XSP16, literal(-9)))
        CFI (cfiCond162) V0 load(1, XDATA, add(CFA_XSP16, literal(-8)))
        CFI (cfiCond162) V1 load(1, XDATA, add(CFA_XSP16, literal(-7)))
        CFI (cfiCond162) R7 load(1, XDATA, add(CFA_XSP16, literal(-6)))
        CFI (cfiCond162) ?RET_LOW load(1, XDATA, add(CFA_XSP16, literal(-5)))
        CFI (cfiCond162) ?RET_HIGH load(1, XDATA, add(CFA_XSP16, literal(-4)))
        CFI (cfiCond162) ?BRET_EXT load(1, XDATA, add(CFA_XSP16, literal(-3)))
        CFI (cfiCond162) DPL0 load(1, XDATA, add(CFA_XSP16, literal(-2)))
        CFI (cfiCond162) DPH0 load(1, XDATA, add(CFA_XSP16, literal(-1)))
        CFI (cfiCond162) CFA_SP SP+0
        CFI (cfiCond162) CFA_XSP16 add(XSP16, 10)
        CFI Block cfiCond163 Using cfiCommon0
        CFI (cfiCond163) NoFunction
        CFI (cfiCond163) Conditional ??CrossCallReturnLabel_95, ??CrossCallReturnLabel_14
        CFI (cfiCond163) R6 load(1, XDATA, add(CFA_XSP16, literal(-10)))
        CFI (cfiCond163) VB load(1, XDATA, add(CFA_XSP16, literal(-9)))
        CFI (cfiCond163) V0 load(1, XDATA, add(CFA_XSP16, literal(-8)))
        CFI (cfiCond163) V1 load(1, XDATA, add(CFA_XSP16, literal(-7)))
        CFI (cfiCond163) R7 load(1, XDATA, add(CFA_XSP16, literal(-6)))
        CFI (cfiCond163) ?RET_LOW load(1, XDATA, add(CFA_XSP16, literal(-5)))
        CFI (cfiCond163) ?RET_HIGH load(1, XDATA, add(CFA_XSP16, literal(-4)))
        CFI (cfiCond163) ?BRET_EXT load(1, XDATA, add(CFA_XSP16, literal(-3)))
        CFI (cfiCond163) DPL0 load(1, XDATA, add(CFA_XSP16, literal(-2)))
        CFI (cfiCond163) DPH0 load(1, XDATA, add(CFA_XSP16, literal(-1)))
        CFI (cfiCond163) CFA_SP SP+0
        CFI (cfiCond163) CFA_XSP16 add(XSP16, 10)
        CFI Block cfiCond164 Using cfiCommon0
        CFI (cfiCond164) NoFunction
        CFI (cfiCond164) Conditional ??CrossCallReturnLabel_95, ??CrossCallReturnLabel_15
        CFI (cfiCond164) R6 load(1, XDATA, add(CFA_XSP16, literal(-10)))
        CFI (cfiCond164) VB load(1, XDATA, add(CFA_XSP16, literal(-9)))
        CFI (cfiCond164) V0 load(1, XDATA, add(CFA_XSP16, literal(-8)))
        CFI (cfiCond164) V1 load(1, XDATA, add(CFA_XSP16, literal(-7)))
        CFI (cfiCond164) R7 load(1, XDATA, add(CFA_XSP16, literal(-6)))
        CFI (cfiCond164) ?RET_LOW load(1, XDATA, add(CFA_XSP16, literal(-5)))
        CFI (cfiCond164) ?RET_HIGH load(1, XDATA, add(CFA_XSP16, literal(-4)))
        CFI (cfiCond164) ?BRET_EXT load(1, XDATA, add(CFA_XSP16, literal(-3)))
        CFI (cfiCond164) DPL0 load(1, XDATA, add(CFA_XSP16, literal(-2)))
        CFI (cfiCond164) DPH0 load(1, XDATA, add(CFA_XSP16, literal(-1)))
        CFI (cfiCond164) CFA_SP SP+0
        CFI (cfiCond164) CFA_XSP16 add(XSP16, 10)
        CFI Block cfiCond165 Using cfiCommon0
        CFI (cfiCond165) NoFunction
        CFI (cfiCond165) Conditional ??CrossCallReturnLabel_97, ??CrossCallReturnLabel_89
        CFI (cfiCond165) R6 load(1, XDATA, add(CFA_XSP16, literal(-10)))
        CFI (cfiCond165) VB load(1, XDATA, add(CFA_XSP16, literal(-9)))
        CFI (cfiCond165) V0 load(1, XDATA, add(CFA_XSP16, literal(-8)))
        CFI (cfiCond165) V1 load(1, XDATA, add(CFA_XSP16, literal(-7)))
        CFI (cfiCond165) R7 load(1, XDATA, add(CFA_XSP16, literal(-6)))
        CFI (cfiCond165) ?RET_LOW load(1, XDATA, add(CFA_XSP16, literal(-5)))
        CFI (cfiCond165) ?RET_HIGH load(1, XDATA, add(CFA_XSP16, literal(-4)))
        CFI (cfiCond165) ?BRET_EXT load(1, XDATA, add(CFA_XSP16, literal(-3)))
        CFI (cfiCond165) DPL0 load(1, XDATA, add(CFA_XSP16, literal(-2)))
        CFI (cfiCond165) DPH0 load(1, XDATA, add(CFA_XSP16, literal(-1)))
        CFI (cfiCond165) CFA_SP SP+0
        CFI (cfiCond165) CFA_XSP16 add(XSP16, 10)
        CFI Block cfiCond166 Using cfiCommon0
        CFI (cfiCond166) NoFunction
        CFI (cfiCond166) Conditional ??CrossCallReturnLabel_97, ??CrossCallReturnLabel_90
        CFI (cfiCond166) DPL0 Frame(CFA_SP, 4)
        CFI (cfiCond166) DPH0 Frame(CFA_SP, 5)
        CFI (cfiCond166) CFA_SP SP+-5
        CFI Block cfiCond167 Using cfiCommon0
        CFI (cfiCond167) NoFunction
        CFI (cfiCond167) Conditional ??CrossCallReturnLabel_97, ??CrossCallReturnLabel_87
        CFI (cfiCond167) R6 load(1, XDATA, add(CFA_XSP16, literal(-10)))
        CFI (cfiCond167) VB load(1, XDATA, add(CFA_XSP16, literal(-9)))
        CFI (cfiCond167) V0 load(1, XDATA, add(CFA_XSP16, literal(-8)))
        CFI (cfiCond167) V1 load(1, XDATA, add(CFA_XSP16, literal(-7)))
        CFI (cfiCond167) R7 load(1, XDATA, add(CFA_XSP16, literal(-6)))
        CFI (cfiCond167) ?RET_LOW load(1, XDATA, add(CFA_XSP16, literal(-5)))
        CFI (cfiCond167) ?RET_HIGH load(1, XDATA, add(CFA_XSP16, literal(-4)))
        CFI (cfiCond167) ?BRET_EXT load(1, XDATA, add(CFA_XSP16, literal(-3)))
        CFI (cfiCond167) DPL0 load(1, XDATA, add(CFA_XSP16, literal(-2)))
        CFI (cfiCond167) DPH0 load(1, XDATA, add(CFA_XSP16, literal(-1)))
        CFI (cfiCond167) CFA_SP SP+0
        CFI (cfiCond167) CFA_XSP16 add(XSP16, 10)
        CFI Block cfiCond168 Using cfiCommon0
        CFI (cfiCond168) NoFunction
        CFI (cfiCond168) Conditional ??CrossCallReturnLabel_97, ??CrossCallReturnLabel_88
        CFI (cfiCond168) R6 load(1, XDATA, add(CFA_XSP16, literal(-10)))
        CFI (cfiCond168) VB load(1, XDATA, add(CFA_XSP16, literal(-9)))
        CFI (cfiCond168) V0 load(1, XDATA, add(CFA_XSP16, literal(-8)))
        CFI (cfiCond168) V1 load(1, XDATA, add(CFA_XSP16, literal(-7)))
        CFI (cfiCond168) R7 load(1, XDATA, add(CFA_XSP16, literal(-6)))
        CFI (cfiCond168) ?RET_LOW load(1, XDATA, add(CFA_XSP16, literal(-5)))
        CFI (cfiCond168) ?RET_HIGH load(1, XDATA, add(CFA_XSP16, literal(-4)))
        CFI (cfiCond168) ?BRET_EXT load(1, XDATA, add(CFA_XSP16, literal(-3)))
        CFI (cfiCond168) DPL0 load(1, XDATA, add(CFA_XSP16, literal(-2)))
        CFI (cfiCond168) DPH0 load(1, XDATA, add(CFA_XSP16, literal(-1)))
        CFI (cfiCond168) CFA_SP SP+0
        CFI (cfiCond168) CFA_XSP16 add(XSP16, 10)
        CFI Block cfiPicker169 Using cfiCommon1
        CFI (cfiPicker169) NoFunction
        CFI (cfiPicker169) Picker
        MOV     DPL,A
        MOV     A,R3
        CFI EndBlock cfiCond161
        CFI EndBlock cfiCond162
        CFI EndBlock cfiCond163
        CFI EndBlock cfiCond164
        CFI EndBlock cfiCond165
        CFI EndBlock cfiCond166
        CFI EndBlock cfiCond167
        CFI EndBlock cfiCond168
        CFI EndBlock cfiPicker169
        REQUIRE ??Subroutine40_0
        ; // Fall through to label ??Subroutine40_0

        RSEG BANKED_CODE:CODE:NOROOT(0)
??Subroutine40_0:
        CFI Block cfiCond170 Using cfiCommon0
        CFI NoFunction
        CFI Conditional ??CrossCallReturnLabel_93, ??CrossCallReturnLabel_56
        CFI R6 load(1, XDATA, add(CFA_XSP16, literal(-10)))
        CFI VB load(1, XDATA, add(CFA_XSP16, literal(-9)))
        CFI V0 load(1, XDATA, add(CFA_XSP16, literal(-8)))
        CFI V1 load(1, XDATA, add(CFA_XSP16, literal(-7)))
        CFI R7 load(1, XDATA, add(CFA_XSP16, literal(-6)))
        CFI ?RET_LOW load(1, XDATA, add(CFA_XSP16, literal(-5)))
        CFI ?RET_HIGH load(1, XDATA, add(CFA_XSP16, literal(-4)))
        CFI ?BRET_EXT load(1, XDATA, add(CFA_XSP16, literal(-3)))
        CFI DPL0 load(1, XDATA, add(CFA_XSP16, literal(-2)))
        CFI DPH0 load(1, XDATA, add(CFA_XSP16, literal(-1)))
        CFI CFA_SP SP+-1
        CFI CFA_XSP16 add(XSP16, 10)
        CFI Block cfiCond171 Using cfiCommon0
        CFI (cfiCond171) NoFunction
        CFI (cfiCond171) Conditional ??CrossCallReturnLabel_93, ??CrossCallReturnLabel_57
        CFI (cfiCond171) R6 load(1, XDATA, add(CFA_XSP16, literal(-10)))
        CFI (cfiCond171) VB load(1, XDATA, add(CFA_XSP16, literal(-9)))
        CFI (cfiCond171) V0 load(1, XDATA, add(CFA_XSP16, literal(-8)))
        CFI (cfiCond171) V1 load(1, XDATA, add(CFA_XSP16, literal(-7)))
        CFI (cfiCond171) R7 load(1, XDATA, add(CFA_XSP16, literal(-6)))
        CFI (cfiCond171) ?RET_LOW load(1, XDATA, add(CFA_XSP16, literal(-5)))
        CFI (cfiCond171) ?RET_HIGH load(1, XDATA, add(CFA_XSP16, literal(-4)))
        CFI (cfiCond171) ?BRET_EXT load(1, XDATA, add(CFA_XSP16, literal(-3)))
        CFI (cfiCond171) DPL0 load(1, XDATA, add(CFA_XSP16, literal(-2)))
        CFI (cfiCond171) DPH0 load(1, XDATA, add(CFA_XSP16, literal(-1)))
        CFI (cfiCond171) CFA_SP SP+0
        CFI (cfiCond171) CFA_XSP16 add(XSP16, 10)
        CFI Block cfiCond172 Using cfiCommon0
        CFI (cfiCond172) NoFunction
        CFI (cfiCond172) Conditional ??CrossCallReturnLabel_93, ??CrossCallReturnLabel_58
        CFI (cfiCond172) R6 load(1, XDATA, add(CFA_XSP16, literal(-10)))
        CFI (cfiCond172) VB load(1, XDATA, add(CFA_XSP16, literal(-9)))
        CFI (cfiCond172) V0 load(1, XDATA, add(CFA_XSP16, literal(-8)))
        CFI (cfiCond172) V1 load(1, XDATA, add(CFA_XSP16, literal(-7)))
        CFI (cfiCond172) R7 load(1, XDATA, add(CFA_XSP16, literal(-6)))
        CFI (cfiCond172) ?RET_LOW load(1, XDATA, add(CFA_XSP16, literal(-5)))
        CFI (cfiCond172) ?RET_HIGH load(1, XDATA, add(CFA_XSP16, literal(-4)))
        CFI (cfiCond172) ?BRET_EXT load(1, XDATA, add(CFA_XSP16, literal(-3)))
        CFI (cfiCond172) DPL0 load(1, XDATA, add(CFA_XSP16, literal(-2)))
        CFI (cfiCond172) DPH0 load(1, XDATA, add(CFA_XSP16, literal(-1)))
        CFI (cfiCond172) CFA_SP SP+-1
        CFI (cfiCond172) CFA_XSP16 add(XSP16, 10)
        CFI Block cfiCond173 Using cfiCommon0
        CFI (cfiCond173) NoFunction
        CFI (cfiCond173) Conditional ??CrossCallReturnLabel_93, ??CrossCallReturnLabel_59
        CFI (cfiCond173) R6 load(1, XDATA, add(CFA_XSP16, literal(-10)))
        CFI (cfiCond173) VB load(1, XDATA, add(CFA_XSP16, literal(-9)))
        CFI (cfiCond173) V0 load(1, XDATA, add(CFA_XSP16, literal(-8)))
        CFI (cfiCond173) V1 load(1, XDATA, add(CFA_XSP16, literal(-7)))
        CFI (cfiCond173) R7 load(1, XDATA, add(CFA_XSP16, literal(-6)))
        CFI (cfiCond173) ?RET_LOW load(1, XDATA, add(CFA_XSP16, literal(-5)))
        CFI (cfiCond173) ?RET_HIGH load(1, XDATA, add(CFA_XSP16, literal(-4)))
        CFI (cfiCond173) ?BRET_EXT load(1, XDATA, add(CFA_XSP16, literal(-3)))
        CFI (cfiCond173) DPL0 load(1, XDATA, add(CFA_XSP16, literal(-2)))
        CFI (cfiCond173) DPH0 load(1, XDATA, add(CFA_XSP16, literal(-1)))
        CFI (cfiCond173) CFA_SP SP+0
        CFI (cfiCond173) CFA_XSP16 add(XSP16, 10)
        CFI Block cfiCond174 Using cfiCommon0
        CFI (cfiCond174) NoFunction
        CFI (cfiCond174) Conditional ??CrossCallReturnLabel_93, ??CrossCallReturnLabel_60
        CFI (cfiCond174) R6 load(1, XDATA, add(CFA_XSP16, literal(-10)))
        CFI (cfiCond174) VB load(1, XDATA, add(CFA_XSP16, literal(-9)))
        CFI (cfiCond174) V0 load(1, XDATA, add(CFA_XSP16, literal(-8)))
        CFI (cfiCond174) V1 load(1, XDATA, add(CFA_XSP16, literal(-7)))
        CFI (cfiCond174) R7 load(1, XDATA, add(CFA_XSP16, literal(-6)))
        CFI (cfiCond174) ?RET_LOW load(1, XDATA, add(CFA_XSP16, literal(-5)))
        CFI (cfiCond174) ?RET_HIGH load(1, XDATA, add(CFA_XSP16, literal(-4)))
        CFI (cfiCond174) ?BRET_EXT load(1, XDATA, add(CFA_XSP16, literal(-3)))
        CFI (cfiCond174) DPL0 load(1, XDATA, add(CFA_XSP16, literal(-2)))
        CFI (cfiCond174) DPH0 load(1, XDATA, add(CFA_XSP16, literal(-1)))
        CFI (cfiCond174) CFA_SP SP+0
        CFI (cfiCond174) CFA_XSP16 add(XSP16, 10)
        CFI Block cfiCond175 Using cfiCommon0
        CFI (cfiCond175) NoFunction
        CFI (cfiCond175) Conditional ??CrossCallReturnLabel_93, ??CrossCallReturnLabel_61
        CFI (cfiCond175) R6 load(1, XDATA, add(CFA_XSP16, literal(-10)))
        CFI (cfiCond175) VB load(1, XDATA, add(CFA_XSP16, literal(-9)))
        CFI (cfiCond175) V0 load(1, XDATA, add(CFA_XSP16, literal(-8)))
        CFI (cfiCond175) V1 load(1, XDATA, add(CFA_XSP16, literal(-7)))
        CFI (cfiCond175) R7 load(1, XDATA, add(CFA_XSP16, literal(-6)))
        CFI (cfiCond175) ?RET_LOW load(1, XDATA, add(CFA_XSP16, literal(-5)))
        CFI (cfiCond175) ?RET_HIGH load(1, XDATA, add(CFA_XSP16, literal(-4)))
        CFI (cfiCond175) ?BRET_EXT load(1, XDATA, add(CFA_XSP16, literal(-3)))
        CFI (cfiCond175) DPL0 load(1, XDATA, add(CFA_XSP16, literal(-2)))
        CFI (cfiCond175) DPH0 load(1, XDATA, add(CFA_XSP16, literal(-1)))
        CFI (cfiCond175) CFA_SP SP+0
        CFI (cfiCond175) CFA_XSP16 add(XSP16, 10)
        CFI Block cfiCond176 Using cfiCommon0
        CFI (cfiCond176) NoFunction
        CFI (cfiCond176) Conditional ??CrossCallReturnLabel_93, ??CrossCallReturnLabel_62
        CFI (cfiCond176) R6 load(1, XDATA, add(CFA_XSP16, literal(-10)))
        CFI (cfiCond176) VB load(1, XDATA, add(CFA_XSP16, literal(-9)))
        CFI (cfiCond176) V0 load(1, XDATA, add(CFA_XSP16, literal(-8)))
        CFI (cfiCond176) V1 load(1, XDATA, add(CFA_XSP16, literal(-7)))
        CFI (cfiCond176) R7 load(1, XDATA, add(CFA_XSP16, literal(-6)))
        CFI (cfiCond176) ?RET_LOW load(1, XDATA, add(CFA_XSP16, literal(-5)))
        CFI (cfiCond176) ?RET_HIGH load(1, XDATA, add(CFA_XSP16, literal(-4)))
        CFI (cfiCond176) ?BRET_EXT load(1, XDATA, add(CFA_XSP16, literal(-3)))
        CFI (cfiCond176) DPL0 load(1, XDATA, add(CFA_XSP16, literal(-2)))
        CFI (cfiCond176) DPH0 load(1, XDATA, add(CFA_XSP16, literal(-1)))
        CFI (cfiCond176) CFA_SP SP+0
        CFI (cfiCond176) CFA_XSP16 add(XSP16, 10)
        CFI Block cfiCond177 Using cfiCommon0
        CFI (cfiCond177) NoFunction
        CFI (cfiCond177) Conditional ??CrossCallReturnLabel_93, ??CrossCallReturnLabel_63
        CFI (cfiCond177) R6 load(1, XDATA, add(CFA_XSP16, literal(-9)))
        CFI (cfiCond177) VB load(1, XDATA, add(CFA_XSP16, literal(-8)))
        CFI (cfiCond177) V0 load(1, XDATA, add(CFA_XSP16, literal(-7)))
        CFI (cfiCond177) R7 load(1, XDATA, add(CFA_XSP16, literal(-6)))
        CFI (cfiCond177) ?RET_LOW load(1, XDATA, add(CFA_XSP16, literal(-5)))
        CFI (cfiCond177) ?RET_HIGH load(1, XDATA, add(CFA_XSP16, literal(-4)))
        CFI (cfiCond177) ?BRET_EXT load(1, XDATA, add(CFA_XSP16, literal(-3)))
        CFI (cfiCond177) DPL0 load(1, XDATA, add(CFA_XSP16, literal(-2)))
        CFI (cfiCond177) DPH0 load(1, XDATA, add(CFA_XSP16, literal(-1)))
        CFI (cfiCond177) CFA_SP SP+0
        CFI (cfiCond177) CFA_XSP16 add(XSP16, 9)
        CFI Block cfiCond178 Using cfiCommon0
        CFI (cfiCond178) NoFunction
        CFI (cfiCond178) Conditional ??CrossCallReturnLabel_93, ??CrossCallReturnLabel_53
        CFI (cfiCond178) R6 load(1, XDATA, add(CFA_XSP16, literal(-13)))
        CFI (cfiCond178) VB load(1, XDATA, add(CFA_XSP16, literal(-12)))
        CFI (cfiCond178) V0 load(1, XDATA, add(CFA_XSP16, literal(-11)))
        CFI (cfiCond178) V1 load(1, XDATA, add(CFA_XSP16, literal(-10)))
        CFI (cfiCond178) V2 load(1, XDATA, add(CFA_XSP16, literal(-9)))
        CFI (cfiCond178) V3 load(1, XDATA, add(CFA_XSP16, literal(-8)))
        CFI (cfiCond178) V4 load(1, XDATA, add(CFA_XSP16, literal(-7)))
        CFI (cfiCond178) R7 load(1, XDATA, add(CFA_XSP16, literal(-6)))
        CFI (cfiCond178) ?RET_LOW load(1, XDATA, add(CFA_XSP16, literal(-5)))
        CFI (cfiCond178) ?RET_HIGH load(1, XDATA, add(CFA_XSP16, literal(-4)))
        CFI (cfiCond178) ?BRET_EXT load(1, XDATA, add(CFA_XSP16, literal(-3)))
        CFI (cfiCond178) DPL0 load(1, XDATA, add(CFA_XSP16, literal(-2)))
        CFI (cfiCond178) DPH0 load(1, XDATA, add(CFA_XSP16, literal(-1)))
        CFI (cfiCond178) CFA_SP SP+0
        CFI (cfiCond178) CFA_XSP16 add(XSP16, 16)
        CFI Block cfiCond179 Using cfiCommon0
        CFI (cfiCond179) NoFunction
        CFI (cfiCond179) Conditional ??CrossCallReturnLabel_93, ??CrossCallReturnLabel_54
        CFI (cfiCond179) R6 load(1, XDATA, add(CFA_XSP16, literal(-18)))
        CFI (cfiCond179) VB load(1, XDATA, add(CFA_XSP16, literal(-17)))
        CFI (cfiCond179) V0 load(1, XDATA, add(CFA_XSP16, literal(-16)))
        CFI (cfiCond179) V1 load(1, XDATA, add(CFA_XSP16, literal(-15)))
        CFI (cfiCond179) V2 load(1, XDATA, add(CFA_XSP16, literal(-14)))
        CFI (cfiCond179) V3 load(1, XDATA, add(CFA_XSP16, literal(-13)))
        CFI (cfiCond179) V4 load(1, XDATA, add(CFA_XSP16, literal(-12)))
        CFI (cfiCond179) V5 load(1, XDATA, add(CFA_XSP16, literal(-11)))
        CFI (cfiCond179) V6 load(1, XDATA, add(CFA_XSP16, literal(-10)))
        CFI (cfiCond179) V7 load(1, XDATA, add(CFA_XSP16, literal(-9)))
        CFI (cfiCond179) V8 load(1, XDATA, add(CFA_XSP16, literal(-8)))
        CFI (cfiCond179) V9 load(1, XDATA, add(CFA_XSP16, literal(-7)))
        CFI (cfiCond179) R7 load(1, XDATA, add(CFA_XSP16, literal(-6)))
        CFI (cfiCond179) ?RET_LOW load(1, XDATA, add(CFA_XSP16, literal(-5)))
        CFI (cfiCond179) ?RET_HIGH load(1, XDATA, add(CFA_XSP16, literal(-4)))
        CFI (cfiCond179) ?BRET_EXT load(1, XDATA, add(CFA_XSP16, literal(-3)))
        CFI (cfiCond179) DPL0 load(1, XDATA, add(CFA_XSP16, literal(-2)))
        CFI (cfiCond179) DPH0 load(1, XDATA, add(CFA_XSP16, literal(-1)))
        CFI (cfiCond179) CFA_SP SP+-1
        CFI (cfiCond179) CFA_XSP16 add(XSP16, 18)
        CFI Block cfiCond180 Using cfiCommon0
        CFI (cfiCond180) NoFunction
        CFI (cfiCond180) Conditional ??CrossCallReturnLabel_93, ??CrossCallReturnLabel_55
        CFI (cfiCond180) R6 load(1, XDATA, add(CFA_XSP16, literal(-18)))
        CFI (cfiCond180) VB load(1, XDATA, add(CFA_XSP16, literal(-17)))
        CFI (cfiCond180) V0 load(1, XDATA, add(CFA_XSP16, literal(-16)))
        CFI (cfiCond180) V1 load(1, XDATA, add(CFA_XSP16, literal(-15)))
        CFI (cfiCond180) V2 load(1, XDATA, add(CFA_XSP16, literal(-14)))
        CFI (cfiCond180) V3 load(1, XDATA, add(CFA_XSP16, literal(-13)))
        CFI (cfiCond180) V4 load(1, XDATA, add(CFA_XSP16, literal(-12)))
        CFI (cfiCond180) V5 load(1, XDATA, add(CFA_XSP16, literal(-11)))
        CFI (cfiCond180) V6 load(1, XDATA, add(CFA_XSP16, literal(-10)))
        CFI (cfiCond180) V7 load(1, XDATA, add(CFA_XSP16, literal(-9)))
        CFI (cfiCond180) V8 load(1, XDATA, add(CFA_XSP16, literal(-8)))
        CFI (cfiCond180) V9 load(1, XDATA, add(CFA_XSP16, literal(-7)))
        CFI (cfiCond180) R7 load(1, XDATA, add(CFA_XSP16, literal(-6)))
        CFI (cfiCond180) ?RET_LOW load(1, XDATA, add(CFA_XSP16, literal(-5)))
        CFI (cfiCond180) ?RET_HIGH load(1, XDATA, add(CFA_XSP16, literal(-4)))
        CFI (cfiCond180) ?BRET_EXT load(1, XDATA, add(CFA_XSP16, literal(-3)))
        CFI (cfiCond180) DPL0 load(1, XDATA, add(CFA_XSP16, literal(-2)))
        CFI (cfiCond180) DPH0 load(1, XDATA, add(CFA_XSP16, literal(-1)))
        CFI (cfiCond180) CFA_SP SP+-1
        CFI (cfiCond180) CFA_XSP16 add(XSP16, 18)
        CFI Block cfiCond181 Using cfiCommon0
        CFI (cfiCond181) NoFunction
        CFI (cfiCond181) Conditional ??CrossCallReturnLabel_92, ??CrossCallReturnLabel_11
        CFI (cfiCond181) R6 load(1, XDATA, add(CFA_XSP16, literal(-13)))
        CFI (cfiCond181) VB load(1, XDATA, add(CFA_XSP16, literal(-12)))
        CFI (cfiCond181) V0 load(1, XDATA, add(CFA_XSP16, literal(-11)))
        CFI (cfiCond181) V1 load(1, XDATA, add(CFA_XSP16, literal(-10)))
        CFI (cfiCond181) V2 load(1, XDATA, add(CFA_XSP16, literal(-9)))
        CFI (cfiCond181) V3 load(1, XDATA, add(CFA_XSP16, literal(-8)))
        CFI (cfiCond181) V4 load(1, XDATA, add(CFA_XSP16, literal(-7)))
        CFI (cfiCond181) R7 load(1, XDATA, add(CFA_XSP16, literal(-6)))
        CFI (cfiCond181) ?RET_LOW load(1, XDATA, add(CFA_XSP16, literal(-5)))
        CFI (cfiCond181) ?RET_HIGH load(1, XDATA, add(CFA_XSP16, literal(-4)))
        CFI (cfiCond181) ?BRET_EXT load(1, XDATA, add(CFA_XSP16, literal(-3)))
        CFI (cfiCond181) DPL0 load(1, XDATA, add(CFA_XSP16, literal(-2)))
        CFI (cfiCond181) DPH0 load(1, XDATA, add(CFA_XSP16, literal(-1)))
        CFI (cfiCond181) CFA_SP SP+0
        CFI (cfiCond181) CFA_XSP16 add(XSP16, 17)
        CFI Block cfiCond182 Using cfiCommon0
        CFI (cfiCond182) NoFunction
        CFI (cfiCond182) Conditional ??CrossCallReturnLabel_92, ??CrossCallReturnLabel_12
        CFI (cfiCond182) R6 load(1, XDATA, add(CFA_XSP16, literal(-13)))
        CFI (cfiCond182) VB load(1, XDATA, add(CFA_XSP16, literal(-12)))
        CFI (cfiCond182) V0 load(1, XDATA, add(CFA_XSP16, literal(-11)))
        CFI (cfiCond182) V1 load(1, XDATA, add(CFA_XSP16, literal(-10)))
        CFI (cfiCond182) V2 load(1, XDATA, add(CFA_XSP16, literal(-9)))
        CFI (cfiCond182) V3 load(1, XDATA, add(CFA_XSP16, literal(-8)))
        CFI (cfiCond182) V4 load(1, XDATA, add(CFA_XSP16, literal(-7)))
        CFI (cfiCond182) R7 load(1, XDATA, add(CFA_XSP16, literal(-6)))
        CFI (cfiCond182) ?RET_LOW load(1, XDATA, add(CFA_XSP16, literal(-5)))
        CFI (cfiCond182) ?RET_HIGH load(1, XDATA, add(CFA_XSP16, literal(-4)))
        CFI (cfiCond182) ?BRET_EXT load(1, XDATA, add(CFA_XSP16, literal(-3)))
        CFI (cfiCond182) DPL0 load(1, XDATA, add(CFA_XSP16, literal(-2)))
        CFI (cfiCond182) DPH0 load(1, XDATA, add(CFA_XSP16, literal(-1)))
        CFI (cfiCond182) CFA_SP SP+0
        CFI (cfiCond182) CFA_XSP16 add(XSP16, 17)
        CFI Block cfiCond183 Using cfiCommon0
        CFI (cfiCond183) NoFunction
        CFI (cfiCond183) Conditional ??CrossCallReturnLabel_92, ??CrossCallReturnLabel_13
        CFI (cfiCond183) R6 load(1, XDATA, add(CFA_XSP16, literal(-13)))
        CFI (cfiCond183) VB load(1, XDATA, add(CFA_XSP16, literal(-12)))
        CFI (cfiCond183) V0 load(1, XDATA, add(CFA_XSP16, literal(-11)))
        CFI (cfiCond183) V1 load(1, XDATA, add(CFA_XSP16, literal(-10)))
        CFI (cfiCond183) V2 load(1, XDATA, add(CFA_XSP16, literal(-9)))
        CFI (cfiCond183) V3 load(1, XDATA, add(CFA_XSP16, literal(-8)))
        CFI (cfiCond183) V4 load(1, XDATA, add(CFA_XSP16, literal(-7)))
        CFI (cfiCond183) R7 load(1, XDATA, add(CFA_XSP16, literal(-6)))
        CFI (cfiCond183) ?RET_LOW load(1, XDATA, add(CFA_XSP16, literal(-5)))
        CFI (cfiCond183) ?RET_HIGH load(1, XDATA, add(CFA_XSP16, literal(-4)))
        CFI (cfiCond183) ?BRET_EXT load(1, XDATA, add(CFA_XSP16, literal(-3)))
        CFI (cfiCond183) DPL0 load(1, XDATA, add(CFA_XSP16, literal(-2)))
        CFI (cfiCond183) DPH0 load(1, XDATA, add(CFA_XSP16, literal(-1)))
        CFI (cfiCond183) CFA_SP SP+0
        CFI (cfiCond183) CFA_XSP16 add(XSP16, 17)
        CFI Block cfiCond184 Using cfiCommon0
        CFI (cfiCond184) NoFunction
        CFI (cfiCond184) Conditional ??CrossCallReturnLabel_91, ??CrossCallReturnLabel_3
        CFI (cfiCond184) R6 load(1, XDATA, add(CFA_XSP16, literal(-13)))
        CFI (cfiCond184) VB load(1, XDATA, add(CFA_XSP16, literal(-12)))
        CFI (cfiCond184) V0 load(1, XDATA, add(CFA_XSP16, literal(-11)))
        CFI (cfiCond184) V1 load(1, XDATA, add(CFA_XSP16, literal(-10)))
        CFI (cfiCond184) V2 load(1, XDATA, add(CFA_XSP16, literal(-9)))
        CFI (cfiCond184) V3 load(1, XDATA, add(CFA_XSP16, literal(-8)))
        CFI (cfiCond184) V4 load(1, XDATA, add(CFA_XSP16, literal(-7)))
        CFI (cfiCond184) R7 load(1, XDATA, add(CFA_XSP16, literal(-6)))
        CFI (cfiCond184) ?RET_LOW load(1, XDATA, add(CFA_XSP16, literal(-5)))
        CFI (cfiCond184) ?RET_HIGH load(1, XDATA, add(CFA_XSP16, literal(-4)))
        CFI (cfiCond184) ?BRET_EXT load(1, XDATA, add(CFA_XSP16, literal(-3)))
        CFI (cfiCond184) DPL0 load(1, XDATA, add(CFA_XSP16, literal(-2)))
        CFI (cfiCond184) DPH0 load(1, XDATA, add(CFA_XSP16, literal(-1)))
        CFI (cfiCond184) CFA_SP SP+0
        CFI (cfiCond184) CFA_XSP16 add(XSP16, 16)
        CFI Block cfiCond185 Using cfiCommon0
        CFI (cfiCond185) NoFunction
        CFI (cfiCond185) Conditional ??CrossCallReturnLabel_91, ??CrossCallReturnLabel_4
        CFI (cfiCond185) R6 load(1, XDATA, add(CFA_XSP16, literal(-13)))
        CFI (cfiCond185) VB load(1, XDATA, add(CFA_XSP16, literal(-12)))
        CFI (cfiCond185) V0 load(1, XDATA, add(CFA_XSP16, literal(-11)))
        CFI (cfiCond185) V1 load(1, XDATA, add(CFA_XSP16, literal(-10)))
        CFI (cfiCond185) V2 load(1, XDATA, add(CFA_XSP16, literal(-9)))
        CFI (cfiCond185) V3 load(1, XDATA, add(CFA_XSP16, literal(-8)))
        CFI (cfiCond185) V4 load(1, XDATA, add(CFA_XSP16, literal(-7)))
        CFI (cfiCond185) R7 load(1, XDATA, add(CFA_XSP16, literal(-6)))
        CFI (cfiCond185) ?RET_LOW load(1, XDATA, add(CFA_XSP16, literal(-5)))
        CFI (cfiCond185) ?RET_HIGH load(1, XDATA, add(CFA_XSP16, literal(-4)))
        CFI (cfiCond185) ?BRET_EXT load(1, XDATA, add(CFA_XSP16, literal(-3)))
        CFI (cfiCond185) DPL0 load(1, XDATA, add(CFA_XSP16, literal(-2)))
        CFI (cfiCond185) DPH0 load(1, XDATA, add(CFA_XSP16, literal(-1)))
        CFI (cfiCond185) CFA_SP SP+0
        CFI (cfiCond185) CFA_XSP16 add(XSP16, 16)
        CFI Block cfiCond186 Using cfiCommon0
        CFI (cfiCond186) NoFunction
        CFI (cfiCond186) Conditional ??CrossCallReturnLabel_94, ??CrossCallReturnLabel_79
        CFI (cfiCond186) R6 load(1, XDATA, add(CFA_XSP16, literal(-18)))
        CFI (cfiCond186) VB load(1, XDATA, add(CFA_XSP16, literal(-17)))
        CFI (cfiCond186) V0 load(1, XDATA, add(CFA_XSP16, literal(-16)))
        CFI (cfiCond186) V1 load(1, XDATA, add(CFA_XSP16, literal(-15)))
        CFI (cfiCond186) V2 load(1, XDATA, add(CFA_XSP16, literal(-14)))
        CFI (cfiCond186) V3 load(1, XDATA, add(CFA_XSP16, literal(-13)))
        CFI (cfiCond186) V4 load(1, XDATA, add(CFA_XSP16, literal(-12)))
        CFI (cfiCond186) V5 load(1, XDATA, add(CFA_XSP16, literal(-11)))
        CFI (cfiCond186) V6 load(1, XDATA, add(CFA_XSP16, literal(-10)))
        CFI (cfiCond186) V7 load(1, XDATA, add(CFA_XSP16, literal(-9)))
        CFI (cfiCond186) V8 load(1, XDATA, add(CFA_XSP16, literal(-8)))
        CFI (cfiCond186) V9 load(1, XDATA, add(CFA_XSP16, literal(-7)))
        CFI (cfiCond186) R7 load(1, XDATA, add(CFA_XSP16, literal(-6)))
        CFI (cfiCond186) ?RET_LOW load(1, XDATA, add(CFA_XSP16, literal(-5)))
        CFI (cfiCond186) ?RET_HIGH load(1, XDATA, add(CFA_XSP16, literal(-4)))
        CFI (cfiCond186) ?BRET_EXT load(1, XDATA, add(CFA_XSP16, literal(-3)))
        CFI (cfiCond186) DPL0 load(1, XDATA, add(CFA_XSP16, literal(-2)))
        CFI (cfiCond186) DPH0 load(1, XDATA, add(CFA_XSP16, literal(-1)))
        CFI (cfiCond186) CFA_SP SP+0
        CFI (cfiCond186) CFA_XSP16 add(XSP16, 18)
        CFI Block cfiCond187 Using cfiCommon0
        CFI (cfiCond187) NoFunction
        CFI (cfiCond187) Conditional ??CrossCallReturnLabel_94, ??CrossCallReturnLabel_80
        CFI (cfiCond187) R6 load(1, XDATA, add(CFA_XSP16, literal(-18)))
        CFI (cfiCond187) VB load(1, XDATA, add(CFA_XSP16, literal(-17)))
        CFI (cfiCond187) V0 load(1, XDATA, add(CFA_XSP16, literal(-16)))
        CFI (cfiCond187) V1 load(1, XDATA, add(CFA_XSP16, literal(-15)))
        CFI (cfiCond187) V2 load(1, XDATA, add(CFA_XSP16, literal(-14)))
        CFI (cfiCond187) V3 load(1, XDATA, add(CFA_XSP16, literal(-13)))
        CFI (cfiCond187) V4 load(1, XDATA, add(CFA_XSP16, literal(-12)))
        CFI (cfiCond187) V5 load(1, XDATA, add(CFA_XSP16, literal(-11)))
        CFI (cfiCond187) V6 load(1, XDATA, add(CFA_XSP16, literal(-10)))
        CFI (cfiCond187) V7 load(1, XDATA, add(CFA_XSP16, literal(-9)))
        CFI (cfiCond187) V8 load(1, XDATA, add(CFA_XSP16, literal(-8)))
        CFI (cfiCond187) V9 load(1, XDATA, add(CFA_XSP16, literal(-7)))
        CFI (cfiCond187) R7 load(1, XDATA, add(CFA_XSP16, literal(-6)))
        CFI (cfiCond187) ?RET_LOW load(1, XDATA, add(CFA_XSP16, literal(-5)))
        CFI (cfiCond187) ?RET_HIGH load(1, XDATA, add(CFA_XSP16, literal(-4)))
        CFI (cfiCond187) ?BRET_EXT load(1, XDATA, add(CFA_XSP16, literal(-3)))
        CFI (cfiCond187) DPL0 load(1, XDATA, add(CFA_XSP16, literal(-2)))
        CFI (cfiCond187) DPH0 load(1, XDATA, add(CFA_XSP16, literal(-1)))
        CFI (cfiCond187) CFA_SP SP+0
        CFI (cfiCond187) CFA_XSP16 add(XSP16, 18)
        CFI Block cfiCond188 Using cfiCommon0
        CFI (cfiCond188) NoFunction
        CFI (cfiCond188) Conditional ??CrossCallReturnLabel_94, ??CrossCallReturnLabel_78
        CFI (cfiCond188) R6 load(1, XDATA, add(CFA_XSP16, literal(-18)))
        CFI (cfiCond188) VB load(1, XDATA, add(CFA_XSP16, literal(-17)))
        CFI (cfiCond188) V0 load(1, XDATA, add(CFA_XSP16, literal(-16)))
        CFI (cfiCond188) V1 load(1, XDATA, add(CFA_XSP16, literal(-15)))
        CFI (cfiCond188) V2 load(1, XDATA, add(CFA_XSP16, literal(-14)))
        CFI (cfiCond188) V3 load(1, XDATA, add(CFA_XSP16, literal(-13)))
        CFI (cfiCond188) V4 load(1, XDATA, add(CFA_XSP16, literal(-12)))
        CFI (cfiCond188) V5 load(1, XDATA, add(CFA_XSP16, literal(-11)))
        CFI (cfiCond188) V6 load(1, XDATA, add(CFA_XSP16, literal(-10)))
        CFI (cfiCond188) V7 load(1, XDATA, add(CFA_XSP16, literal(-9)))
        CFI (cfiCond188) V8 load(1, XDATA, add(CFA_XSP16, literal(-8)))
        CFI (cfiCond188) V9 load(1, XDATA, add(CFA_XSP16, literal(-7)))
        CFI (cfiCond188) R7 load(1, XDATA, add(CFA_XSP16, literal(-6)))
        CFI (cfiCond188) ?RET_LOW load(1, XDATA, add(CFA_XSP16, literal(-5)))
        CFI (cfiCond188) ?RET_HIGH load(1, XDATA, add(CFA_XSP16, literal(-4)))
        CFI (cfiCond188) ?BRET_EXT load(1, XDATA, add(CFA_XSP16, literal(-3)))
        CFI (cfiCond188) DPL0 load(1, XDATA, add(CFA_XSP16, literal(-2)))
        CFI (cfiCond188) DPH0 load(1, XDATA, add(CFA_XSP16, literal(-1)))
        CFI (cfiCond188) CFA_SP SP+0
        CFI (cfiCond188) CFA_XSP16 add(XSP16, 20)
        CFI Block cfiCond189 Using cfiCommon0
        CFI (cfiCond189) NoFunction
        CFI (cfiCond189) Conditional ??CrossCallReturnLabel_94, ??CrossCallReturnLabel_74
        CFI (cfiCond189) R6 load(1, XDATA, add(CFA_XSP16, literal(-13)))
        CFI (cfiCond189) VB load(1, XDATA, add(CFA_XSP16, literal(-12)))
        CFI (cfiCond189) V0 load(1, XDATA, add(CFA_XSP16, literal(-11)))
        CFI (cfiCond189) V1 load(1, XDATA, add(CFA_XSP16, literal(-10)))
        CFI (cfiCond189) V2 load(1, XDATA, add(CFA_XSP16, literal(-9)))
        CFI (cfiCond189) V3 load(1, XDATA, add(CFA_XSP16, literal(-8)))
        CFI (cfiCond189) V4 load(1, XDATA, add(CFA_XSP16, literal(-7)))
        CFI (cfiCond189) R7 load(1, XDATA, add(CFA_XSP16, literal(-6)))
        CFI (cfiCond189) ?RET_LOW load(1, XDATA, add(CFA_XSP16, literal(-5)))
        CFI (cfiCond189) ?RET_HIGH load(1, XDATA, add(CFA_XSP16, literal(-4)))
        CFI (cfiCond189) ?BRET_EXT load(1, XDATA, add(CFA_XSP16, literal(-3)))
        CFI (cfiCond189) DPL0 load(1, XDATA, add(CFA_XSP16, literal(-2)))
        CFI (cfiCond189) DPH0 load(1, XDATA, add(CFA_XSP16, literal(-1)))
        CFI (cfiCond189) CFA_SP SP+0
        CFI (cfiCond189) CFA_XSP16 add(XSP16, 16)
        CFI Block cfiCond190 Using cfiCommon0
        CFI (cfiCond190) NoFunction
        CFI (cfiCond190) Conditional ??CrossCallReturnLabel_94, ??CrossCallReturnLabel_75
        CFI (cfiCond190) R6 load(1, XDATA, add(CFA_XSP16, literal(-13)))
        CFI (cfiCond190) VB load(1, XDATA, add(CFA_XSP16, literal(-12)))
        CFI (cfiCond190) V0 load(1, XDATA, add(CFA_XSP16, literal(-11)))
        CFI (cfiCond190) V1 load(1, XDATA, add(CFA_XSP16, literal(-10)))
        CFI (cfiCond190) V2 load(1, XDATA, add(CFA_XSP16, literal(-9)))
        CFI (cfiCond190) V3 load(1, XDATA, add(CFA_XSP16, literal(-8)))
        CFI (cfiCond190) V4 load(1, XDATA, add(CFA_XSP16, literal(-7)))
        CFI (cfiCond190) R7 load(1, XDATA, add(CFA_XSP16, literal(-6)))
        CFI (cfiCond190) ?RET_LOW load(1, XDATA, add(CFA_XSP16, literal(-5)))
        CFI (cfiCond190) ?RET_HIGH load(1, XDATA, add(CFA_XSP16, literal(-4)))
        CFI (cfiCond190) ?BRET_EXT load(1, XDATA, add(CFA_XSP16, literal(-3)))
        CFI (cfiCond190) DPL0 load(1, XDATA, add(CFA_XSP16, literal(-2)))
        CFI (cfiCond190) DPH0 load(1, XDATA, add(CFA_XSP16, literal(-1)))
        CFI (cfiCond190) CFA_SP SP+0
        CFI (cfiCond190) CFA_XSP16 add(XSP16, 16)
        CFI Block cfiCond191 Using cfiCommon0
        CFI (cfiCond191) NoFunction
        CFI (cfiCond191) Conditional ??CrossCallReturnLabel_94, ??CrossCallReturnLabel_76
        CFI (cfiCond191) R6 load(1, XDATA, add(CFA_XSP16, literal(-18)))
        CFI (cfiCond191) VB load(1, XDATA, add(CFA_XSP16, literal(-17)))
        CFI (cfiCond191) V0 load(1, XDATA, add(CFA_XSP16, literal(-16)))
        CFI (cfiCond191) V1 load(1, XDATA, add(CFA_XSP16, literal(-15)))
        CFI (cfiCond191) V2 load(1, XDATA, add(CFA_XSP16, literal(-14)))
        CFI (cfiCond191) V3 load(1, XDATA, add(CFA_XSP16, literal(-13)))
        CFI (cfiCond191) V4 load(1, XDATA, add(CFA_XSP16, literal(-12)))
        CFI (cfiCond191) V5 load(1, XDATA, add(CFA_XSP16, literal(-11)))
        CFI (cfiCond191) V6 load(1, XDATA, add(CFA_XSP16, literal(-10)))
        CFI (cfiCond191) V7 load(1, XDATA, add(CFA_XSP16, literal(-9)))
        CFI (cfiCond191) V8 load(1, XDATA, add(CFA_XSP16, literal(-8)))
        CFI (cfiCond191) V9 load(1, XDATA, add(CFA_XSP16, literal(-7)))
        CFI (cfiCond191) R7 load(1, XDATA, add(CFA_XSP16, literal(-6)))
        CFI (cfiCond191) ?RET_LOW load(1, XDATA, add(CFA_XSP16, literal(-5)))
        CFI (cfiCond191) ?RET_HIGH load(1, XDATA, add(CFA_XSP16, literal(-4)))
        CFI (cfiCond191) ?BRET_EXT load(1, XDATA, add(CFA_XSP16, literal(-3)))
        CFI (cfiCond191) DPL0 load(1, XDATA, add(CFA_XSP16, literal(-2)))
        CFI (cfiCond191) DPH0 load(1, XDATA, add(CFA_XSP16, literal(-1)))
        CFI (cfiCond191) CFA_SP SP+0
        CFI (cfiCond191) CFA_XSP16 add(XSP16, 18)
        CFI Block cfiCond192 Using cfiCommon0
        CFI (cfiCond192) NoFunction
        CFI (cfiCond192) Conditional ??CrossCallReturnLabel_94, ??CrossCallReturnLabel_77
        CFI (cfiCond192) DPL0 Frame(CFA_SP, 4)
        CFI (cfiCond192) DPH0 Frame(CFA_SP, 5)
        CFI (cfiCond192) CFA_SP SP+-5
        CFI Block cfiCond193 Using cfiCommon0
        CFI (cfiCond193) NoFunction
        CFI (cfiCond193) Conditional ??CrossCallReturnLabel_96, ??CrossCallReturnLabel_16
        CFI (cfiCond193) R6 load(1, XDATA, add(CFA_XSP16, literal(-10)))
        CFI (cfiCond193) VB load(1, XDATA, add(CFA_XSP16, literal(-9)))
        CFI (cfiCond193) V0 load(1, XDATA, add(CFA_XSP16, literal(-8)))
        CFI (cfiCond193) V1 load(1, XDATA, add(CFA_XSP16, literal(-7)))
        CFI (cfiCond193) R7 load(1, XDATA, add(CFA_XSP16, literal(-6)))
        CFI (cfiCond193) ?RET_LOW load(1, XDATA, add(CFA_XSP16, literal(-5)))
        CFI (cfiCond193) ?RET_HIGH load(1, XDATA, add(CFA_XSP16, literal(-4)))
        CFI (cfiCond193) ?BRET_EXT load(1, XDATA, add(CFA_XSP16, literal(-3)))
        CFI (cfiCond193) DPL0 load(1, XDATA, add(CFA_XSP16, literal(-2)))
        CFI (cfiCond193) DPH0 load(1, XDATA, add(CFA_XSP16, literal(-1)))
        CFI (cfiCond193) CFA_SP SP+0
        CFI (cfiCond193) CFA_XSP16 add(XSP16, 10)
        CFI Block cfiCond194 Using cfiCommon0
        CFI (cfiCond194) NoFunction
        CFI (cfiCond194) Conditional ??CrossCallReturnLabel_96, ??CrossCallReturnLabel_17
        CFI (cfiCond194) R6 load(1, XDATA, add(CFA_XSP16, literal(-10)))
        CFI (cfiCond194) VB load(1, XDATA, add(CFA_XSP16, literal(-9)))
        CFI (cfiCond194) V0 load(1, XDATA, add(CFA_XSP16, literal(-8)))
        CFI (cfiCond194) V1 load(1, XDATA, add(CFA_XSP16, literal(-7)))
        CFI (cfiCond194) R7 load(1, XDATA, add(CFA_XSP16, literal(-6)))
        CFI (cfiCond194) ?RET_LOW load(1, XDATA, add(CFA_XSP16, literal(-5)))
        CFI (cfiCond194) ?RET_HIGH load(1, XDATA, add(CFA_XSP16, literal(-4)))
        CFI (cfiCond194) ?BRET_EXT load(1, XDATA, add(CFA_XSP16, literal(-3)))
        CFI (cfiCond194) DPL0 load(1, XDATA, add(CFA_XSP16, literal(-2)))
        CFI (cfiCond194) DPH0 load(1, XDATA, add(CFA_XSP16, literal(-1)))
        CFI (cfiCond194) CFA_SP SP+0
        CFI (cfiCond194) CFA_XSP16 add(XSP16, 10)
        CFI Block cfiCond195 Using cfiCommon0
        CFI (cfiCond195) NoFunction
        CFI (cfiCond195) Conditional ??CrossCallReturnLabel_95, ??CrossCallReturnLabel_14
        CFI (cfiCond195) R6 load(1, XDATA, add(CFA_XSP16, literal(-10)))
        CFI (cfiCond195) VB load(1, XDATA, add(CFA_XSP16, literal(-9)))
        CFI (cfiCond195) V0 load(1, XDATA, add(CFA_XSP16, literal(-8)))
        CFI (cfiCond195) V1 load(1, XDATA, add(CFA_XSP16, literal(-7)))
        CFI (cfiCond195) R7 load(1, XDATA, add(CFA_XSP16, literal(-6)))
        CFI (cfiCond195) ?RET_LOW load(1, XDATA, add(CFA_XSP16, literal(-5)))
        CFI (cfiCond195) ?RET_HIGH load(1, XDATA, add(CFA_XSP16, literal(-4)))
        CFI (cfiCond195) ?BRET_EXT load(1, XDATA, add(CFA_XSP16, literal(-3)))
        CFI (cfiCond195) DPL0 load(1, XDATA, add(CFA_XSP16, literal(-2)))
        CFI (cfiCond195) DPH0 load(1, XDATA, add(CFA_XSP16, literal(-1)))
        CFI (cfiCond195) CFA_SP SP+0
        CFI (cfiCond195) CFA_XSP16 add(XSP16, 10)
        CFI Block cfiCond196 Using cfiCommon0
        CFI (cfiCond196) NoFunction
        CFI (cfiCond196) Conditional ??CrossCallReturnLabel_95, ??CrossCallReturnLabel_15
        CFI (cfiCond196) R6 load(1, XDATA, add(CFA_XSP16, literal(-10)))
        CFI (cfiCond196) VB load(1, XDATA, add(CFA_XSP16, literal(-9)))
        CFI (cfiCond196) V0 load(1, XDATA, add(CFA_XSP16, literal(-8)))
        CFI (cfiCond196) V1 load(1, XDATA, add(CFA_XSP16, literal(-7)))
        CFI (cfiCond196) R7 load(1, XDATA, add(CFA_XSP16, literal(-6)))
        CFI (cfiCond196) ?RET_LOW load(1, XDATA, add(CFA_XSP16, literal(-5)))
        CFI (cfiCond196) ?RET_HIGH load(1, XDATA, add(CFA_XSP16, literal(-4)))
        CFI (cfiCond196) ?BRET_EXT load(1, XDATA, add(CFA_XSP16, literal(-3)))
        CFI (cfiCond196) DPL0 load(1, XDATA, add(CFA_XSP16, literal(-2)))
        CFI (cfiCond196) DPH0 load(1, XDATA, add(CFA_XSP16, literal(-1)))
        CFI (cfiCond196) CFA_SP SP+0
        CFI (cfiCond196) CFA_XSP16 add(XSP16, 10)
        CFI Block cfiCond197 Using cfiCommon0
        CFI (cfiCond197) NoFunction
        CFI (cfiCond197) Conditional ??CrossCallReturnLabel_97, ??CrossCallReturnLabel_89
        CFI (cfiCond197) R6 load(1, XDATA, add(CFA_XSP16, literal(-10)))
        CFI (cfiCond197) VB load(1, XDATA, add(CFA_XSP16, literal(-9)))
        CFI (cfiCond197) V0 load(1, XDATA, add(CFA_XSP16, literal(-8)))
        CFI (cfiCond197) V1 load(1, XDATA, add(CFA_XSP16, literal(-7)))
        CFI (cfiCond197) R7 load(1, XDATA, add(CFA_XSP16, literal(-6)))
        CFI (cfiCond197) ?RET_LOW load(1, XDATA, add(CFA_XSP16, literal(-5)))
        CFI (cfiCond197) ?RET_HIGH load(1, XDATA, add(CFA_XSP16, literal(-4)))
        CFI (cfiCond197) ?BRET_EXT load(1, XDATA, add(CFA_XSP16, literal(-3)))
        CFI (cfiCond197) DPL0 load(1, XDATA, add(CFA_XSP16, literal(-2)))
        CFI (cfiCond197) DPH0 load(1, XDATA, add(CFA_XSP16, literal(-1)))
        CFI (cfiCond197) CFA_SP SP+0
        CFI (cfiCond197) CFA_XSP16 add(XSP16, 10)
        CFI Block cfiCond198 Using cfiCommon0
        CFI (cfiCond198) NoFunction
        CFI (cfiCond198) Conditional ??CrossCallReturnLabel_97, ??CrossCallReturnLabel_90
        CFI (cfiCond198) DPL0 Frame(CFA_SP, 4)
        CFI (cfiCond198) DPH0 Frame(CFA_SP, 5)
        CFI (cfiCond198) CFA_SP SP+-5
        CFI Block cfiCond199 Using cfiCommon0
        CFI (cfiCond199) NoFunction
        CFI (cfiCond199) Conditional ??CrossCallReturnLabel_97, ??CrossCallReturnLabel_87
        CFI (cfiCond199) R6 load(1, XDATA, add(CFA_XSP16, literal(-10)))
        CFI (cfiCond199) VB load(1, XDATA, add(CFA_XSP16, literal(-9)))
        CFI (cfiCond199) V0 load(1, XDATA, add(CFA_XSP16, literal(-8)))
        CFI (cfiCond199) V1 load(1, XDATA, add(CFA_XSP16, literal(-7)))
        CFI (cfiCond199) R7 load(1, XDATA, add(CFA_XSP16, literal(-6)))
        CFI (cfiCond199) ?RET_LOW load(1, XDATA, add(CFA_XSP16, literal(-5)))
        CFI (cfiCond199) ?RET_HIGH load(1, XDATA, add(CFA_XSP16, literal(-4)))
        CFI (cfiCond199) ?BRET_EXT load(1, XDATA, add(CFA_XSP16, literal(-3)))
        CFI (cfiCond199) DPL0 load(1, XDATA, add(CFA_XSP16, literal(-2)))
        CFI (cfiCond199) DPH0 load(1, XDATA, add(CFA_XSP16, literal(-1)))
        CFI (cfiCond199) CFA_SP SP+0
        CFI (cfiCond199) CFA_XSP16 add(XSP16, 10)
        CFI Block cfiCond200 Using cfiCommon0
        CFI (cfiCond200) NoFunction
        CFI (cfiCond200) Conditional ??CrossCallReturnLabel_97, ??CrossCallReturnLabel_88
        CFI (cfiCond200) R6 load(1, XDATA, add(CFA_XSP16, literal(-10)))
        CFI (cfiCond200) VB load(1, XDATA, add(CFA_XSP16, literal(-9)))
        CFI (cfiCond200) V0 load(1, XDATA, add(CFA_XSP16, literal(-8)))
        CFI (cfiCond200) V1 load(1, XDATA, add(CFA_XSP16, literal(-7)))
        CFI (cfiCond200) R7 load(1, XDATA, add(CFA_XSP16, literal(-6)))
        CFI (cfiCond200) ?RET_LOW load(1, XDATA, add(CFA_XSP16, literal(-5)))
        CFI (cfiCond200) ?RET_HIGH load(1, XDATA, add(CFA_XSP16, literal(-4)))
        CFI (cfiCond200) ?BRET_EXT load(1, XDATA, add(CFA_XSP16, literal(-3)))
        CFI (cfiCond200) DPL0 load(1, XDATA, add(CFA_XSP16, literal(-2)))
        CFI (cfiCond200) DPH0 load(1, XDATA, add(CFA_XSP16, literal(-1)))
        CFI (cfiCond200) CFA_SP SP+0
        CFI (cfiCond200) CFA_XSP16 add(XSP16, 10)
        CFI Block cfiPicker201 Using cfiCommon1
        CFI (cfiPicker201) NoFunction
        CFI (cfiPicker201) Picker
        ADDC    A,#0x0
        MOV     DPH,A
        RET
        CFI EndBlock cfiCond170
        CFI EndBlock cfiCond171
        CFI EndBlock cfiCond172
        CFI EndBlock cfiCond173
        CFI EndBlock cfiCond174
        CFI EndBlock cfiCond175
        CFI EndBlock cfiCond176
        CFI EndBlock cfiCond177
        CFI EndBlock cfiCond178
        CFI EndBlock cfiCond179
        CFI EndBlock cfiCond180
        CFI EndBlock cfiCond181
        CFI EndBlock cfiCond182
        CFI EndBlock cfiCond183
        CFI EndBlock cfiCond184
        CFI EndBlock cfiCond185
        CFI EndBlock cfiCond186
        CFI EndBlock cfiCond187
        CFI EndBlock cfiCond188
        CFI EndBlock cfiCond189
        CFI EndBlock cfiCond190
        CFI EndBlock cfiCond191
        CFI EndBlock cfiCond192
        CFI EndBlock cfiCond193
        CFI EndBlock cfiCond194
        CFI EndBlock cfiCond195
        CFI EndBlock cfiCond196
        CFI EndBlock cfiCond197
        CFI EndBlock cfiCond198
        CFI EndBlock cfiCond199
        CFI EndBlock cfiCond200
        CFI EndBlock cfiPicker201

        RSEG BANKED_CODE:CODE:NOROOT(0)
?Subroutine9:
        CFI Block cfiCond202 Using cfiCommon0
        CFI NoFunction
        CFI Conditional ??CrossCallReturnLabel_84
        CFI R6 load(1, XDATA, add(CFA_XSP16, literal(-13)))
        CFI VB load(1, XDATA, add(CFA_XSP16, literal(-12)))
        CFI V0 load(1, XDATA, add(CFA_XSP16, literal(-11)))
        CFI V1 load(1, XDATA, add(CFA_XSP16, literal(-10)))
        CFI V2 load(1, XDATA, add(CFA_XSP16, literal(-9)))
        CFI V3 load(1, XDATA, add(CFA_XSP16, literal(-8)))
        CFI V4 load(1, XDATA, add(CFA_XSP16, literal(-7)))
        CFI R7 load(1, XDATA, add(CFA_XSP16, literal(-6)))
        CFI ?RET_LOW load(1, XDATA, add(CFA_XSP16, literal(-5)))
        CFI ?RET_HIGH load(1, XDATA, add(CFA_XSP16, literal(-4)))
        CFI ?BRET_EXT load(1, XDATA, add(CFA_XSP16, literal(-3)))
        CFI DPL0 load(1, XDATA, add(CFA_XSP16, literal(-2)))
        CFI DPH0 load(1, XDATA, add(CFA_XSP16, literal(-1)))
        CFI CFA_SP SP+0
        CFI CFA_XSP16 add(XSP16, 18)
        CFI Block cfiCond203 Using cfiCommon0
        CFI (cfiCond203) NoFunction
        CFI (cfiCond203) Conditional ??CrossCallReturnLabel_85
        CFI (cfiCond203) R6 load(1, XDATA, add(CFA_XSP16, literal(-13)))
        CFI (cfiCond203) VB load(1, XDATA, add(CFA_XSP16, literal(-12)))
        CFI (cfiCond203) V0 load(1, XDATA, add(CFA_XSP16, literal(-11)))
        CFI (cfiCond203) V1 load(1, XDATA, add(CFA_XSP16, literal(-10)))
        CFI (cfiCond203) V2 load(1, XDATA, add(CFA_XSP16, literal(-9)))
        CFI (cfiCond203) V3 load(1, XDATA, add(CFA_XSP16, literal(-8)))
        CFI (cfiCond203) V4 load(1, XDATA, add(CFA_XSP16, literal(-7)))
        CFI (cfiCond203) R7 load(1, XDATA, add(CFA_XSP16, literal(-6)))
        CFI (cfiCond203) ?RET_LOW load(1, XDATA, add(CFA_XSP16, literal(-5)))
        CFI (cfiCond203) ?RET_HIGH load(1, XDATA, add(CFA_XSP16, literal(-4)))
        CFI (cfiCond203) ?BRET_EXT load(1, XDATA, add(CFA_XSP16, literal(-3)))
        CFI (cfiCond203) DPL0 load(1, XDATA, add(CFA_XSP16, literal(-2)))
        CFI (cfiCond203) DPH0 load(1, XDATA, add(CFA_XSP16, literal(-1)))
        CFI (cfiCond203) CFA_SP SP+0
        CFI (cfiCond203) CFA_XSP16 add(XSP16, 18)
        CFI Block cfiCond204 Using cfiCommon0
        CFI (cfiCond204) NoFunction
        CFI (cfiCond204) Conditional ??CrossCallReturnLabel_86
        CFI (cfiCond204) R6 load(1, XDATA, add(CFA_XSP16, literal(-13)))
        CFI (cfiCond204) VB load(1, XDATA, add(CFA_XSP16, literal(-12)))
        CFI (cfiCond204) V0 load(1, XDATA, add(CFA_XSP16, literal(-11)))
        CFI (cfiCond204) V1 load(1, XDATA, add(CFA_XSP16, literal(-10)))
        CFI (cfiCond204) V2 load(1, XDATA, add(CFA_XSP16, literal(-9)))
        CFI (cfiCond204) V3 load(1, XDATA, add(CFA_XSP16, literal(-8)))
        CFI (cfiCond204) V4 load(1, XDATA, add(CFA_XSP16, literal(-7)))
        CFI (cfiCond204) R7 load(1, XDATA, add(CFA_XSP16, literal(-6)))
        CFI (cfiCond204) ?RET_LOW load(1, XDATA, add(CFA_XSP16, literal(-5)))
        CFI (cfiCond204) ?RET_HIGH load(1, XDATA, add(CFA_XSP16, literal(-4)))
        CFI (cfiCond204) ?BRET_EXT load(1, XDATA, add(CFA_XSP16, literal(-3)))
        CFI (cfiCond204) DPL0 load(1, XDATA, add(CFA_XSP16, literal(-2)))
        CFI (cfiCond204) DPH0 load(1, XDATA, add(CFA_XSP16, literal(-1)))
        CFI (cfiCond204) CFA_SP SP+0
        CFI (cfiCond204) CFA_XSP16 add(XSP16, 18)
        CFI Block cfiPicker205 Using cfiCommon1
        CFI (cfiPicker205) NoFunction
        CFI (cfiPicker205) Picker
        MOV     DPL,R6
        MOV     DPH,R7
        CFI EndBlock cfiCond202
        CFI EndBlock cfiCond203
        CFI EndBlock cfiCond204
        CFI EndBlock cfiPicker205
        REQUIRE ??Subroutine41_0
        ; // Fall through to label ??Subroutine41_0

        RSEG BANKED_CODE:CODE:NOROOT(0)
??Subroutine41_0:
        CFI Block cfiCond206 Using cfiCommon0
        CFI NoFunction
        CFI Conditional ??CrossCallReturnLabel_83
        CFI R6 load(1, XDATA, add(CFA_XSP16, literal(-18)))
        CFI VB load(1, XDATA, add(CFA_XSP16, literal(-17)))
        CFI V0 load(1, XDATA, add(CFA_XSP16, literal(-16)))
        CFI V1 load(1, XDATA, add(CFA_XSP16, literal(-15)))
        CFI V2 load(1, XDATA, add(CFA_XSP16, literal(-14)))
        CFI V3 load(1, XDATA, add(CFA_XSP16, literal(-13)))
        CFI V4 load(1, XDATA, add(CFA_XSP16, literal(-12)))
        CFI V5 load(1, XDATA, add(CFA_XSP16, literal(-11)))
        CFI V6 load(1, XDATA, add(CFA_XSP16, literal(-10)))
        CFI V7 load(1, XDATA, add(CFA_XSP16, literal(-9)))
        CFI V8 load(1, XDATA, add(CFA_XSP16, literal(-8)))
        CFI V9 load(1, XDATA, add(CFA_XSP16, literal(-7)))
        CFI R7 load(1, XDATA, add(CFA_XSP16, literal(-6)))
        CFI ?RET_LOW load(1, XDATA, add(CFA_XSP16, literal(-5)))
        CFI ?RET_HIGH load(1, XDATA, add(CFA_XSP16, literal(-4)))
        CFI ?BRET_EXT load(1, XDATA, add(CFA_XSP16, literal(-3)))
        CFI DPL0 load(1, XDATA, add(CFA_XSP16, literal(-2)))
        CFI DPH0 load(1, XDATA, add(CFA_XSP16, literal(-1)))
        CFI CFA_SP SP+0
        CFI CFA_XSP16 add(XSP16, 20)
        CFI Block cfiCond207 Using cfiCommon0
        CFI (cfiCond207) NoFunction
        CFI (cfiCond207) Conditional ??CrossCallReturnLabel_84
        CFI (cfiCond207) R6 load(1, XDATA, add(CFA_XSP16, literal(-13)))
        CFI (cfiCond207) VB load(1, XDATA, add(CFA_XSP16, literal(-12)))
        CFI (cfiCond207) V0 load(1, XDATA, add(CFA_XSP16, literal(-11)))
        CFI (cfiCond207) V1 load(1, XDATA, add(CFA_XSP16, literal(-10)))
        CFI (cfiCond207) V2 load(1, XDATA, add(CFA_XSP16, literal(-9)))
        CFI (cfiCond207) V3 load(1, XDATA, add(CFA_XSP16, literal(-8)))
        CFI (cfiCond207) V4 load(1, XDATA, add(CFA_XSP16, literal(-7)))
        CFI (cfiCond207) R7 load(1, XDATA, add(CFA_XSP16, literal(-6)))
        CFI (cfiCond207) ?RET_LOW load(1, XDATA, add(CFA_XSP16, literal(-5)))
        CFI (cfiCond207) ?RET_HIGH load(1, XDATA, add(CFA_XSP16, literal(-4)))
        CFI (cfiCond207) ?BRET_EXT load(1, XDATA, add(CFA_XSP16, literal(-3)))
        CFI (cfiCond207) DPL0 load(1, XDATA, add(CFA_XSP16, literal(-2)))
        CFI (cfiCond207) DPH0 load(1, XDATA, add(CFA_XSP16, literal(-1)))
        CFI (cfiCond207) CFA_SP SP+0
        CFI (cfiCond207) CFA_XSP16 add(XSP16, 18)
        CFI Block cfiCond208 Using cfiCommon0
        CFI (cfiCond208) NoFunction
        CFI (cfiCond208) Conditional ??CrossCallReturnLabel_85
        CFI (cfiCond208) R6 load(1, XDATA, add(CFA_XSP16, literal(-13)))
        CFI (cfiCond208) VB load(1, XDATA, add(CFA_XSP16, literal(-12)))
        CFI (cfiCond208) V0 load(1, XDATA, add(CFA_XSP16, literal(-11)))
        CFI (cfiCond208) V1 load(1, XDATA, add(CFA_XSP16, literal(-10)))
        CFI (cfiCond208) V2 load(1, XDATA, add(CFA_XSP16, literal(-9)))
        CFI (cfiCond208) V3 load(1, XDATA, add(CFA_XSP16, literal(-8)))
        CFI (cfiCond208) V4 load(1, XDATA, add(CFA_XSP16, literal(-7)))
        CFI (cfiCond208) R7 load(1, XDATA, add(CFA_XSP16, literal(-6)))
        CFI (cfiCond208) ?RET_LOW load(1, XDATA, add(CFA_XSP16, literal(-5)))
        CFI (cfiCond208) ?RET_HIGH load(1, XDATA, add(CFA_XSP16, literal(-4)))
        CFI (cfiCond208) ?BRET_EXT load(1, XDATA, add(CFA_XSP16, literal(-3)))
        CFI (cfiCond208) DPL0 load(1, XDATA, add(CFA_XSP16, literal(-2)))
        CFI (cfiCond208) DPH0 load(1, XDATA, add(CFA_XSP16, literal(-1)))
        CFI (cfiCond208) CFA_SP SP+0
        CFI (cfiCond208) CFA_XSP16 add(XSP16, 18)
        CFI Block cfiCond209 Using cfiCommon0
        CFI (cfiCond209) NoFunction
        CFI (cfiCond209) Conditional ??CrossCallReturnLabel_86
        CFI (cfiCond209) R6 load(1, XDATA, add(CFA_XSP16, literal(-13)))
        CFI (cfiCond209) VB load(1, XDATA, add(CFA_XSP16, literal(-12)))
        CFI (cfiCond209) V0 load(1, XDATA, add(CFA_XSP16, literal(-11)))
        CFI (cfiCond209) V1 load(1, XDATA, add(CFA_XSP16, literal(-10)))
        CFI (cfiCond209) V2 load(1, XDATA, add(CFA_XSP16, literal(-9)))
        CFI (cfiCond209) V3 load(1, XDATA, add(CFA_XSP16, literal(-8)))
        CFI (cfiCond209) V4 load(1, XDATA, add(CFA_XSP16, literal(-7)))
        CFI (cfiCond209) R7 load(1, XDATA, add(CFA_XSP16, literal(-6)))
        CFI (cfiCond209) ?RET_LOW load(1, XDATA, add(CFA_XSP16, literal(-5)))
        CFI (cfiCond209) ?RET_HIGH load(1, XDATA, add(CFA_XSP16, literal(-4)))
        CFI (cfiCond209) ?BRET_EXT load(1, XDATA, add(CFA_XSP16, literal(-3)))
        CFI (cfiCond209) DPL0 load(1, XDATA, add(CFA_XSP16, literal(-2)))
        CFI (cfiCond209) DPH0 load(1, XDATA, add(CFA_XSP16, literal(-1)))
        CFI (cfiCond209) CFA_SP SP+0
        CFI (cfiCond209) CFA_XSP16 add(XSP16, 18)
        CFI Block cfiPicker210 Using cfiCommon1
        CFI (cfiPicker210) NoFunction
        CFI (cfiPicker210) Picker
        INC     DPTR
        INC     DPTR
        CFI EndBlock cfiCond206
        CFI EndBlock cfiCond207
        CFI EndBlock cfiCond208
        CFI EndBlock cfiCond209
        CFI EndBlock cfiPicker210
        REQUIRE ??Subroutine42_0
        ; // Fall through to label ??Subroutine42_0

        RSEG BANKED_CODE:CODE:NOROOT(0)
??Subroutine42_0:
        CFI Block cfiCond211 Using cfiCommon0
        CFI NoFunction
        CFI Conditional ??CrossCallReturnLabel_82
        CFI DPL0 Frame(CFA_SP, 4)
        CFI DPH0 Frame(CFA_SP, 5)
        CFI CFA_SP SP+-5
        CFI Block cfiCond212 Using cfiCommon0
        CFI (cfiCond212) NoFunction
        CFI (cfiCond212) Conditional ??CrossCallReturnLabel_83
        CFI (cfiCond212) R6 load(1, XDATA, add(CFA_XSP16, literal(-18)))
        CFI (cfiCond212) VB load(1, XDATA, add(CFA_XSP16, literal(-17)))
        CFI (cfiCond212) V0 load(1, XDATA, add(CFA_XSP16, literal(-16)))
        CFI (cfiCond212) V1 load(1, XDATA, add(CFA_XSP16, literal(-15)))
        CFI (cfiCond212) V2 load(1, XDATA, add(CFA_XSP16, literal(-14)))
        CFI (cfiCond212) V3 load(1, XDATA, add(CFA_XSP16, literal(-13)))
        CFI (cfiCond212) V4 load(1, XDATA, add(CFA_XSP16, literal(-12)))
        CFI (cfiCond212) V5 load(1, XDATA, add(CFA_XSP16, literal(-11)))
        CFI (cfiCond212) V6 load(1, XDATA, add(CFA_XSP16, literal(-10)))
        CFI (cfiCond212) V7 load(1, XDATA, add(CFA_XSP16, literal(-9)))
        CFI (cfiCond212) V8 load(1, XDATA, add(CFA_XSP16, literal(-8)))
        CFI (cfiCond212) V9 load(1, XDATA, add(CFA_XSP16, literal(-7)))
        CFI (cfiCond212) R7 load(1, XDATA, add(CFA_XSP16, literal(-6)))
        CFI (cfiCond212) ?RET_LOW load(1, XDATA, add(CFA_XSP16, literal(-5)))
        CFI (cfiCond212) ?RET_HIGH load(1, XDATA, add(CFA_XSP16, literal(-4)))
        CFI (cfiCond212) ?BRET_EXT load(1, XDATA, add(CFA_XSP16, literal(-3)))
        CFI (cfiCond212) DPL0 load(1, XDATA, add(CFA_XSP16, literal(-2)))
        CFI (cfiCond212) DPH0 load(1, XDATA, add(CFA_XSP16, literal(-1)))
        CFI (cfiCond212) CFA_SP SP+0
        CFI (cfiCond212) CFA_XSP16 add(XSP16, 20)
        CFI Block cfiCond213 Using cfiCommon0
        CFI (cfiCond213) NoFunction
        CFI (cfiCond213) Conditional ??CrossCallReturnLabel_84
        CFI (cfiCond213) R6 load(1, XDATA, add(CFA_XSP16, literal(-13)))
        CFI (cfiCond213) VB load(1, XDATA, add(CFA_XSP16, literal(-12)))
        CFI (cfiCond213) V0 load(1, XDATA, add(CFA_XSP16, literal(-11)))
        CFI (cfiCond213) V1 load(1, XDATA, add(CFA_XSP16, literal(-10)))
        CFI (cfiCond213) V2 load(1, XDATA, add(CFA_XSP16, literal(-9)))
        CFI (cfiCond213) V3 load(1, XDATA, add(CFA_XSP16, literal(-8)))
        CFI (cfiCond213) V4 load(1, XDATA, add(CFA_XSP16, literal(-7)))
        CFI (cfiCond213) R7 load(1, XDATA, add(CFA_XSP16, literal(-6)))
        CFI (cfiCond213) ?RET_LOW load(1, XDATA, add(CFA_XSP16, literal(-5)))
        CFI (cfiCond213) ?RET_HIGH load(1, XDATA, add(CFA_XSP16, literal(-4)))
        CFI (cfiCond213) ?BRET_EXT load(1, XDATA, add(CFA_XSP16, literal(-3)))
        CFI (cfiCond213) DPL0 load(1, XDATA, add(CFA_XSP16, literal(-2)))
        CFI (cfiCond213) DPH0 load(1, XDATA, add(CFA_XSP16, literal(-1)))
        CFI (cfiCond213) CFA_SP SP+0
        CFI (cfiCond213) CFA_XSP16 add(XSP16, 18)
        CFI Block cfiCond214 Using cfiCommon0
        CFI (cfiCond214) NoFunction
        CFI (cfiCond214) Conditional ??CrossCallReturnLabel_85
        CFI (cfiCond214) R6 load(1, XDATA, add(CFA_XSP16, literal(-13)))
        CFI (cfiCond214) VB load(1, XDATA, add(CFA_XSP16, literal(-12)))
        CFI (cfiCond214) V0 load(1, XDATA, add(CFA_XSP16, literal(-11)))
        CFI (cfiCond214) V1 load(1, XDATA, add(CFA_XSP16, literal(-10)))
        CFI (cfiCond214) V2 load(1, XDATA, add(CFA_XSP16, literal(-9)))
        CFI (cfiCond214) V3 load(1, XDATA, add(CFA_XSP16, literal(-8)))
        CFI (cfiCond214) V4 load(1, XDATA, add(CFA_XSP16, literal(-7)))
        CFI (cfiCond214) R7 load(1, XDATA, add(CFA_XSP16, literal(-6)))
        CFI (cfiCond214) ?RET_LOW load(1, XDATA, add(CFA_XSP16, literal(-5)))
        CFI (cfiCond214) ?RET_HIGH load(1, XDATA, add(CFA_XSP16, literal(-4)))
        CFI (cfiCond214) ?BRET_EXT load(1, XDATA, add(CFA_XSP16, literal(-3)))
        CFI (cfiCond214) DPL0 load(1, XDATA, add(CFA_XSP16, literal(-2)))
        CFI (cfiCond214) DPH0 load(1, XDATA, add(CFA_XSP16, literal(-1)))
        CFI (cfiCond214) CFA_SP SP+0
        CFI (cfiCond214) CFA_XSP16 add(XSP16, 18)
        CFI Block cfiCond215 Using cfiCommon0
        CFI (cfiCond215) NoFunction
        CFI (cfiCond215) Conditional ??CrossCallReturnLabel_86
        CFI (cfiCond215) R6 load(1, XDATA, add(CFA_XSP16, literal(-13)))
        CFI (cfiCond215) VB load(1, XDATA, add(CFA_XSP16, literal(-12)))
        CFI (cfiCond215) V0 load(1, XDATA, add(CFA_XSP16, literal(-11)))
        CFI (cfiCond215) V1 load(1, XDATA, add(CFA_XSP16, literal(-10)))
        CFI (cfiCond215) V2 load(1, XDATA, add(CFA_XSP16, literal(-9)))
        CFI (cfiCond215) V3 load(1, XDATA, add(CFA_XSP16, literal(-8)))
        CFI (cfiCond215) V4 load(1, XDATA, add(CFA_XSP16, literal(-7)))
        CFI (cfiCond215) R7 load(1, XDATA, add(CFA_XSP16, literal(-6)))
        CFI (cfiCond215) ?RET_LOW load(1, XDATA, add(CFA_XSP16, literal(-5)))
        CFI (cfiCond215) ?RET_HIGH load(1, XDATA, add(CFA_XSP16, literal(-4)))
        CFI (cfiCond215) ?BRET_EXT load(1, XDATA, add(CFA_XSP16, literal(-3)))
        CFI (cfiCond215) DPL0 load(1, XDATA, add(CFA_XSP16, literal(-2)))
        CFI (cfiCond215) DPH0 load(1, XDATA, add(CFA_XSP16, literal(-1)))
        CFI (cfiCond215) CFA_SP SP+0
        CFI (cfiCond215) CFA_XSP16 add(XSP16, 18)
        CFI Block cfiPicker216 Using cfiCommon1
        CFI (cfiPicker216) NoFunction
        CFI (cfiPicker216) Picker
        INC     DPTR
        CFI EndBlock cfiCond211
        CFI EndBlock cfiCond212
        CFI EndBlock cfiCond213
        CFI EndBlock cfiCond214
        CFI EndBlock cfiCond215
        CFI EndBlock cfiPicker216
        REQUIRE ??Subroutine43_0
        ; // Fall through to label ??Subroutine43_0

        RSEG BANKED_CODE:CODE:NOROOT(0)
??Subroutine43_0:
        CFI Block cfiCond217 Using cfiCommon0
        CFI NoFunction
        CFI Conditional ??CrossCallReturnLabel_81
        CFI R6 load(1, XDATA, add(CFA_XSP16, literal(-22)))
        CFI VB load(1, XDATA, add(CFA_XSP16, literal(-21)))
        CFI V0 load(1, XDATA, add(CFA_XSP16, literal(-20)))
        CFI V1 load(1, XDATA, add(CFA_XSP16, literal(-19)))
        CFI V2 load(1, XDATA, add(CFA_XSP16, literal(-18)))
        CFI V3 load(1, XDATA, add(CFA_XSP16, literal(-17)))
        CFI V4 load(1, XDATA, add(CFA_XSP16, literal(-16)))
        CFI V5 load(1, XDATA, add(CFA_XSP16, literal(-15)))
        CFI V6 load(1, XDATA, add(CFA_XSP16, literal(-14)))
        CFI V7 load(1, XDATA, add(CFA_XSP16, literal(-13)))
        CFI V8 load(1, XDATA, add(CFA_XSP16, literal(-12)))
        CFI V9 load(1, XDATA, add(CFA_XSP16, literal(-11)))
        CFI V10 load(1, XDATA, add(CFA_XSP16, literal(-10)))
        CFI V11 load(1, XDATA, add(CFA_XSP16, literal(-9)))
        CFI V12 load(1, XDATA, add(CFA_XSP16, literal(-8)))
        CFI V13 load(1, XDATA, add(CFA_XSP16, literal(-7)))
        CFI R7 load(1, XDATA, add(CFA_XSP16, literal(-6)))
        CFI ?RET_LOW load(1, XDATA, add(CFA_XSP16, literal(-5)))
        CFI ?RET_HIGH load(1, XDATA, add(CFA_XSP16, literal(-4)))
        CFI ?BRET_EXT load(1, XDATA, add(CFA_XSP16, literal(-3)))
        CFI DPL0 load(1, XDATA, add(CFA_XSP16, literal(-2)))
        CFI DPH0 load(1, XDATA, add(CFA_XSP16, literal(-1)))
        CFI CFA_SP SP+0
        CFI CFA_XSP16 add(XSP16, 24)
        CFI Block cfiCond218 Using cfiCommon0
        CFI (cfiCond218) NoFunction
        CFI (cfiCond218) Conditional ??CrossCallReturnLabel_82
        CFI (cfiCond218) DPL0 Frame(CFA_SP, 4)
        CFI (cfiCond218) DPH0 Frame(CFA_SP, 5)
        CFI (cfiCond218) CFA_SP SP+-5
        CFI Block cfiCond219 Using cfiCommon0
        CFI (cfiCond219) NoFunction
        CFI (cfiCond219) Conditional ??CrossCallReturnLabel_83
        CFI (cfiCond219) R6 load(1, XDATA, add(CFA_XSP16, literal(-18)))
        CFI (cfiCond219) VB load(1, XDATA, add(CFA_XSP16, literal(-17)))
        CFI (cfiCond219) V0 load(1, XDATA, add(CFA_XSP16, literal(-16)))
        CFI (cfiCond219) V1 load(1, XDATA, add(CFA_XSP16, literal(-15)))
        CFI (cfiCond219) V2 load(1, XDATA, add(CFA_XSP16, literal(-14)))
        CFI (cfiCond219) V3 load(1, XDATA, add(CFA_XSP16, literal(-13)))
        CFI (cfiCond219) V4 load(1, XDATA, add(CFA_XSP16, literal(-12)))
        CFI (cfiCond219) V5 load(1, XDATA, add(CFA_XSP16, literal(-11)))
        CFI (cfiCond219) V6 load(1, XDATA, add(CFA_XSP16, literal(-10)))
        CFI (cfiCond219) V7 load(1, XDATA, add(CFA_XSP16, literal(-9)))
        CFI (cfiCond219) V8 load(1, XDATA, add(CFA_XSP16, literal(-8)))
        CFI (cfiCond219) V9 load(1, XDATA, add(CFA_XSP16, literal(-7)))
        CFI (cfiCond219) R7 load(1, XDATA, add(CFA_XSP16, literal(-6)))
        CFI (cfiCond219) ?RET_LOW load(1, XDATA, add(CFA_XSP16, literal(-5)))
        CFI (cfiCond219) ?RET_HIGH load(1, XDATA, add(CFA_XSP16, literal(-4)))
        CFI (cfiCond219) ?BRET_EXT load(1, XDATA, add(CFA_XSP16, literal(-3)))
        CFI (cfiCond219) DPL0 load(1, XDATA, add(CFA_XSP16, literal(-2)))
        CFI (cfiCond219) DPH0 load(1, XDATA, add(CFA_XSP16, literal(-1)))
        CFI (cfiCond219) CFA_SP SP+0
        CFI (cfiCond219) CFA_XSP16 add(XSP16, 20)
        CFI Block cfiCond220 Using cfiCommon0
        CFI (cfiCond220) NoFunction
        CFI (cfiCond220) Conditional ??CrossCallReturnLabel_84
        CFI (cfiCond220) R6 load(1, XDATA, add(CFA_XSP16, literal(-13)))
        CFI (cfiCond220) VB load(1, XDATA, add(CFA_XSP16, literal(-12)))
        CFI (cfiCond220) V0 load(1, XDATA, add(CFA_XSP16, literal(-11)))
        CFI (cfiCond220) V1 load(1, XDATA, add(CFA_XSP16, literal(-10)))
        CFI (cfiCond220) V2 load(1, XDATA, add(CFA_XSP16, literal(-9)))
        CFI (cfiCond220) V3 load(1, XDATA, add(CFA_XSP16, literal(-8)))
        CFI (cfiCond220) V4 load(1, XDATA, add(CFA_XSP16, literal(-7)))
        CFI (cfiCond220) R7 load(1, XDATA, add(CFA_XSP16, literal(-6)))
        CFI (cfiCond220) ?RET_LOW load(1, XDATA, add(CFA_XSP16, literal(-5)))
        CFI (cfiCond220) ?RET_HIGH load(1, XDATA, add(CFA_XSP16, literal(-4)))
        CFI (cfiCond220) ?BRET_EXT load(1, XDATA, add(CFA_XSP16, literal(-3)))
        CFI (cfiCond220) DPL0 load(1, XDATA, add(CFA_XSP16, literal(-2)))
        CFI (cfiCond220) DPH0 load(1, XDATA, add(CFA_XSP16, literal(-1)))
        CFI (cfiCond220) CFA_SP SP+0
        CFI (cfiCond220) CFA_XSP16 add(XSP16, 18)
        CFI Block cfiCond221 Using cfiCommon0
        CFI (cfiCond221) NoFunction
        CFI (cfiCond221) Conditional ??CrossCallReturnLabel_85
        CFI (cfiCond221) R6 load(1, XDATA, add(CFA_XSP16, literal(-13)))
        CFI (cfiCond221) VB load(1, XDATA, add(CFA_XSP16, literal(-12)))
        CFI (cfiCond221) V0 load(1, XDATA, add(CFA_XSP16, literal(-11)))
        CFI (cfiCond221) V1 load(1, XDATA, add(CFA_XSP16, literal(-10)))
        CFI (cfiCond221) V2 load(1, XDATA, add(CFA_XSP16, literal(-9)))
        CFI (cfiCond221) V3 load(1, XDATA, add(CFA_XSP16, literal(-8)))
        CFI (cfiCond221) V4 load(1, XDATA, add(CFA_XSP16, literal(-7)))
        CFI (cfiCond221) R7 load(1, XDATA, add(CFA_XSP16, literal(-6)))
        CFI (cfiCond221) ?RET_LOW load(1, XDATA, add(CFA_XSP16, literal(-5)))
        CFI (cfiCond221) ?RET_HIGH load(1, XDATA, add(CFA_XSP16, literal(-4)))
        CFI (cfiCond221) ?BRET_EXT load(1, XDATA, add(CFA_XSP16, literal(-3)))
        CFI (cfiCond221) DPL0 load(1, XDATA, add(CFA_XSP16, literal(-2)))
        CFI (cfiCond221) DPH0 load(1, XDATA, add(CFA_XSP16, literal(-1)))
        CFI (cfiCond221) CFA_SP SP+0
        CFI (cfiCond221) CFA_XSP16 add(XSP16, 18)
        CFI Block cfiCond222 Using cfiCommon0
        CFI (cfiCond222) NoFunction
        CFI (cfiCond222) Conditional ??CrossCallReturnLabel_86
        CFI (cfiCond222) R6 load(1, XDATA, add(CFA_XSP16, literal(-13)))
        CFI (cfiCond222) VB load(1, XDATA, add(CFA_XSP16, literal(-12)))
        CFI (cfiCond222) V0 load(1, XDATA, add(CFA_XSP16, literal(-11)))
        CFI (cfiCond222) V1 load(1, XDATA, add(CFA_XSP16, literal(-10)))
        CFI (cfiCond222) V2 load(1, XDATA, add(CFA_XSP16, literal(-9)))
        CFI (cfiCond222) V3 load(1, XDATA, add(CFA_XSP16, literal(-8)))
        CFI (cfiCond222) V4 load(1, XDATA, add(CFA_XSP16, literal(-7)))
        CFI (cfiCond222) R7 load(1, XDATA, add(CFA_XSP16, literal(-6)))
        CFI (cfiCond222) ?RET_LOW load(1, XDATA, add(CFA_XSP16, literal(-5)))
        CFI (cfiCond222) ?RET_HIGH load(1, XDATA, add(CFA_XSP16, literal(-4)))
        CFI (cfiCond222) ?BRET_EXT load(1, XDATA, add(CFA_XSP16, literal(-3)))
        CFI (cfiCond222) DPL0 load(1, XDATA, add(CFA_XSP16, literal(-2)))
        CFI (cfiCond222) DPH0 load(1, XDATA, add(CFA_XSP16, literal(-1)))
        CFI (cfiCond222) CFA_SP SP+0
        CFI (cfiCond222) CFA_XSP16 add(XSP16, 18)
        CFI Block cfiPicker223 Using cfiCommon1
        CFI (cfiPicker223) NoFunction
        CFI (cfiPicker223) Picker
        INC     DPTR
        INC     DPTR
        INC     DPTR
        MOVX    A,@DPTR
        MOV     R4,A
        INC     DPTR
        MOVX    A,@DPTR
        MOV     R5,A
        RET
        CFI EndBlock cfiCond217
        CFI EndBlock cfiCond218
        CFI EndBlock cfiCond219
        CFI EndBlock cfiCond220
        CFI EndBlock cfiCond221
        CFI EndBlock cfiCond222
        CFI EndBlock cfiPicker223

        RSEG BANKED_CODE:CODE:NOROOT(0)
?Subroutine7:
        CFI Block cfiCond224 Using cfiCommon0
        CFI NoFunction
        CFI Conditional ??CrossCallReturnLabel_5
        CFI R6 load(1, XDATA, add(CFA_XSP16, literal(-13)))
        CFI VB load(1, XDATA, add(CFA_XSP16, literal(-12)))
        CFI V0 load(1, XDATA, add(CFA_XSP16, literal(-11)))
        CFI V1 load(1, XDATA, add(CFA_XSP16, literal(-10)))
        CFI V2 load(1, XDATA, add(CFA_XSP16, literal(-9)))
        CFI V3 load(1, XDATA, add(CFA_XSP16, literal(-8)))
        CFI V4 load(1, XDATA, add(CFA_XSP16, literal(-7)))
        CFI R7 load(1, XDATA, add(CFA_XSP16, literal(-6)))
        CFI ?RET_LOW load(1, XDATA, add(CFA_XSP16, literal(-5)))
        CFI ?RET_HIGH load(1, XDATA, add(CFA_XSP16, literal(-4)))
        CFI ?BRET_EXT load(1, XDATA, add(CFA_XSP16, literal(-3)))
        CFI DPL0 load(1, XDATA, add(CFA_XSP16, literal(-2)))
        CFI DPH0 load(1, XDATA, add(CFA_XSP16, literal(-1)))
        CFI CFA_SP SP+0
        CFI CFA_XSP16 add(XSP16, 16)
        CFI Block cfiCond225 Using cfiCommon0
        CFI (cfiCond225) NoFunction
        CFI (cfiCond225) Conditional ??CrossCallReturnLabel_6
        CFI (cfiCond225) R6 load(1, XDATA, add(CFA_XSP16, literal(-18)))
        CFI (cfiCond225) VB load(1, XDATA, add(CFA_XSP16, literal(-17)))
        CFI (cfiCond225) V0 load(1, XDATA, add(CFA_XSP16, literal(-16)))
        CFI (cfiCond225) V1 load(1, XDATA, add(CFA_XSP16, literal(-15)))
        CFI (cfiCond225) V2 load(1, XDATA, add(CFA_XSP16, literal(-14)))
        CFI (cfiCond225) V3 load(1, XDATA, add(CFA_XSP16, literal(-13)))
        CFI (cfiCond225) V4 load(1, XDATA, add(CFA_XSP16, literal(-12)))
        CFI (cfiCond225) V5 load(1, XDATA, add(CFA_XSP16, literal(-11)))
        CFI (cfiCond225) V6 load(1, XDATA, add(CFA_XSP16, literal(-10)))
        CFI (cfiCond225) V7 load(1, XDATA, add(CFA_XSP16, literal(-9)))
        CFI (cfiCond225) V8 load(1, XDATA, add(CFA_XSP16, literal(-8)))
        CFI (cfiCond225) V9 load(1, XDATA, add(CFA_XSP16, literal(-7)))
        CFI (cfiCond225) R7 load(1, XDATA, add(CFA_XSP16, literal(-6)))
        CFI (cfiCond225) ?RET_LOW load(1, XDATA, add(CFA_XSP16, literal(-5)))
        CFI (cfiCond225) ?RET_HIGH load(1, XDATA, add(CFA_XSP16, literal(-4)))
        CFI (cfiCond225) ?BRET_EXT load(1, XDATA, add(CFA_XSP16, literal(-3)))
        CFI (cfiCond225) DPL0 load(1, XDATA, add(CFA_XSP16, literal(-2)))
        CFI (cfiCond225) DPH0 load(1, XDATA, add(CFA_XSP16, literal(-1)))
        CFI (cfiCond225) CFA_SP SP+0
        CFI (cfiCond225) CFA_XSP16 add(XSP16, 18)
        CFI Block cfiPicker226 Using cfiCommon1
        CFI (cfiPicker226) NoFunction
        CFI (cfiPicker226) Picker
        MOV     DPTR,#funcCount
        MOVX    A,@DPTR
        MOV     R0,A
        CLR     C
        MOV     A,?V0 + 0
        SUBB    A,R0
        MOV     A,?V0 + 1
        LCALL   ?Subroutine28 & 0xFFFF
??CrossCallReturnLabel_39:
        RET
        CFI EndBlock cfiCond224
        CFI EndBlock cfiCond225
        CFI EndBlock cfiPicker226

        RSEG BANKED_CODE:CODE:NOROOT(0)
?Subroutine28:
        CFI Block cfiCond227 Using cfiCommon0
        CFI NoFunction
        CFI Conditional ??CrossCallReturnLabel_38, ??CrossCallReturnLabel_0
        CFI R6 load(1, XDATA, add(CFA_XSP16, literal(-10)))
        CFI VB load(1, XDATA, add(CFA_XSP16, literal(-9)))
        CFI V0 load(1, XDATA, add(CFA_XSP16, literal(-8)))
        CFI V1 load(1, XDATA, add(CFA_XSP16, literal(-7)))
        CFI R7 load(1, XDATA, add(CFA_XSP16, literal(-6)))
        CFI ?RET_LOW load(1, XDATA, add(CFA_XSP16, literal(-5)))
        CFI ?RET_HIGH load(1, XDATA, add(CFA_XSP16, literal(-4)))
        CFI ?BRET_EXT load(1, XDATA, add(CFA_XSP16, literal(-3)))
        CFI DPL0 load(1, XDATA, add(CFA_XSP16, literal(-2)))
        CFI DPH0 load(1, XDATA, add(CFA_XSP16, literal(-1)))
        CFI CFA_SP SP+0
        CFI CFA_XSP16 add(XSP16, 10)
        CFI Block cfiCond228 Using cfiCommon0
        CFI (cfiCond228) NoFunction
        CFI (cfiCond228) Conditional ??CrossCallReturnLabel_38, ??CrossCallReturnLabel_1
        CFI (cfiCond228) R6 load(1, XDATA, add(CFA_XSP16, literal(-10)))
        CFI (cfiCond228) VB load(1, XDATA, add(CFA_XSP16, literal(-9)))
        CFI (cfiCond228) V0 load(1, XDATA, add(CFA_XSP16, literal(-8)))
        CFI (cfiCond228) V1 load(1, XDATA, add(CFA_XSP16, literal(-7)))
        CFI (cfiCond228) R7 load(1, XDATA, add(CFA_XSP16, literal(-6)))
        CFI (cfiCond228) ?RET_LOW load(1, XDATA, add(CFA_XSP16, literal(-5)))
        CFI (cfiCond228) ?RET_HIGH load(1, XDATA, add(CFA_XSP16, literal(-4)))
        CFI (cfiCond228) ?BRET_EXT load(1, XDATA, add(CFA_XSP16, literal(-3)))
        CFI (cfiCond228) DPL0 load(1, XDATA, add(CFA_XSP16, literal(-2)))
        CFI (cfiCond228) DPH0 load(1, XDATA, add(CFA_XSP16, literal(-1)))
        CFI (cfiCond228) CFA_SP SP+0
        CFI (cfiCond228) CFA_XSP16 add(XSP16, 10)
        CFI Block cfiCond229 Using cfiCommon0
        CFI (cfiCond229) NoFunction
        CFI (cfiCond229) Conditional ??CrossCallReturnLabel_38, ??CrossCallReturnLabel_2
        CFI (cfiCond229) R6 load(1, XDATA, add(CFA_XSP16, literal(-13)))
        CFI (cfiCond229) VB load(1, XDATA, add(CFA_XSP16, literal(-12)))
        CFI (cfiCond229) V0 load(1, XDATA, add(CFA_XSP16, literal(-11)))
        CFI (cfiCond229) V1 load(1, XDATA, add(CFA_XSP16, literal(-10)))
        CFI (cfiCond229) V2 load(1, XDATA, add(CFA_XSP16, literal(-9)))
        CFI (cfiCond229) V3 load(1, XDATA, add(CFA_XSP16, literal(-8)))
        CFI (cfiCond229) V4 load(1, XDATA, add(CFA_XSP16, literal(-7)))
        CFI (cfiCond229) R7 load(1, XDATA, add(CFA_XSP16, literal(-6)))
        CFI (cfiCond229) ?RET_LOW load(1, XDATA, add(CFA_XSP16, literal(-5)))
        CFI (cfiCond229) ?RET_HIGH load(1, XDATA, add(CFA_XSP16, literal(-4)))
        CFI (cfiCond229) ?BRET_EXT load(1, XDATA, add(CFA_XSP16, literal(-3)))
        CFI (cfiCond229) DPL0 load(1, XDATA, add(CFA_XSP16, literal(-2)))
        CFI (cfiCond229) DPH0 load(1, XDATA, add(CFA_XSP16, literal(-1)))
        CFI (cfiCond229) CFA_SP SP+0
        CFI (cfiCond229) CFA_XSP16 add(XSP16, 16)
        CFI Block cfiCond230 Using cfiCommon0
        CFI (cfiCond230) NoFunction
        CFI (cfiCond230) Conditional ??CrossCallReturnLabel_37
        CFI (cfiCond230) R6 load(1, XDATA, add(CFA_XSP16, literal(-18)))
        CFI (cfiCond230) VB load(1, XDATA, add(CFA_XSP16, literal(-17)))
        CFI (cfiCond230) V0 load(1, XDATA, add(CFA_XSP16, literal(-16)))
        CFI (cfiCond230) V1 load(1, XDATA, add(CFA_XSP16, literal(-15)))
        CFI (cfiCond230) V2 load(1, XDATA, add(CFA_XSP16, literal(-14)))
        CFI (cfiCond230) V3 load(1, XDATA, add(CFA_XSP16, literal(-13)))
        CFI (cfiCond230) V4 load(1, XDATA, add(CFA_XSP16, literal(-12)))
        CFI (cfiCond230) V5 load(1, XDATA, add(CFA_XSP16, literal(-11)))
        CFI (cfiCond230) V6 load(1, XDATA, add(CFA_XSP16, literal(-10)))
        CFI (cfiCond230) V7 load(1, XDATA, add(CFA_XSP16, literal(-9)))
        CFI (cfiCond230) V8 load(1, XDATA, add(CFA_XSP16, literal(-8)))
        CFI (cfiCond230) V9 load(1, XDATA, add(CFA_XSP16, literal(-7)))
        CFI (cfiCond230) R7 load(1, XDATA, add(CFA_XSP16, literal(-6)))
        CFI (cfiCond230) ?RET_LOW load(1, XDATA, add(CFA_XSP16, literal(-5)))
        CFI (cfiCond230) ?RET_HIGH load(1, XDATA, add(CFA_XSP16, literal(-4)))
        CFI (cfiCond230) ?BRET_EXT load(1, XDATA, add(CFA_XSP16, literal(-3)))
        CFI (cfiCond230) DPL0 load(1, XDATA, add(CFA_XSP16, literal(-2)))
        CFI (cfiCond230) DPH0 load(1, XDATA, add(CFA_XSP16, literal(-1)))
        CFI (cfiCond230) CFA_SP SP+0
        CFI (cfiCond230) CFA_XSP16 add(XSP16, 18)
        CFI Block cfiCond231 Using cfiCommon0
        CFI (cfiCond231) NoFunction
        CFI (cfiCond231) Conditional ??CrossCallReturnLabel_39, ??CrossCallReturnLabel_5
        CFI (cfiCond231) R6 load(1, XDATA, add(CFA_XSP16, literal(-13)))
        CFI (cfiCond231) VB load(1, XDATA, add(CFA_XSP16, literal(-12)))
        CFI (cfiCond231) V0 load(1, XDATA, add(CFA_XSP16, literal(-11)))
        CFI (cfiCond231) V1 load(1, XDATA, add(CFA_XSP16, literal(-10)))
        CFI (cfiCond231) V2 load(1, XDATA, add(CFA_XSP16, literal(-9)))
        CFI (cfiCond231) V3 load(1, XDATA, add(CFA_XSP16, literal(-8)))
        CFI (cfiCond231) V4 load(1, XDATA, add(CFA_XSP16, literal(-7)))
        CFI (cfiCond231) R7 load(1, XDATA, add(CFA_XSP16, literal(-6)))
        CFI (cfiCond231) ?RET_LOW load(1, XDATA, add(CFA_XSP16, literal(-5)))
        CFI (cfiCond231) ?RET_HIGH load(1, XDATA, add(CFA_XSP16, literal(-4)))
        CFI (cfiCond231) ?BRET_EXT load(1, XDATA, add(CFA_XSP16, literal(-3)))
        CFI (cfiCond231) DPL0 load(1, XDATA, add(CFA_XSP16, literal(-2)))
        CFI (cfiCond231) DPH0 load(1, XDATA, add(CFA_XSP16, literal(-1)))
        CFI (cfiCond231) CFA_SP SP+0
        CFI (cfiCond231) CFA_XSP16 add(XSP16, 16)
        CFI Block cfiCond232 Using cfiCommon0
        CFI (cfiCond232) NoFunction
        CFI (cfiCond232) Conditional ??CrossCallReturnLabel_39, ??CrossCallReturnLabel_6
        CFI (cfiCond232) R6 load(1, XDATA, add(CFA_XSP16, literal(-18)))
        CFI (cfiCond232) VB load(1, XDATA, add(CFA_XSP16, literal(-17)))
        CFI (cfiCond232) V0 load(1, XDATA, add(CFA_XSP16, literal(-16)))
        CFI (cfiCond232) V1 load(1, XDATA, add(CFA_XSP16, literal(-15)))
        CFI (cfiCond232) V2 load(1, XDATA, add(CFA_XSP16, literal(-14)))
        CFI (cfiCond232) V3 load(1, XDATA, add(CFA_XSP16, literal(-13)))
        CFI (cfiCond232) V4 load(1, XDATA, add(CFA_XSP16, literal(-12)))
        CFI (cfiCond232) V5 load(1, XDATA, add(CFA_XSP16, literal(-11)))
        CFI (cfiCond232) V6 load(1, XDATA, add(CFA_XSP16, literal(-10)))
        CFI (cfiCond232) V7 load(1, XDATA, add(CFA_XSP16, literal(-9)))
        CFI (cfiCond232) V8 load(1, XDATA, add(CFA_XSP16, literal(-8)))
        CFI (cfiCond232) V9 load(1, XDATA, add(CFA_XSP16, literal(-7)))
        CFI (cfiCond232) R7 load(1, XDATA, add(CFA_XSP16, literal(-6)))
        CFI (cfiCond232) ?RET_LOW load(1, XDATA, add(CFA_XSP16, literal(-5)))
        CFI (cfiCond232) ?RET_HIGH load(1, XDATA, add(CFA_XSP16, literal(-4)))
        CFI (cfiCond232) ?BRET_EXT load(1, XDATA, add(CFA_XSP16, literal(-3)))
        CFI (cfiCond232) DPL0 load(1, XDATA, add(CFA_XSP16, literal(-2)))
        CFI (cfiCond232) DPH0 load(1, XDATA, add(CFA_XSP16, literal(-1)))
        CFI (cfiCond232) CFA_SP SP+0
        CFI (cfiCond232) CFA_XSP16 add(XSP16, 18)
        CFI Block cfiPicker233 Using cfiCommon1
        CFI (cfiPicker233) NoFunction
        CFI (cfiPicker233) Picker
        SUBB    A,#0x0
        MOV     C,0xD0 /* PSW */.2
        XRL     A,PSW
        RLC     A
        RET
        CFI EndBlock cfiCond227
        CFI EndBlock cfiCond228
        CFI EndBlock cfiCond229
        CFI EndBlock cfiCond230
        CFI EndBlock cfiCond231
        CFI EndBlock cfiCond232
        CFI EndBlock cfiPicker233
//  444 
//  445 //#if defined(ZDO_COORDINATOR)
//  446 #if defined(ZDO_COORDINATOR) || defined(PEER_ROUTER) || defined(PEER_COORD)
//  447 #if defined(ZDO_COORDINATOR)
//  448     uint8 SendBuf[10];
//  449 #endif
//  450 static uint8 uartMsgProcesser(uint8 *msg)
//  451 {
//  452     mtOSALSerialData_t *pMsg = (mtOSALSerialData_t *)msg;
//  453     mtUserSerialMsg_t *pMsgBody = (mtUserSerialMsg_t *)pMsg->msg;
//  454     if ( (curNwkState != DEV_ZB_COORD)
//  455             && (curNwkState != DEV_ROUTER)
//  456             && (curNwkState != DEV_END_DEVICE) )
//  457         return 1;   
//  458 #if defined(PEER_COORD)
//  459     SendData(CONTROL_ENDPOINT, &msg[4],SrcShortAddr, TRANSFER_ENDPOINT,8);    
//  460     return 1;
//  461 #endif
//  462 
//  463 #if defined(PEER_ROUTER)
//  464     SendData(CONTROL_ENDPOINT, &msg[4],0x0000, TRANSFER_ENDPOINT,8);
//  465     return 1;
//  466 #endif        
//  467     switch(pMsgBody->cmd)
//  468     {
//  469         case 0x46B9:
//  470         {                  
//  471             switch(pMsgBody->cmdEndPoint)
//  472             {
//  473             case 0xF1:
//  474                 {                                 
//  475                     // 转发数据                    
//  476                     /*SendData(TRANSFER_ENDPOINT, pMsgBody->data,
//  477                              pMsgBody->addr, pMsgBody->endPoint,
//  478                              pMsgBody->len - 6);
//  479                     */
//  480                     SendData(TRANSFER_ENDPOINT, pMsgBody->data,
//  481                              0XFFFF, pMsgBody->endPoint,
//  482                              pMsgBody->len - 6);
//  483                 }
//  484                 break;
//  485 #if defined(ZDO_COORDINATOR)                
//  486             case 0xF0:
//  487                 HalLedSet ( HAL_LED_1, HAL_LED_MODE_ON );
//  488                 HalLedSet ( HAL_LED_2, HAL_LED_MODE_ON );
//  489                 Delay100us(5000);                
//  490                 HalLedSet ( HAL_LED_1, HAL_LED_MODE_OFF );
//  491                 HalLedSet ( HAL_LED_2, HAL_LED_MODE_OFF );
//  492                 Delay100us(5000);                
//  493                 HalLedSet ( HAL_LED_1, HAL_LED_MODE_ON );
//  494                 HalLedSet ( HAL_LED_2, HAL_LED_MODE_ON );                
//  495                 SystemReset();  
//  496                 break;
//  497             case 0xEF:   
//  498                 SendBuf[0]=0x2;
//  499                 SendBuf[1]=0x7;
//  500                 SendBuf[2]=0xB9;
//  501                 SendBuf[3]=0x46;
//  502                 SendBuf[4]=0xEF;
//  503                 SendBuf[5]=0x0;
//  504                 SendBuf[6]=0x0;
//  505                 SendBuf[7]=0x0;
//  506                 SendBuf[8]=0x0;
//  507                 SendBuf[9]=0x17;
//  508                 HalUARTWrite(HAL_UART_PORT_0, &SendBuf[0], 10);    
//  509                 break;
//  510 #endif                
//  511             }            
//  512         }
//  513         break;
//  514     }
//  515     return 1;
//  516 }
//  517 #endif
//  518 

        RSEG BANKED_CODE:CODE:NOROOT(0)
//  519 uint8 SendData(uint8 srcEP, const void *buf, uint16 addr, uint8 dstEP, uint8 Len)
SendData:
        CFI Block cfiBlock234 Using cfiCommon0
        CFI Function SendData
        CODE
//  520 {
        FUNCALL SendData, AF_DataRequest
        LOCFRAME ISTACK, 0, STACK
        LOCFRAME PSTACK, 0, STACK
        LOCFRAME XSTACK, 33, STACK
        LOCFRAME IOVERLAY, 0, STATIC
        LOCFRAME DOVERLAY, 0, STATIC
        ARGFRAME ISTACK, 0, STACK
        ARGFRAME PSTACK, 0, STACK
        ARGFRAME XSTACK, 33, STACK
        ARGFRAME IOVERLAY, 0, STATIC
        ARGFRAME DOVERLAY, 0, STATIC
        FUNCALL SendData, HalLedBlink
        LOCFRAME ISTACK, 0, STACK
        LOCFRAME PSTACK, 0, STACK
        LOCFRAME XSTACK, 24, STACK
        LOCFRAME IOVERLAY, 0, STATIC
        LOCFRAME DOVERLAY, 0, STATIC
        ARGFRAME ISTACK, 0, STACK
        ARGFRAME PSTACK, 0, STACK
        ARGFRAME XSTACK, 24, STACK
        ARGFRAME IOVERLAY, 0, STATIC
        ARGFRAME DOVERLAY, 0, STATIC
        MOV     A,#-0xc
        LCALL   ?BANKED_ENTER_XDATA
        CFI DPH0 load(1, XDATA, add(CFA_XSP16, literal(-1)))
        CFI DPL0 load(1, XDATA, add(CFA_XSP16, literal(-2)))
        CFI ?BRET_EXT load(1, XDATA, add(CFA_XSP16, literal(-3)))
        CFI ?RET_HIGH load(1, XDATA, add(CFA_XSP16, literal(-4)))
        CFI ?RET_LOW load(1, XDATA, add(CFA_XSP16, literal(-5)))
        CFI R7 load(1, XDATA, add(CFA_XSP16, literal(-6)))
        CFI V3 load(1, XDATA, add(CFA_XSP16, literal(-7)))
        CFI V2 load(1, XDATA, add(CFA_XSP16, literal(-8)))
        CFI V1 load(1, XDATA, add(CFA_XSP16, literal(-9)))
        CFI V0 load(1, XDATA, add(CFA_XSP16, literal(-10)))
        CFI VB load(1, XDATA, add(CFA_XSP16, literal(-11)))
        CFI R6 load(1, XDATA, add(CFA_XSP16, literal(-12)))
        CFI CFA_SP SP+0
        CFI CFA_XSP16 add(XSP16, 12)
        ; Saved register size: 12
        ; Auto size: 12
        MOV     A,#-0xc
        LCALL   ?ALLOC_XSTACK8
        CFI CFA_XSP16 add(XSP16, 24)
        MOV     A,R1
        MOV     R6,A
        MOV     ?V0 + 0,R2
        MOV     ?V0 + 1,R3
        MOV     A,#0x18
        LCALL   ?XSTACK_DISP0_8
        MOVX    A,@DPTR
        MOV     ?V0 + 2,A
        MOV     A,#0x19
        LCALL   ?XSTACK_DISP0_8
        MOVX    A,@DPTR
        MOV     R7,A
//  521     static uint8 transID = 0;
//  522     afAddrType_t SendDataAddr;
//  523     struct ep_info_t *epInfo;
//  524 
//  525     if(srcEP <= funcCount)
        MOV     DPTR,#funcCount
        MOVX    A,@DPTR
        CLR     C
        SUBB    A,R6
        JC      ??SendData_0
//  526         epInfo = &funcList[srcEP - 1];
        MOV     A,R6
        MOV     B,#0x21
        MUL     AB
        MOV     R0,A
        MOV     R1,B
        MOV     A,#(funcList + 223) & 0xff
        ADD     A,R0
        MOV     R0,A
        MOV     A,#((funcList - 33) >> 8) & 0xff
        ADDC    A,R1
        MOV     R1,A
        MOV     A,R0
        MOV     R2,A
        MOV     A,R1
        MOV     R3,A
        SJMP    ??SendData_1
//  527     else
//  528         epInfo = &controlEndPointInfo;
??SendData_0:
        MOV     R2,#controlEndPointInfo & 0xff
        MOV     R3,#(controlEndPointInfo >> 8) & 0xff
//  529 
//  530     SendDataAddr.addrMode = (afAddrMode_t)Addr16Bit;         //短地址发送
??SendData_1:
        MOV     A,#0x8
        LCALL   ?XSTACK_DISP0_8
        MOV     A,#0x2
        MOVX    @DPTR,A
//  531     SendDataAddr.endPoint = dstEP;
        MOV     A,#0x9
        LCALL   ?XSTACK_DISP0_8
        MOV     A,?V0 + 2
        MOVX    @DPTR,A
//  532     SendDataAddr.addr.shortAddr = addr;
        MOV     DPL,?XSP + 0
        MOV     DPH,?XSP + 1
        MOV     A,R4
        MOVX    @DPTR,A
        INC     DPTR
        MOV     A,R5
        MOVX    @DPTR,A
//  533     if ( AF_DataRequest( &SendDataAddr, //发送的地址和模式
//  534                          // TODO:
//  535                          &epInfo->SampleApp_epDesc,   //终端（比如操作系统中任务ID等）
//  536                          SAPP_PERIODIC_CLUSTERID,//发送串ID
//  537                          Len,
//  538                          (uint8*)buf,
//  539                          &transID,  //信息ID（操作系统参数）
//  540                          AF_DISCV_ROUTE,                         
//  541                          AF_DEFAULT_RADIUS ) == afStatus_SUCCESS )
        ; Setup parameters for call to function AF_DataRequest
        MOV     ?V0 + 2,#0x1e
        MOV     R0,#?V0 + 2
        LCALL   ?PUSH_XSTACK_I_ONE
        CFI CFA_XSP16 add(XSP16, 25)
        MOV     ?V0 + 2,#??transID & 0xff
        MOV     ?V0 + 3,#(??transID >> 8) & 0xff
        MOV     R0,#?V0 + 2
        LCALL   ?PUSH_XSTACK_I_TWO
        CFI CFA_XSP16 add(XSP16, 27)
        MOV     R0,#?V0 + 0
        LCALL   ?PUSH_XSTACK_I_TWO
        CFI CFA_XSP16 add(XSP16, 29)
        MOV     ?V0 + 0,R7
        MOV     ?V0 + 1,#0x0
        MOV     R0,#?V0 + 0
        LCALL   ?PUSH_XSTACK_I_TWO
        CFI CFA_XSP16 add(XSP16, 31)
        MOV     ?V0 + 0,#0x1
        MOV     R0,#?V0 + 0
        LCALL   ?PUSH_XSTACK_I_TWO
        CFI CFA_XSP16 add(XSP16, 33)
        MOV     R1,#0x20
        MOV     A,R2
        ADD     A,#0xf
        MOV     R4,A
        MOV     A,R3
        ADDC    A,#0x0
        MOV     R5,A
        MOV     A,#0x9
        LCALL   ?XSTACK_DISP0_8
        MOV     R2,DPL
        MOV     R3,DPH
        LCALL   ??AF_DataRequest?relay
        MOV     A,#0x9
        LCALL   ?DEALLOC_XSTACK8
        CFI CFA_XSP16 add(XSP16, 24)
        MOV     A,R1
        JNZ     ??SendData_2
//  542     {       
//  543         HalLedBlink( HAL_LED_1, 1, 50, 250 );
        ; Setup parameters for call to function HalLedBlink
        MOV     R4,#-0x6
        MOV     R5,#0x0
        MOV     R3,#0x32
        MOV     R2,#0x1
        MOV     R1,#0x1
        LCALL   ??HalLedBlink?relay
//  544         return 1;
        MOV     R1,#0x1
        SJMP    ??SendData_3
//  545     }
//  546     else
//  547     {
//  548         return 0;
??SendData_2:
        MOV     R1,#0x0
??SendData_3:
        MOV     A,#0xc
        LCALL   ?DEALLOC_XSTACK8
        CFI CFA_XSP16 add(XSP16, 12)
        MOV     R7,#0x4
        LJMP    ?BANKED_LEAVE_XDATA
        CFI EndBlock cfiBlock234
//  549     }
//  550 }

        RSEG XDATA_Z:XDATA:NOROOT(0)
        DATA8
??transID:
        DS 1
        REQUIRE __INIT_XDATA_Z
//  551 

        RSEG BANKED_CODE:CODE:NOROOT(0)
//  552 void CreateUserTimer(struct ep_info_t *ep, uint8 seconds)
CreateUserTimer:
        CFI Block cfiBlock235 Using cfiCommon0
        CFI Function CreateUserTimer
        CODE
//  553 {
        FUNCALL CreateUserTimer, osal_start_timerEx
        LOCFRAME ISTACK, 0, STACK
        LOCFRAME PSTACK, 0, STACK
        LOCFRAME XSTACK, 9, STACK
        LOCFRAME IOVERLAY, 0, STATIC
        LOCFRAME DOVERLAY, 0, STATIC
        ARGFRAME ISTACK, 0, STACK
        ARGFRAME PSTACK, 0, STACK
        ARGFRAME XSTACK, 9, STACK
        ARGFRAME IOVERLAY, 0, STATIC
        ARGFRAME DOVERLAY, 0, STATIC
        MOV     A,#-0x9
        LCALL   ?BANKED_ENTER_XDATA
        CFI DPH0 load(1, XDATA, add(CFA_XSP16, literal(-1)))
        CFI DPL0 load(1, XDATA, add(CFA_XSP16, literal(-2)))
        CFI ?BRET_EXT load(1, XDATA, add(CFA_XSP16, literal(-3)))
        CFI ?RET_HIGH load(1, XDATA, add(CFA_XSP16, literal(-4)))
        CFI ?RET_LOW load(1, XDATA, add(CFA_XSP16, literal(-5)))
        CFI R7 load(1, XDATA, add(CFA_XSP16, literal(-6)))
        CFI V0 load(1, XDATA, add(CFA_XSP16, literal(-7)))
        CFI VB load(1, XDATA, add(CFA_XSP16, literal(-8)))
        CFI R6 load(1, XDATA, add(CFA_XSP16, literal(-9)))
        CFI CFA_SP SP+0
        CFI CFA_XSP16 add(XSP16, 9)
        ; Saved register size: 9
        ; Auto size: 0
        MOV     A,R1
        MOV     R6,A
//  554     if(ep == NULL)
        MOV     A,R2
        ORL     A,R3
        JZ      ??CreateUserTimer_0
//  555         return;
//  556     if(ep->res_available == NULL)
        LCALL   ?Subroutine3 & 0xFFFF
??CrossCallReturnLabel_52:
        JZ      ??CreateUserTimer_0
//  557         return;
//  558     ep->userTimer = seconds;
        MOV     A,R2
        ADD     A,#0xe
        LCALL   ?Subroutine16 & 0xFFFF
??CrossCallReturnLabel_63:
        MOV     A,R6
        MOVX    @DPTR,A
//  559     if(isUserTimerRunning == 0)
        MOV     DPTR,#isUserTimerRunning
        MOVX    A,@DPTR
        JNZ     ??CreateUserTimer_0
//  560     {
//  561         osal_start_timerEx(controlTaskId,
//  562                            SAPP_SEND_PERIODIC_MSG_EVT,
//  563                            1000);
        ; Setup parameters for call to function osal_start_timerEx
        MOV     R4,#-0x18
        MOV     R5,#0x3
        MOV     R2,#0x1
        MOV     R3,#0x0
        MOV     DPTR,#controlTaskId
        MOVX    A,@DPTR
        MOV     R1,A
        LCALL   ??osal_start_timerEx?relay
//  564         isUserTimerRunning = 1;
        MOV     DPTR,#isUserTimerRunning
        MOV     A,#0x1
        MOVX    @DPTR,A
        CFI EndBlock cfiBlock235
//  565     }
??CreateUserTimer_0:
        REQUIRE ?Subroutine2
        ; // Fall through to label ?Subroutine2
//  566 }

        RSEG BANKED_CODE:CODE:NOROOT(0)
?Subroutine2:
        CFI Block cfiBlock236 Using cfiCommon0
        CFI NoFunction
        CFI CFA_SP SP+0
        CFI CFA_XSP16 add(XSP16, 9)
        CFI VB load(1, XDATA, add(CFA_XSP16, literal(-8)))
        CFI DPL0 load(1, XDATA, add(CFA_XSP16, literal(-2)))
        CFI DPH0 load(1, XDATA, add(CFA_XSP16, literal(-1)))
        CFI R6 load(1, XDATA, add(CFA_XSP16, literal(-9)))
        CFI R7 load(1, XDATA, add(CFA_XSP16, literal(-6)))
        CFI V0 load(1, XDATA, add(CFA_XSP16, literal(-7)))
        CFI ?BRET_EXT load(1, XDATA, add(CFA_XSP16, literal(-3)))
        CFI ?RET_HIGH load(1, XDATA, add(CFA_XSP16, literal(-4)))
        CFI ?RET_LOW load(1, XDATA, add(CFA_XSP16, literal(-5)))
        MOV     R7,#0x1
        LJMP    ?BANKED_LEAVE_XDATA
        CFI EndBlock cfiBlock236
//  567 

        RSEG BANKED_CODE:CODE:NOROOT(0)
//  568 void DeleteUserTimer(struct ep_info_t *ep)
DeleteUserTimer:
        CFI Block cfiBlock237 Using cfiCommon0
        CFI Function DeleteUserTimer
        CODE
//  569 {
        PUSH    DPL
        CFI DPL0 Frame(CFA_SP, 4)
        CFI CFA_SP SP+-4
        PUSH    DPH
        CFI DPH0 Frame(CFA_SP, 5)
        CFI CFA_SP SP+-5
        ; Saved register size: 2
        ; Auto size: 0
//  570     if(ep == NULL)
        MOV     A,R2
        ORL     A,R3
        JZ      ??CrossCallReturnLabel_90
//  571         return;
//  572     ep->userTimer = 0;
        LCALL   ?Subroutine13 & 0xFFFF
//  573 }
??CrossCallReturnLabel_90:
        LJMP    ?Subroutine0 & 0xFFFF
        CFI EndBlock cfiBlock237

        RSEG BANKED_CODE:CODE:NOROOT(0)
?Subroutine13:
        CFI Block cfiCond238 Using cfiCommon0
        CFI NoFunction
        CFI Conditional ??CrossCallReturnLabel_89
        CFI R6 load(1, XDATA, add(CFA_XSP16, literal(-10)))
        CFI VB load(1, XDATA, add(CFA_XSP16, literal(-9)))
        CFI V0 load(1, XDATA, add(CFA_XSP16, literal(-8)))
        CFI V1 load(1, XDATA, add(CFA_XSP16, literal(-7)))
        CFI R7 load(1, XDATA, add(CFA_XSP16, literal(-6)))
        CFI ?RET_LOW load(1, XDATA, add(CFA_XSP16, literal(-5)))
        CFI ?RET_HIGH load(1, XDATA, add(CFA_XSP16, literal(-4)))
        CFI ?BRET_EXT load(1, XDATA, add(CFA_XSP16, literal(-3)))
        CFI DPL0 load(1, XDATA, add(CFA_XSP16, literal(-2)))
        CFI DPH0 load(1, XDATA, add(CFA_XSP16, literal(-1)))
        CFI CFA_SP SP+0
        CFI CFA_XSP16 add(XSP16, 10)
        CFI Block cfiCond239 Using cfiCommon0
        CFI (cfiCond239) NoFunction
        CFI (cfiCond239) Conditional ??CrossCallReturnLabel_90
        CFI (cfiCond239) DPL0 Frame(CFA_SP, 4)
        CFI (cfiCond239) DPH0 Frame(CFA_SP, 5)
        CFI (cfiCond239) CFA_SP SP+-5
        CFI Block cfiPicker240 Using cfiCommon1
        CFI (cfiPicker240) NoFunction
        CFI (cfiPicker240) Picker
        MOV     A,R2
        ADD     A,#0xe
        CFI EndBlock cfiCond238
        CFI EndBlock cfiCond239
        CFI EndBlock cfiPicker240
        REQUIRE ??Subroutine44_0
        ; // Fall through to label ??Subroutine44_0

        RSEG BANKED_CODE:CODE:NOROOT(0)
??Subroutine44_0:
        CFI Block cfiCond241 Using cfiCommon0
        CFI NoFunction
        CFI Conditional ??CrossCallReturnLabel_87
        CFI R6 load(1, XDATA, add(CFA_XSP16, literal(-10)))
        CFI VB load(1, XDATA, add(CFA_XSP16, literal(-9)))
        CFI V0 load(1, XDATA, add(CFA_XSP16, literal(-8)))
        CFI V1 load(1, XDATA, add(CFA_XSP16, literal(-7)))
        CFI R7 load(1, XDATA, add(CFA_XSP16, literal(-6)))
        CFI ?RET_LOW load(1, XDATA, add(CFA_XSP16, literal(-5)))
        CFI ?RET_HIGH load(1, XDATA, add(CFA_XSP16, literal(-4)))
        CFI ?BRET_EXT load(1, XDATA, add(CFA_XSP16, literal(-3)))
        CFI DPL0 load(1, XDATA, add(CFA_XSP16, literal(-2)))
        CFI DPH0 load(1, XDATA, add(CFA_XSP16, literal(-1)))
        CFI CFA_SP SP+0
        CFI CFA_XSP16 add(XSP16, 10)
        CFI Block cfiCond242 Using cfiCommon0
        CFI (cfiCond242) NoFunction
        CFI (cfiCond242) Conditional ??CrossCallReturnLabel_88
        CFI (cfiCond242) R6 load(1, XDATA, add(CFA_XSP16, literal(-10)))
        CFI (cfiCond242) VB load(1, XDATA, add(CFA_XSP16, literal(-9)))
        CFI (cfiCond242) V0 load(1, XDATA, add(CFA_XSP16, literal(-8)))
        CFI (cfiCond242) V1 load(1, XDATA, add(CFA_XSP16, literal(-7)))
        CFI (cfiCond242) R7 load(1, XDATA, add(CFA_XSP16, literal(-6)))
        CFI (cfiCond242) ?RET_LOW load(1, XDATA, add(CFA_XSP16, literal(-5)))
        CFI (cfiCond242) ?RET_HIGH load(1, XDATA, add(CFA_XSP16, literal(-4)))
        CFI (cfiCond242) ?BRET_EXT load(1, XDATA, add(CFA_XSP16, literal(-3)))
        CFI (cfiCond242) DPL0 load(1, XDATA, add(CFA_XSP16, literal(-2)))
        CFI (cfiCond242) DPH0 load(1, XDATA, add(CFA_XSP16, literal(-1)))
        CFI (cfiCond242) CFA_SP SP+0
        CFI (cfiCond242) CFA_XSP16 add(XSP16, 10)
        CFI Block cfiCond243 Using cfiCommon0
        CFI (cfiCond243) NoFunction
        CFI (cfiCond243) Conditional ??CrossCallReturnLabel_89
        CFI (cfiCond243) R6 load(1, XDATA, add(CFA_XSP16, literal(-10)))
        CFI (cfiCond243) VB load(1, XDATA, add(CFA_XSP16, literal(-9)))
        CFI (cfiCond243) V0 load(1, XDATA, add(CFA_XSP16, literal(-8)))
        CFI (cfiCond243) V1 load(1, XDATA, add(CFA_XSP16, literal(-7)))
        CFI (cfiCond243) R7 load(1, XDATA, add(CFA_XSP16, literal(-6)))
        CFI (cfiCond243) ?RET_LOW load(1, XDATA, add(CFA_XSP16, literal(-5)))
        CFI (cfiCond243) ?RET_HIGH load(1, XDATA, add(CFA_XSP16, literal(-4)))
        CFI (cfiCond243) ?BRET_EXT load(1, XDATA, add(CFA_XSP16, literal(-3)))
        CFI (cfiCond243) DPL0 load(1, XDATA, add(CFA_XSP16, literal(-2)))
        CFI (cfiCond243) DPH0 load(1, XDATA, add(CFA_XSP16, literal(-1)))
        CFI (cfiCond243) CFA_SP SP+0
        CFI (cfiCond243) CFA_XSP16 add(XSP16, 10)
        CFI Block cfiCond244 Using cfiCommon0
        CFI (cfiCond244) NoFunction
        CFI (cfiCond244) Conditional ??CrossCallReturnLabel_90
        CFI (cfiCond244) DPL0 Frame(CFA_SP, 4)
        CFI (cfiCond244) DPH0 Frame(CFA_SP, 5)
        CFI (cfiCond244) CFA_SP SP+-5
        CFI Block cfiPicker245 Using cfiCommon1
        CFI (cfiPicker245) NoFunction
        CFI (cfiPicker245) Picker
        LCALL   ?Subroutine25 & 0xFFFF
??CrossCallReturnLabel_97:
        CLR     A
        MOVX    @DPTR,A
        RET
        CFI EndBlock cfiCond241
        CFI EndBlock cfiCond242
        CFI EndBlock cfiCond243
        CFI EndBlock cfiCond244
        CFI EndBlock cfiPicker245
//  574 

        RSEG BANKED_CODE:CODE:NOROOT(0)
//  575 void ModifyRefreshCycle(struct ep_info_t *ep, uint8 seconds)
ModifyRefreshCycle:
        CFI Block cfiBlock246 Using cfiCommon0
        CFI Function ModifyRefreshCycle
        CODE
//  576 {
        PUSH    DPL
        CFI DPL0 Frame(CFA_SP, 4)
        CFI CFA_SP SP+-4
        PUSH    DPH
        CFI DPH0 Frame(CFA_SP, 5)
        CFI CFA_SP SP+-5
        ; Saved register size: 2
        ; Auto size: 0
//  577     if(ep == NULL)
        MOV     A,R2
        ORL     A,R3
        JZ      ??ModifyRefreshCycle_0
//  578         return;
//  579     if(ep->time_out == NULL)
        MOV     DPL,R2
        MOV     DPH,R3
        LCALL   ??Subroutine42_0 & 0xFFFF
??CrossCallReturnLabel_82:
        MOV     A,R4
        ORL     A,R5
        JZ      ??ModifyRefreshCycle_0
//  580         return;
//  581     ep->function.cycle = seconds;
        MOV     A,R1
        MOV     DPL,R2
        MOV     DPH,R3
        INC     DPTR
        INC     DPTR
        INC     DPTR
        INC     DPTR
        INC     DPTR
        INC     DPTR
        INC     DPTR
        INC     DPTR
        INC     DPTR
        INC     DPTR
        MOVX    @DPTR,A
//  582     if(ep->timerTick > seconds)
        MOV     A,R2
        ADD     A,#0xd
        MOV     DPL,A
        MOV     A,R3
        LCALL   ??Subroutine39_0 & 0xFFFF
??CrossCallReturnLabel_77:
        MOV     R0,A
        MOV     A,R1
        CLR     C
        SUBB    A,R0
        JNC     ??ModifyRefreshCycle_0
//  583         ep->timerTick = seconds;
        MOV     A,R1
        MOVX    @DPTR,A
??ModifyRefreshCycle_0:
        LJMP    ?Subroutine0 & 0xFFFF
        CFI EndBlock cfiBlock246
//  584 }
//  585 
//  586 #if ! defined(ZDO_COORDINATOR) && defined(RTR_NWK) && !defined(PEER_ROUTER)

        RSEG BANKED_CODE:CODE:NOROOT(0)
//  587 void RouterTimeoutRoutine(struct ep_info_t *ep)
RouterTimeoutRoutine:
        CFI Block cfiBlock247 Using cfiCommon0
        CFI Function RouterTimeoutRoutine
        CODE
//  588 {    
        FUNCALL RouterTimeoutRoutine, SendData
        LOCFRAME ISTACK, 0, STACK
        LOCFRAME PSTACK, 0, STACK
        LOCFRAME XSTACK, 11, STACK
        LOCFRAME IOVERLAY, 0, STATIC
        LOCFRAME DOVERLAY, 0, STATIC
        ARGFRAME ISTACK, 0, STACK
        ARGFRAME PSTACK, 0, STACK
        ARGFRAME XSTACK, 11, STACK
        ARGFRAME IOVERLAY, 0, STATIC
        ARGFRAME DOVERLAY, 0, STATIC
        MOV     A,#-0x9
        LCALL   ?BANKED_ENTER_XDATA
        CFI DPH0 load(1, XDATA, add(CFA_XSP16, literal(-1)))
        CFI DPL0 load(1, XDATA, add(CFA_XSP16, literal(-2)))
        CFI ?BRET_EXT load(1, XDATA, add(CFA_XSP16, literal(-3)))
        CFI ?RET_HIGH load(1, XDATA, add(CFA_XSP16, literal(-4)))
        CFI ?RET_LOW load(1, XDATA, add(CFA_XSP16, literal(-5)))
        CFI R7 load(1, XDATA, add(CFA_XSP16, literal(-6)))
        CFI V0 load(1, XDATA, add(CFA_XSP16, literal(-7)))
        CFI VB load(1, XDATA, add(CFA_XSP16, literal(-8)))
        CFI R6 load(1, XDATA, add(CFA_XSP16, literal(-9)))
        CFI CFA_SP SP+0
        CFI CFA_XSP16 add(XSP16, 9)
        ; Saved register size: 9
        ; Auto size: 0
//  589     SendData(CONTROL_ENDPOINT, (unsigned char *)&topoBuffer, 0x0000, TRANSFER_ENDPOINT, sizeof(TOPOINFO)); //路由节点向协调器发送拓扑信息      
        ; Setup parameters for call to function SendData
        MOV     ?V0 + 0,#0xb
        MOV     R0,#?V0 + 0
        LCALL   ?PUSH_XSTACK_I_ONE
        CFI CFA_XSP16 add(XSP16, 10)
        MOV     ?V0 + 0,#0x1
        MOV     R0,#?V0 + 0
        LCALL   ?PUSH_XSTACK_I_ONE
        CFI CFA_XSP16 add(XSP16, 11)
        MOV     R4,#0x0
        MOV     R5,#0x0
        MOV     R2,#topoBuffer & 0xff
        MOV     R3,#(topoBuffer >> 8) & 0xff
        MOV     R1,#-0x10
        LCALL   ??SendData?relay
        MOV     A,#0x2
        LCALL   ?DEALLOC_XSTACK8
        CFI CFA_XSP16 add(XSP16, 9)
//  590 }
        SJMP    ?Subroutine2
        CFI EndBlock cfiBlock247
//  591 #elif defined(PEER_ROUTER)
//  592 void RouterTimeoutRoutine(struct ep_info_t *ep)
//  593 {
//  594 }  
//  595 #endif
//  596 
//  597 #if defined(ZDO_COORDINATOR)
//  598 void CoordinatorIncomingRoutine(struct ep_info_t *ep, uint16 addr, uint8 endPoint, afMSGCommandFormat_t *msg)
//  599 {
//  600     //msg->Data[], msg->DataLength, msg->TransSeqNumber
//  601     //转发数据到串口  
//  602     if(msg->DataLength > 0)
//  603     {
//  604         mtUserSerialMsg_t *pMsg = osal_mem_alloc(sizeof(mtUserSerialMsg_t) + msg->DataLength - 1);
//  605         pMsg->sop = MT_UART_SOF;
//  606         pMsg->len = msg->DataLength + 6;
//  607         pMsg->cmd = 0x46B9;
//  608         pMsg->cmdEndPoint = 0xF1;
//  609         pMsg->addr = addr;
//  610         SrcShortAddr = addr;//PeerToPeer时使用
//  611         pMsg->endPoint = endPoint;
//  612         if((endPoint == 0xF0)&&(addr !=0)){//为路由包且不为网关路由包
//  613             ClrScreen();                        
//  614             PutString_cn(24,0,"网络协调器");
//  615             PutString_cn(0,16,"---------------");
//  616             PutString_cn(4,32,"新节点加入");
//  617             HalLcdWriteStringValue( "Short Addr:",addr, 16, HAL_LCD_LINE_4);                                 
//  618         }                  
//  619         memcpy(pMsg->data, msg->Data, msg->DataLength);
//  620         pMsg->fsc = MT_UartCalcFCS(0, &pMsg->len, 1);
//  621         pMsg->fsc = MT_UartCalcFCS(pMsg->fsc, pMsg->dataBody, pMsg->len);
//  622         #if (defined(PEER_COORD)||(PEER_ROUTER))//简单无线收发实验
//  623         HalUARTWrite(HAL_UART_PORT_0, &pMsg->data[0], 1);        
//  624         #else
//  625         HalUARTWrite(HAL_UART_PORT_0, &pMsg->sop, sizeof(mtUserSerialMsg_t) - 2 + msg->DataLength);    
//  626         Delay100us(20);  
//  627         HalUARTWrite(HAL_UART_PORT_0, &pMsg->fsc, 1);
//  628         #endif
//  629         osal_mem_free(pMsg);
//  630     }
//  631 }
//  632 #elif defined(RTR_NWK) || defined(PEER_ROUTER) || defined(LIGHT)
//  633 #ifdef LIGHT
//  634 uint8 SegValue = 0;
//  635 bool MotorValue = 0;
//  636 extern const unsigned char seg7table[16];
//  637 #endif

        RSEG BANKED_CODE:CODE:NOROOT(0)
//  638 void RouterIncomingRoutine(struct ep_info_t *ep, uint16 addr, uint8 endPoint, afMSGCommandFormat_t *msg)
RouterIncomingRoutine:
        CFI Block cfiBlock248 Using cfiCommon0
        CFI Function RouterIncomingRoutine
        CODE
//  639 {
        FUNCALL RouterIncomingRoutine, osal_mem_alloc
        LOCFRAME ISTACK, 0, STACK
        LOCFRAME PSTACK, 0, STACK
        LOCFRAME XSTACK, 22, STACK
        LOCFRAME IOVERLAY, 0, STATIC
        LOCFRAME DOVERLAY, 0, STATIC
        ARGFRAME ISTACK, 0, STACK
        ARGFRAME PSTACK, 0, STACK
        ARGFRAME XSTACK, 22, STACK
        ARGFRAME IOVERLAY, 0, STATIC
        ARGFRAME DOVERLAY, 0, STATIC
        FUNCALL RouterIncomingRoutine, memcpy
        LOCFRAME ISTACK, 0, STACK
        LOCFRAME PSTACK, 0, STACK
        LOCFRAME XSTACK, 24, STACK
        LOCFRAME IOVERLAY, 0, STATIC
        LOCFRAME DOVERLAY, 0, STATIC
        ARGFRAME ISTACK, 0, STACK
        ARGFRAME PSTACK, 0, STACK
        ARGFRAME XSTACK, 24, STACK
        ARGFRAME IOVERLAY, 0, STATIC
        ARGFRAME DOVERLAY, 0, STATIC
        FUNCALL RouterIncomingRoutine, MT_UartCalcFCS
        LOCFRAME ISTACK, 0, STACK
        LOCFRAME PSTACK, 0, STACK
        LOCFRAME XSTACK, 22, STACK
        LOCFRAME IOVERLAY, 0, STATIC
        LOCFRAME DOVERLAY, 0, STATIC
        ARGFRAME ISTACK, 0, STACK
        ARGFRAME PSTACK, 0, STACK
        ARGFRAME XSTACK, 22, STACK
        ARGFRAME IOVERLAY, 0, STATIC
        ARGFRAME DOVERLAY, 0, STATIC
        FUNCALL RouterIncomingRoutine, MT_UartCalcFCS
        LOCFRAME ISTACK, 0, STACK
        LOCFRAME PSTACK, 0, STACK
        LOCFRAME XSTACK, 22, STACK
        LOCFRAME IOVERLAY, 0, STATIC
        LOCFRAME DOVERLAY, 0, STATIC
        ARGFRAME ISTACK, 0, STACK
        ARGFRAME PSTACK, 0, STACK
        ARGFRAME XSTACK, 22, STACK
        ARGFRAME IOVERLAY, 0, STATIC
        ARGFRAME DOVERLAY, 0, STATIC
        FUNCALL RouterIncomingRoutine, HalUARTWrite
        LOCFRAME ISTACK, 0, STACK
        LOCFRAME PSTACK, 0, STACK
        LOCFRAME XSTACK, 22, STACK
        LOCFRAME IOVERLAY, 0, STATIC
        LOCFRAME DOVERLAY, 0, STATIC
        ARGFRAME ISTACK, 0, STACK
        ARGFRAME PSTACK, 0, STACK
        ARGFRAME XSTACK, 22, STACK
        ARGFRAME IOVERLAY, 0, STATIC
        ARGFRAME DOVERLAY, 0, STATIC
        FUNCALL RouterIncomingRoutine, Delay100us
        LOCFRAME ISTACK, 0, STACK
        LOCFRAME PSTACK, 0, STACK
        LOCFRAME XSTACK, 22, STACK
        LOCFRAME IOVERLAY, 0, STATIC
        LOCFRAME DOVERLAY, 0, STATIC
        ARGFRAME ISTACK, 0, STACK
        ARGFRAME PSTACK, 0, STACK
        ARGFRAME XSTACK, 22, STACK
        ARGFRAME IOVERLAY, 0, STATIC
        ARGFRAME DOVERLAY, 0, STATIC
        FUNCALL RouterIncomingRoutine, HalUARTWrite
        LOCFRAME ISTACK, 0, STACK
        LOCFRAME PSTACK, 0, STACK
        LOCFRAME XSTACK, 22, STACK
        LOCFRAME IOVERLAY, 0, STATIC
        LOCFRAME DOVERLAY, 0, STATIC
        ARGFRAME ISTACK, 0, STACK
        ARGFRAME PSTACK, 0, STACK
        ARGFRAME XSTACK, 22, STACK
        ARGFRAME IOVERLAY, 0, STATIC
        ARGFRAME DOVERLAY, 0, STATIC
        FUNCALL RouterIncomingRoutine, osal_mem_free
        LOCFRAME ISTACK, 0, STACK
        LOCFRAME PSTACK, 0, STACK
        LOCFRAME XSTACK, 22, STACK
        LOCFRAME IOVERLAY, 0, STATIC
        LOCFRAME DOVERLAY, 0, STATIC
        ARGFRAME ISTACK, 0, STACK
        ARGFRAME PSTACK, 0, STACK
        ARGFRAME XSTACK, 22, STACK
        ARGFRAME IOVERLAY, 0, STATIC
        ARGFRAME DOVERLAY, 0, STATIC
        MOV     A,#-0x16
        LCALL   ?BANKED_ENTER_XDATA
        CFI DPH0 load(1, XDATA, add(CFA_XSP16, literal(-1)))
        CFI DPL0 load(1, XDATA, add(CFA_XSP16, literal(-2)))
        CFI ?BRET_EXT load(1, XDATA, add(CFA_XSP16, literal(-3)))
        CFI ?RET_HIGH load(1, XDATA, add(CFA_XSP16, literal(-4)))
        CFI ?RET_LOW load(1, XDATA, add(CFA_XSP16, literal(-5)))
        CFI R7 load(1, XDATA, add(CFA_XSP16, literal(-6)))
        CFI V13 load(1, XDATA, add(CFA_XSP16, literal(-7)))
        CFI V12 load(1, XDATA, add(CFA_XSP16, literal(-8)))
        CFI V11 load(1, XDATA, add(CFA_XSP16, literal(-9)))
        CFI V10 load(1, XDATA, add(CFA_XSP16, literal(-10)))
        CFI V9 load(1, XDATA, add(CFA_XSP16, literal(-11)))
        CFI V8 load(1, XDATA, add(CFA_XSP16, literal(-12)))
        CFI V7 load(1, XDATA, add(CFA_XSP16, literal(-13)))
        CFI V6 load(1, XDATA, add(CFA_XSP16, literal(-14)))
        CFI V5 load(1, XDATA, add(CFA_XSP16, literal(-15)))
        CFI V4 load(1, XDATA, add(CFA_XSP16, literal(-16)))
        CFI V3 load(1, XDATA, add(CFA_XSP16, literal(-17)))
        CFI V2 load(1, XDATA, add(CFA_XSP16, literal(-18)))
        CFI V1 load(1, XDATA, add(CFA_XSP16, literal(-19)))
        CFI V0 load(1, XDATA, add(CFA_XSP16, literal(-20)))
        CFI VB load(1, XDATA, add(CFA_XSP16, literal(-21)))
        CFI R6 load(1, XDATA, add(CFA_XSP16, literal(-22)))
        CFI CFA_SP SP+0
        CFI CFA_XSP16 add(XSP16, 22)
        ; Saved register size: 22
        ; Auto size: 0
        MOV     ?V0 + 6,R4
        MOV     ?V0 + 7,R5
        MOV     ?V0 + 10,R1
        MOV     A,#0x16
        LCALL   ?XSTACK_DISP0_8
        MOVX    A,@DPTR
        MOV     ?V0 + 4,A
        INC     DPTR
        MOVX    A,@DPTR
        MOV     ?V0 + 5,A
//  640     //msg->Data[], msg->DataLength, msg->TransSeqNumber
//  641     // 转发数据到串口       
//  642     if(msg->DataLength > 0)
        MOV     DPL,?V0 + 4
        MOV     DPH,A
        LCALL   ??Subroutine33_0 & 0xFFFF
??CrossCallReturnLabel_45:
        JNZ     $+5
        LJMP    ??RouterIncomingRoutine_0 & 0xFFFF
//  643     {                       
//  644         mtUserSerialMsg_t *pMsg = osal_mem_alloc(sizeof(mtUserSerialMsg_t) + msg->DataLength - 1);
        MOV     DPL,?V0 + 4
        MOV     DPH,?V0 + 5
        INC     DPTR
        MOV     ?V0 + 2,DPL
        MOV     ?V0 + 3,DPH
        ; Setup parameters for call to function osal_mem_alloc
        MOVX    A,@DPTR
        ADD     A,#0x9
        MOV     R2,A
        INC     DPTR
        MOVX    A,@DPTR
        ADDC    A,#0x0
        MOV     R3,A
        LCALL   ??osal_mem_alloc?relay
        MOV     ?V0 + 0,R2
        MOV     ?V0 + 1,R3
        MOV     R6,?V0 + 0
        MOV     R7,?V0 + 1
//  645         pMsg->sop = MT_UART_SOF;
        MOV     DPL,R6
        MOV     DPH,R7
        INC     DPTR
        MOV     ?V0 + 12,DPL
        MOV     ?V0 + 13,DPH
        MOV     A,#0x2
        MOVX    @DPTR,A
//  646         pMsg->len = msg->DataLength + 6;
        MOV     A,R6
        ADD     A,#0x2
        MOV     ?V0 + 0,A
        MOV     A,R7
        ADDC    A,#0x0
        MOV     ?V0 + 1,A
        MOV     DPL,?V0 + 2
        MOV     DPH,?V0 + 3
        MOVX    A,@DPTR
        ADD     A,#0x6
        MOV     DPL,?V0 + 0
        MOV     DPH,?V0 + 1
        MOVX    @DPTR,A
//  647         pMsg->cmd = 0x46B9;
        MOV     A,R6
        ADD     A,#0x3
        MOV     ?V0 + 8,A
        MOV     A,R7
        ADDC    A,#0x0
        MOV     ?V0 + 9,A
        MOV     DPL,?V0 + 8
        MOV     DPH,A
        MOV     A,#-0x47
        MOVX    @DPTR,A
        INC     DPTR
        MOV     A,#0x46
        LCALL   ?Subroutine27 & 0xFFFF
//  648         pMsg->cmdEndPoint = 0xF1;
??CrossCallReturnLabel_35:
        MOV     A,#-0xf
        LCALL   ?Subroutine18 & 0xFFFF
//  649         pMsg->addr = addr;
??CrossCallReturnLabel_20:
        MOV     A,?V0 + 6
        MOVX    @DPTR,A
        INC     DPTR
        MOV     A,?V0 + 7
        MOVX    @DPTR,A
//  650         SrcShortAddr = addr;//PeerToPeer时使用
        MOV     DPTR,#SrcShortAddr
        MOV     A,?V0 + 6
        MOVX    @DPTR,A
        INC     DPTR
        MOV     A,?V0 + 7
        LCALL   ?Subroutine18 & 0xFFFF
//  651         pMsg->endPoint = endPoint;                
??CrossCallReturnLabel_21:
        INC     DPTR
        INC     DPTR
        MOV     A,?V0 + 10
        MOVX    @DPTR,A
//  652         memcpy(pMsg->data, msg->Data, msg->DataLength);
        ; Setup parameters for call to function memcpy
        MOV     DPL,?V0 + 2
        MOV     DPH,?V0 + 3
        LCALL   ?PUSH_XSTACK8_X_TWO
        CFI CFA_XSP16 add(XSP16, 24)
        MOV     DPL,?V0 + 4
        MOV     DPH,?V0 + 5
        LCALL   ??Subroutine43_0 & 0xFFFF
??CrossCallReturnLabel_81:
        MOV     A,R6
        ADD     A,#0x9
        MOV     R2,A
        MOV     A,R7
        ADDC    A,#0x0
        MOV     R3,A
        LCALL   ??memcpy?relay
        MOV     A,#0x2
        LCALL   ?DEALLOC_XSTACK8
        CFI CFA_XSP16 add(XSP16, 22)
//  653         pMsg->fsc = MT_UartCalcFCS(0, &pMsg->len, 1);
        ; Setup parameters for call to function MT_UartCalcFCS
        MOV     R4,#0x1
        MOV     R2,?V0 + 0
        MOV     R3,?V0 + 1
        MOV     R1,#0x0
        LCALL   ?Subroutine23 & 0xFFFF
//  654         pMsg->fsc = MT_UartCalcFCS(pMsg->fsc, pMsg->dataBody, pMsg->len);
??CrossCallReturnLabel_29:
        ; Setup parameters for call to function MT_UartCalcFCS
        MOV     DPL,?V0 + 0
        MOV     DPH,?V0 + 1
        MOVX    A,@DPTR
        MOV     R4,A
        MOV     R2,?V0 + 8
        MOV     R3,?V0 + 9
        LCALL   ?Subroutine23 & 0xFFFF
//  655         #if defined(PEER_ROUTER)//简单无线收发实验
//  656         HalUARTWrite(HAL_UART_PORT_0, &pMsg->data[0], 1);        
//  657         #elif  defined(LIGHT)//点对点或广播通信实验      
//  658         HalUARTWrite(HAL_UART_PORT_0, &pMsg->data[0], 1);        
//  659         //数码管控制
//  660         Sensor_PIN_INT(7);
//  661         P0 |= (0x1<<4);  
//  662         SegValue++;
//  663         if(SegValue>0xf) SegValue=0;      
//  664         P1 =  seg7table[SegValue];
//  665         P0 &= ~(0x1<<4); 
//  666         
//  667         Sensor_PIN_INT(6);
//  668         MotorValue = !MotorValue;
//  669         if(MotorValue == 0)//模拟电机停止
//  670             P0 &= (~(0x1 << 6));
//  671         if(MotorValue == 1)//模拟电机启动
//  672             P0 |= (0x1 << 6);            
//  673         #else
//  674         HalUARTWrite(HAL_UART_PORT_0, &pMsg->sop, sizeof(mtUserSerialMsg_t) - 2 + msg->DataLength);       
??CrossCallReturnLabel_30:
        ; Setup parameters for call to function HalUARTWrite
        MOV     DPL,?V0 + 2
        MOV     DPH,?V0 + 3
        MOVX    A,@DPTR
        ADD     A,#0x8
        MOV     R4,A
        INC     DPTR
        MOVX    A,@DPTR
        ADDC    A,#0x0
        MOV     R5,A
        MOV     R2,?V0 + 12
        MOV     R3,?V0 + 13
        MOV     R1,#0x0
        LCALL   ??HalUARTWrite?relay
//  675         Delay100us(20);
        ; Setup parameters for call to function Delay100us
        MOV     R2,#0x14
        MOV     R3,#0x0
        LCALL   ??Delay100us?relay
//  676         HalUARTWrite(HAL_UART_PORT_0, &pMsg->fsc, 1);
        ; Setup parameters for call to function HalUARTWrite
        MOV     R4,#0x1
        MOV     R5,#0x0
        MOV     A,R6
        MOV     R2,A
        MOV     A,R7
        MOV     R3,A
        MOV     R1,#0x0
        LCALL   ??HalUARTWrite?relay
//  677         #endif
//  678         osal_mem_free(pMsg);
        ; Setup parameters for call to function osal_mem_free
        MOV     A,R6
        MOV     R2,A
        MOV     A,R7
        MOV     R3,A
        LCALL   ??osal_mem_free?relay
//  679     }
//  680 }
??RouterIncomingRoutine_0:
        MOV     R7,#0xe
        LJMP    ?BANKED_LEAVE_XDATA
        CFI EndBlock cfiBlock248

        RSEG BANKED_CODE:CODE:NOROOT(0)
?Subroutine23:
        CFI Block cfiCond249 Using cfiCommon0
        CFI NoFunction
        CFI Conditional ??CrossCallReturnLabel_29
        CFI R6 load(1, XDATA, add(CFA_XSP16, literal(-22)))
        CFI VB load(1, XDATA, add(CFA_XSP16, literal(-21)))
        CFI V0 load(1, XDATA, add(CFA_XSP16, literal(-20)))
        CFI V1 load(1, XDATA, add(CFA_XSP16, literal(-19)))
        CFI V2 load(1, XDATA, add(CFA_XSP16, literal(-18)))
        CFI V3 load(1, XDATA, add(CFA_XSP16, literal(-17)))
        CFI V4 load(1, XDATA, add(CFA_XSP16, literal(-16)))
        CFI V5 load(1, XDATA, add(CFA_XSP16, literal(-15)))
        CFI V6 load(1, XDATA, add(CFA_XSP16, literal(-14)))
        CFI V7 load(1, XDATA, add(CFA_XSP16, literal(-13)))
        CFI V8 load(1, XDATA, add(CFA_XSP16, literal(-12)))
        CFI V9 load(1, XDATA, add(CFA_XSP16, literal(-11)))
        CFI V10 load(1, XDATA, add(CFA_XSP16, literal(-10)))
        CFI V11 load(1, XDATA, add(CFA_XSP16, literal(-9)))
        CFI V12 load(1, XDATA, add(CFA_XSP16, literal(-8)))
        CFI V13 load(1, XDATA, add(CFA_XSP16, literal(-7)))
        CFI R7 load(1, XDATA, add(CFA_XSP16, literal(-6)))
        CFI ?RET_LOW load(1, XDATA, add(CFA_XSP16, literal(-5)))
        CFI ?RET_HIGH load(1, XDATA, add(CFA_XSP16, literal(-4)))
        CFI ?BRET_EXT load(1, XDATA, add(CFA_XSP16, literal(-3)))
        CFI DPL0 load(1, XDATA, add(CFA_XSP16, literal(-2)))
        CFI DPH0 load(1, XDATA, add(CFA_XSP16, literal(-1)))
        CFI CFA_SP SP+0
        CFI CFA_XSP16 add(XSP16, 22)
        CFI Block cfiCond250 Using cfiCommon0
        CFI (cfiCond250) NoFunction
        CFI (cfiCond250) Conditional ??CrossCallReturnLabel_30
        CFI (cfiCond250) R6 load(1, XDATA, add(CFA_XSP16, literal(-22)))
        CFI (cfiCond250) VB load(1, XDATA, add(CFA_XSP16, literal(-21)))
        CFI (cfiCond250) V0 load(1, XDATA, add(CFA_XSP16, literal(-20)))
        CFI (cfiCond250) V1 load(1, XDATA, add(CFA_XSP16, literal(-19)))
        CFI (cfiCond250) V2 load(1, XDATA, add(CFA_XSP16, literal(-18)))
        CFI (cfiCond250) V3 load(1, XDATA, add(CFA_XSP16, literal(-17)))
        CFI (cfiCond250) V4 load(1, XDATA, add(CFA_XSP16, literal(-16)))
        CFI (cfiCond250) V5 load(1, XDATA, add(CFA_XSP16, literal(-15)))
        CFI (cfiCond250) V6 load(1, XDATA, add(CFA_XSP16, literal(-14)))
        CFI (cfiCond250) V7 load(1, XDATA, add(CFA_XSP16, literal(-13)))
        CFI (cfiCond250) V8 load(1, XDATA, add(CFA_XSP16, literal(-12)))
        CFI (cfiCond250) V9 load(1, XDATA, add(CFA_XSP16, literal(-11)))
        CFI (cfiCond250) V10 load(1, XDATA, add(CFA_XSP16, literal(-10)))
        CFI (cfiCond250) V11 load(1, XDATA, add(CFA_XSP16, literal(-9)))
        CFI (cfiCond250) V12 load(1, XDATA, add(CFA_XSP16, literal(-8)))
        CFI (cfiCond250) V13 load(1, XDATA, add(CFA_XSP16, literal(-7)))
        CFI (cfiCond250) R7 load(1, XDATA, add(CFA_XSP16, literal(-6)))
        CFI (cfiCond250) ?RET_LOW load(1, XDATA, add(CFA_XSP16, literal(-5)))
        CFI (cfiCond250) ?RET_HIGH load(1, XDATA, add(CFA_XSP16, literal(-4)))
        CFI (cfiCond250) ?BRET_EXT load(1, XDATA, add(CFA_XSP16, literal(-3)))
        CFI (cfiCond250) DPL0 load(1, XDATA, add(CFA_XSP16, literal(-2)))
        CFI (cfiCond250) DPH0 load(1, XDATA, add(CFA_XSP16, literal(-1)))
        CFI (cfiCond250) CFA_SP SP+0
        CFI (cfiCond250) CFA_XSP16 add(XSP16, 22)
        CFI Block cfiPicker251 Using cfiCommon1
        CFI (cfiPicker251) NoFunction
        CFI (cfiPicker251) Picker
        LCALL   ??MT_UartCalcFCS?relay
        MOV     A,R1
        MOV     DPL,R6
        MOV     DPH,R7
        MOVX    @DPTR,A
        RET
        CFI EndBlock cfiCond249
        CFI EndBlock cfiCond250
        CFI EndBlock cfiPicker251

        RSEG BANKED_CODE:CODE:NOROOT(0)
?Subroutine18:
        CFI Block cfiCond252 Using cfiCommon0
        CFI NoFunction
        CFI Conditional ??CrossCallReturnLabel_20
        CFI R6 load(1, XDATA, add(CFA_XSP16, literal(-22)))
        CFI VB load(1, XDATA, add(CFA_XSP16, literal(-21)))
        CFI V0 load(1, XDATA, add(CFA_XSP16, literal(-20)))
        CFI V1 load(1, XDATA, add(CFA_XSP16, literal(-19)))
        CFI V2 load(1, XDATA, add(CFA_XSP16, literal(-18)))
        CFI V3 load(1, XDATA, add(CFA_XSP16, literal(-17)))
        CFI V4 load(1, XDATA, add(CFA_XSP16, literal(-16)))
        CFI V5 load(1, XDATA, add(CFA_XSP16, literal(-15)))
        CFI V6 load(1, XDATA, add(CFA_XSP16, literal(-14)))
        CFI V7 load(1, XDATA, add(CFA_XSP16, literal(-13)))
        CFI V8 load(1, XDATA, add(CFA_XSP16, literal(-12)))
        CFI V9 load(1, XDATA, add(CFA_XSP16, literal(-11)))
        CFI V10 load(1, XDATA, add(CFA_XSP16, literal(-10)))
        CFI V11 load(1, XDATA, add(CFA_XSP16, literal(-9)))
        CFI V12 load(1, XDATA, add(CFA_XSP16, literal(-8)))
        CFI V13 load(1, XDATA, add(CFA_XSP16, literal(-7)))
        CFI R7 load(1, XDATA, add(CFA_XSP16, literal(-6)))
        CFI ?RET_LOW load(1, XDATA, add(CFA_XSP16, literal(-5)))
        CFI ?RET_HIGH load(1, XDATA, add(CFA_XSP16, literal(-4)))
        CFI ?BRET_EXT load(1, XDATA, add(CFA_XSP16, literal(-3)))
        CFI DPL0 load(1, XDATA, add(CFA_XSP16, literal(-2)))
        CFI DPH0 load(1, XDATA, add(CFA_XSP16, literal(-1)))
        CFI CFA_SP SP+0
        CFI CFA_XSP16 add(XSP16, 22)
        CFI Block cfiCond253 Using cfiCommon0
        CFI (cfiCond253) NoFunction
        CFI (cfiCond253) Conditional ??CrossCallReturnLabel_21
        CFI (cfiCond253) R6 load(1, XDATA, add(CFA_XSP16, literal(-22)))
        CFI (cfiCond253) VB load(1, XDATA, add(CFA_XSP16, literal(-21)))
        CFI (cfiCond253) V0 load(1, XDATA, add(CFA_XSP16, literal(-20)))
        CFI (cfiCond253) V1 load(1, XDATA, add(CFA_XSP16, literal(-19)))
        CFI (cfiCond253) V2 load(1, XDATA, add(CFA_XSP16, literal(-18)))
        CFI (cfiCond253) V3 load(1, XDATA, add(CFA_XSP16, literal(-17)))
        CFI (cfiCond253) V4 load(1, XDATA, add(CFA_XSP16, literal(-16)))
        CFI (cfiCond253) V5 load(1, XDATA, add(CFA_XSP16, literal(-15)))
        CFI (cfiCond253) V6 load(1, XDATA, add(CFA_XSP16, literal(-14)))
        CFI (cfiCond253) V7 load(1, XDATA, add(CFA_XSP16, literal(-13)))
        CFI (cfiCond253) V8 load(1, XDATA, add(CFA_XSP16, literal(-12)))
        CFI (cfiCond253) V9 load(1, XDATA, add(CFA_XSP16, literal(-11)))
        CFI (cfiCond253) V10 load(1, XDATA, add(CFA_XSP16, literal(-10)))
        CFI (cfiCond253) V11 load(1, XDATA, add(CFA_XSP16, literal(-9)))
        CFI (cfiCond253) V12 load(1, XDATA, add(CFA_XSP16, literal(-8)))
        CFI (cfiCond253) V13 load(1, XDATA, add(CFA_XSP16, literal(-7)))
        CFI (cfiCond253) R7 load(1, XDATA, add(CFA_XSP16, literal(-6)))
        CFI (cfiCond253) ?RET_LOW load(1, XDATA, add(CFA_XSP16, literal(-5)))
        CFI (cfiCond253) ?RET_HIGH load(1, XDATA, add(CFA_XSP16, literal(-4)))
        CFI (cfiCond253) ?BRET_EXT load(1, XDATA, add(CFA_XSP16, literal(-3)))
        CFI (cfiCond253) DPL0 load(1, XDATA, add(CFA_XSP16, literal(-2)))
        CFI (cfiCond253) DPH0 load(1, XDATA, add(CFA_XSP16, literal(-1)))
        CFI (cfiCond253) CFA_SP SP+0
        CFI (cfiCond253) CFA_XSP16 add(XSP16, 22)
        CFI Block cfiPicker254 Using cfiCommon1
        CFI (cfiPicker254) NoFunction
        CFI (cfiPicker254) Picker
        LCALL   ?Subroutine27 & 0xFFFF
??CrossCallReturnLabel_36:
        INC     DPTR
        RET
        CFI EndBlock cfiCond252
        CFI EndBlock cfiCond253
        CFI EndBlock cfiPicker254

        RSEG BANKED_CODE:CODE:NOROOT(0)
?Subroutine27:
        CFI Block cfiCond255 Using cfiCommon0
        CFI NoFunction
        CFI Conditional ??CrossCallReturnLabel_35
        CFI R6 load(1, XDATA, add(CFA_XSP16, literal(-22)))
        CFI VB load(1, XDATA, add(CFA_XSP16, literal(-21)))
        CFI V0 load(1, XDATA, add(CFA_XSP16, literal(-20)))
        CFI V1 load(1, XDATA, add(CFA_XSP16, literal(-19)))
        CFI V2 load(1, XDATA, add(CFA_XSP16, literal(-18)))
        CFI V3 load(1, XDATA, add(CFA_XSP16, literal(-17)))
        CFI V4 load(1, XDATA, add(CFA_XSP16, literal(-16)))
        CFI V5 load(1, XDATA, add(CFA_XSP16, literal(-15)))
        CFI V6 load(1, XDATA, add(CFA_XSP16, literal(-14)))
        CFI V7 load(1, XDATA, add(CFA_XSP16, literal(-13)))
        CFI V8 load(1, XDATA, add(CFA_XSP16, literal(-12)))
        CFI V9 load(1, XDATA, add(CFA_XSP16, literal(-11)))
        CFI V10 load(1, XDATA, add(CFA_XSP16, literal(-10)))
        CFI V11 load(1, XDATA, add(CFA_XSP16, literal(-9)))
        CFI V12 load(1, XDATA, add(CFA_XSP16, literal(-8)))
        CFI V13 load(1, XDATA, add(CFA_XSP16, literal(-7)))
        CFI R7 load(1, XDATA, add(CFA_XSP16, literal(-6)))
        CFI ?RET_LOW load(1, XDATA, add(CFA_XSP16, literal(-5)))
        CFI ?RET_HIGH load(1, XDATA, add(CFA_XSP16, literal(-4)))
        CFI ?BRET_EXT load(1, XDATA, add(CFA_XSP16, literal(-3)))
        CFI DPL0 load(1, XDATA, add(CFA_XSP16, literal(-2)))
        CFI DPH0 load(1, XDATA, add(CFA_XSP16, literal(-1)))
        CFI CFA_SP SP+0
        CFI CFA_XSP16 add(XSP16, 22)
        CFI Block cfiCond256 Using cfiCommon0
        CFI (cfiCond256) NoFunction
        CFI (cfiCond256) Conditional ??CrossCallReturnLabel_36, ??CrossCallReturnLabel_20
        CFI (cfiCond256) R6 load(1, XDATA, add(CFA_XSP16, literal(-22)))
        CFI (cfiCond256) VB load(1, XDATA, add(CFA_XSP16, literal(-21)))
        CFI (cfiCond256) V0 load(1, XDATA, add(CFA_XSP16, literal(-20)))
        CFI (cfiCond256) V1 load(1, XDATA, add(CFA_XSP16, literal(-19)))
        CFI (cfiCond256) V2 load(1, XDATA, add(CFA_XSP16, literal(-18)))
        CFI (cfiCond256) V3 load(1, XDATA, add(CFA_XSP16, literal(-17)))
        CFI (cfiCond256) V4 load(1, XDATA, add(CFA_XSP16, literal(-16)))
        CFI (cfiCond256) V5 load(1, XDATA, add(CFA_XSP16, literal(-15)))
        CFI (cfiCond256) V6 load(1, XDATA, add(CFA_XSP16, literal(-14)))
        CFI (cfiCond256) V7 load(1, XDATA, add(CFA_XSP16, literal(-13)))
        CFI (cfiCond256) V8 load(1, XDATA, add(CFA_XSP16, literal(-12)))
        CFI (cfiCond256) V9 load(1, XDATA, add(CFA_XSP16, literal(-11)))
        CFI (cfiCond256) V10 load(1, XDATA, add(CFA_XSP16, literal(-10)))
        CFI (cfiCond256) V11 load(1, XDATA, add(CFA_XSP16, literal(-9)))
        CFI (cfiCond256) V12 load(1, XDATA, add(CFA_XSP16, literal(-8)))
        CFI (cfiCond256) V13 load(1, XDATA, add(CFA_XSP16, literal(-7)))
        CFI (cfiCond256) R7 load(1, XDATA, add(CFA_XSP16, literal(-6)))
        CFI (cfiCond256) ?RET_LOW load(1, XDATA, add(CFA_XSP16, literal(-5)))
        CFI (cfiCond256) ?RET_HIGH load(1, XDATA, add(CFA_XSP16, literal(-4)))
        CFI (cfiCond256) ?BRET_EXT load(1, XDATA, add(CFA_XSP16, literal(-3)))
        CFI (cfiCond256) DPL0 load(1, XDATA, add(CFA_XSP16, literal(-2)))
        CFI (cfiCond256) DPH0 load(1, XDATA, add(CFA_XSP16, literal(-1)))
        CFI (cfiCond256) CFA_SP SP+0
        CFI (cfiCond256) CFA_XSP16 add(XSP16, 22)
        CFI Block cfiCond257 Using cfiCommon0
        CFI (cfiCond257) NoFunction
        CFI (cfiCond257) Conditional ??CrossCallReturnLabel_36, ??CrossCallReturnLabel_21
        CFI (cfiCond257) R6 load(1, XDATA, add(CFA_XSP16, literal(-22)))
        CFI (cfiCond257) VB load(1, XDATA, add(CFA_XSP16, literal(-21)))
        CFI (cfiCond257) V0 load(1, XDATA, add(CFA_XSP16, literal(-20)))
        CFI (cfiCond257) V1 load(1, XDATA, add(CFA_XSP16, literal(-19)))
        CFI (cfiCond257) V2 load(1, XDATA, add(CFA_XSP16, literal(-18)))
        CFI (cfiCond257) V3 load(1, XDATA, add(CFA_XSP16, literal(-17)))
        CFI (cfiCond257) V4 load(1, XDATA, add(CFA_XSP16, literal(-16)))
        CFI (cfiCond257) V5 load(1, XDATA, add(CFA_XSP16, literal(-15)))
        CFI (cfiCond257) V6 load(1, XDATA, add(CFA_XSP16, literal(-14)))
        CFI (cfiCond257) V7 load(1, XDATA, add(CFA_XSP16, literal(-13)))
        CFI (cfiCond257) V8 load(1, XDATA, add(CFA_XSP16, literal(-12)))
        CFI (cfiCond257) V9 load(1, XDATA, add(CFA_XSP16, literal(-11)))
        CFI (cfiCond257) V10 load(1, XDATA, add(CFA_XSP16, literal(-10)))
        CFI (cfiCond257) V11 load(1, XDATA, add(CFA_XSP16, literal(-9)))
        CFI (cfiCond257) V12 load(1, XDATA, add(CFA_XSP16, literal(-8)))
        CFI (cfiCond257) V13 load(1, XDATA, add(CFA_XSP16, literal(-7)))
        CFI (cfiCond257) R7 load(1, XDATA, add(CFA_XSP16, literal(-6)))
        CFI (cfiCond257) ?RET_LOW load(1, XDATA, add(CFA_XSP16, literal(-5)))
        CFI (cfiCond257) ?RET_HIGH load(1, XDATA, add(CFA_XSP16, literal(-4)))
        CFI (cfiCond257) ?BRET_EXT load(1, XDATA, add(CFA_XSP16, literal(-3)))
        CFI (cfiCond257) DPL0 load(1, XDATA, add(CFA_XSP16, literal(-2)))
        CFI (cfiCond257) DPH0 load(1, XDATA, add(CFA_XSP16, literal(-1)))
        CFI (cfiCond257) CFA_SP SP+0
        CFI (cfiCond257) CFA_XSP16 add(XSP16, 22)
        CFI Block cfiPicker258 Using cfiCommon1
        CFI (cfiPicker258) NoFunction
        CFI (cfiPicker258) Picker
        MOVX    @DPTR,A
        MOV     DPL,R6
        MOV     DPH,R7
        INC     DPTR
        INC     DPTR
        INC     DPTR
        INC     DPTR
        INC     DPTR
        RET
        CFI EndBlock cfiCond255
        CFI EndBlock cfiCond256
        CFI EndBlock cfiCond257
        CFI EndBlock cfiPicker258
//  681 #endif
//  682 

        RSEG BANKED_CODE:CODE:NOROOT(0)
//  683 void Delay100us(uint16 Num)
Delay100us:
        CFI Block cfiBlock259 Using cfiCommon0
        CFI Function Delay100us
        CODE
//  684 {
        ; Saved register size: 0
        ; Auto size: 0
//  685   uint16 i;
//  686   uint8 j;
//  687   for(i=0;i<Num;i++){  
        MOV     R0,#0x0
        MOV     R1,#0x0
        SJMP    ??Delay100us_0
//  688     for(j=0;j<120;j++){
??Delay100us_1:
        MOV     A,#0x78
//  689       asm("NOP");
??Delay100us_2:
        NOP
//  690       asm("NOP");
        NOP
//  691       asm("NOP");
        NOP
//  692       asm("NOP");
        NOP
//  693       asm("NOP");
        NOP
//  694       asm("NOP");
        NOP
//  695       asm("NOP");
        NOP
//  696       asm("NOP");
        NOP
//  697       asm("NOP");
        NOP
//  698       asm("NOP");
        NOP
//  699     }
        DEC     A
        JNZ     ??Delay100us_2
//  700   }    
        MOV     A,R0
        ADD     A,#0x1
        INC     R0
        MOV     A,R1
        ADDC    A,#0x0
        MOV     R1,A
??Delay100us_0:
        CLR     C
        MOV     A,R0
        SUBB    A,R2
        MOV     A,R1
        SUBB    A,R3
        JC      ??Delay100us_1
//  701 }
        LJMP    ?BRET
        CFI EndBlock cfiBlock259

        RSEG XDATA_ID:CODE:NOROOT(0)
`?<Initializer for SrcShortAddr>`:
        DATA16
        DW 65535

        RSEG XDATA_ID:CODE:NOROOT(0)
`?<Initializer for topoBuffer>`:
        DATA8
        DB 2
        DB 0
        DB 0
        DB 0
        DB 0
        DB 0
        DB 0
        DB 0
        DB 0
        DATA16
        DW 0

        RSEG XDATA_ID:CODE:NOROOT(0)
`?<Initializer for commonClusterId>`:
        DATA16
        DW 1

        RSEG BANK_RELAYS:CODE:REORDER:NOROOT(0)
??osalInitTasks?relay:
        LCALL   ?BDISPATCH
        DATA
        DC24    osalInitTasks

        RSEG BANK_RELAYS:CODE:REORDER:NOROOT(0)
??taskInitProcess?relay:
        LCALL   ?BDISPATCH
        DATA
        DC24    taskInitProcess

        RSEG BANK_RELAYS:CODE:REORDER:NOROOT(0)
??createEndPoint?relay:
        LCALL   ?BDISPATCH
        DATA
        DC24    createEndPoint

        RSEG BANK_RELAYS:CODE:REORDER:NOROOT(0)
??controlEpProcess?relay:
        LCALL   ?BDISPATCH
        DATA
        DC24    controlEpProcess

        RSEG BANK_RELAYS:CODE:REORDER:NOROOT(0)
??functionEpProcess?relay:
        LCALL   ?BDISPATCH
        DATA
        DC24    functionEpProcess

        RSEG BANK_RELAYS:CODE:REORDER:NOROOT(0)
??SendData?relay:
        LCALL   ?BDISPATCH
        DATA
        DC24    SendData

        RSEG BANK_RELAYS:CODE:REORDER:NOROOT(0)
??CreateUserTimer?relay:
        LCALL   ?BDISPATCH
        DATA
        DC24    CreateUserTimer

        RSEG BANK_RELAYS:CODE:REORDER:NOROOT(0)
??DeleteUserTimer?relay:
        LCALL   ?BDISPATCH
        DATA
        DC24    DeleteUserTimer

        RSEG BANK_RELAYS:CODE:REORDER:NOROOT(0)
??ModifyRefreshCycle?relay:
        LCALL   ?BDISPATCH
        DATA
        DC24    ModifyRefreshCycle

        RSEG BANK_RELAYS:CODE:REORDER:NOROOT(0)
??RouterTimeoutRoutine?relay:
        LCALL   ?BDISPATCH
        DATA
        DC24    RouterTimeoutRoutine

        RSEG BANK_RELAYS:CODE:REORDER:NOROOT(0)
??RouterIncomingRoutine?relay:
        LCALL   ?BDISPATCH
        DATA
        DC24    RouterIncomingRoutine

        RSEG BANK_RELAYS:CODE:REORDER:NOROOT(0)
??Delay100us?relay:
        LCALL   ?BDISPATCH
        DATA
        DC24    Delay100us

        RSEG XDATA_ROM_C:CONST:REORDER:NOROOT(0)
        DATA8
`?<Constant {3, 0, 0}>`:
        DB 3
        DB 0
        DB 0

        END
// 
// 2 675 bytes in segment BANKED_CODE
//    72 bytes in segment BANK_RELAYS
//    15 bytes in segment XDATA_I
//    15 bytes in segment XDATA_ID
//    24 bytes in segment XDATA_ROM_C
//    40 bytes in segment XDATA_Z
// 
// 2 762 bytes of CODE  memory
//    24 bytes of CONST memory
//    55 bytes of XDATA memory
//
//Errors: none
//Warnings: none
