///////////////////////////////////////////////////////////////////////////////
//                                                                            /
// IAR C/C++ Compiler V8.10.3.10338/W32 for 8051        29/May/2019  10:40:03 /
// Copyright 2004-2011 IAR Systems AB.                                        /
//                                                                            /
//    Core               =  plain                                             /
//    Code model         =  banked                                            /
//    Data model         =  large                                             /
//    Calling convention =  xdata reentrant                                   /
//    Constant location  =  data_rom                                          /
//    Dptr setup         =  1,16                                              /
//    Source file        =  D:\Zigbee资料\协议栈\ZStack-CC2530-IOT\Components /
//                          \mt\MT_UART.c                                     /
//    Command line       =  -f D:\Zigbee资料\协议栈\ZStack-CC2530-IOT\Project /
//                          s\SappWsn\..\zstack\Tools\CC2530DB\f8wCoord.cfg   /
//                          (-DCPU32MHZ -DROOT=__near_func                    /
//                          -DMAC_CFG_APP_PENDING_QUEUE=TRUE                  /
//                          -DMAC_CFG_TX_DATA_MAX=5 -DMAC_CFG_TX_MAX=8        /
//                          -DMAC_CFG_RX_MAX=5 -DZDO_COORDINATOR -DRTR_NWK)   /
//                          -f D:\Zigbee资料\协议栈\ZStack-CC2530-IOT\Project /
//                          s\SappWsn\..\zstack\Tools\CC2530DB\f8wConfig.cfg  /
//                          (-DZIGBEEPRO -DSECURE=0 -DZG_SECURE_DYNAMIC=0     /
//                          -DREFLECTOR -DDEFAULT_CHANLIST=0x00100000         /
//                          -DZDAPP_CONFIG_PAN_ID=0x0213                      /
//                          -DNWK_START_DELAY=100 -DEXTENDED_JOINING_RANDOM_M /
//                          ASK=0x007F -DBEACON_REQUEST_DELAY=100             /
//                          -DBEACON_REQ_DELAY_MASK=0x00FF                    /
//                          -DLINK_STATUS_JITTER_MASK=0x007F                  /
//                          -DROUTE_EXPIRY_TIME=30 -DAPSC_ACK_WAIT_DURATION_P /
//                          OLLED=3000 -DNWK_INDIRECT_MSG_TIMEOUT=7           /
//                          -DMAX_RREQ_ENTRIES=8 -DAPSC_MAX_FRAME_RETRIES=3   /
//                          -DNWK_MAX_DATA_RETRIES=2                          /
//                          -DMAX_POLL_FAILURE_RETRIES=2 -DMAX_BCAST=9        /
//                          -DAPS_MAX_GROUPS=16 -DMAX_RTG_ENTRIES=40          /
//                          -DNWK_MAX_BINDING_ENTRIES=4                       /
//                          -DMAX_BINDING_CLUSTER_IDS=4                       /
//                          "-DDEFAULT_KEY={0x01, 0x03, 0x05, 0x07, 0x09,     /
//                          0x0B, 0x0D, 0x0F, 0x00, 0x02, 0x04, 0x06, 0x08,   /
//                          0x0A, 0x0C, 0x0D}" -DMAC_MAX_FRAME_SIZE=116       /
//                          -DZDNWKMGR_MIN_TRANSMISSIONS=20 "-DCONST=const    /
//                          __code" -DGENERIC=__generic                       /
//                          -DRFD_RCVC_ALWAYS_ON=FALSE -DPOLL_RATE=1000       /
//                          -DQUEUED_POLL_RATE=100 -DRESPONSE_POLL_RATE=100)  /
//                          -DREJOIN_POLL_RATE=440 D:\Zigbee资料\协议栈\ZStac /
//                          k-CC2530-IOT\Components\mt\MT_UART.c -D ZTOOL_P1  /
//                          -D MT_TASK -D MT_SYS_FUNC -D MT_ZDO_FUNC -D       /
//                          PEER_COORD -lC D:\Zigbee资料\协议栈\ZStack-CC2530 /
//                          -IOT\Projects\SappWsn\CoordinatorPeer\List\ -lA   /
//                          D:\Zigbee资料\协议栈\ZStack-CC2530-IOT\Projects\S /
//                          appWsn\CoordinatorPeer\List\ --diag_suppress      /
//                          Pe001,Pa010 -o D:\Zigbee资料\协议栈\ZStack-CC2530 /
//                          -IOT\Projects\SappWsn\CoordinatorPeer\Obj\ -e     /
//                          --no_code_motion --debug --core=plain             /
//                          --dptr=16,1 --data_model=large                    /
//                          --code_model=banked --calling_convention=xdata_re /
//                          entrant --place_constants=data_rom                /
//                          --nr_virtual_regs 16 -I                           /
//                          D:\Zigbee资料\协议栈\ZStack-CC2530-IOT\Projects\S /
//                          appWsn\ -I D:\Zigbee资料\协议栈\ZStack-CC2530-IOT /
//                          \Projects\SappWsn\Source\ -I                      /
//                          D:\Zigbee资料\协议栈\ZStack-CC2530-IOT\Projects\S /
//                          appWsn\..\zstack\ZMain\TI2530DB\ -I               /
//                          D:\Zigbee资料\协议栈\ZStack-CC2530-IOT\Projects\S /
//                          appWsn\..\..\Components\hal\include\ -I           /
//                          D:\Zigbee资料\协议栈\ZStack-CC2530-IOT\Projects\S /
//                          appWsn\..\..\Components\hal\target\CC2530EB\ -I   /
//                          D:\Zigbee资料\协议栈\ZStack-CC2530-IOT\Projects\S /
//                          appWsn\..\..\Components\mac\include\ -I           /
//                          D:\Zigbee资料\协议栈\ZStack-CC2530-IOT\Projects\S /
//                          appWsn\..\..\Components\mac\high_level\ -I        /
//                          D:\Zigbee资料\协议栈\ZStack-CC2530-IOT\Projects\S /
//                          appWsn\..\..\Components\mac\low_level\srf04\ -I   /
//                          D:\Zigbee资料\协议栈\ZStack-CC2530-IOT\Projects\S /
//                          appWsn\..\..\Components\mac\low_level\srf04\singl /
//                          e_chip\ -I D:\Zigbee资料\协议栈\ZStack-CC2530-IOT /
//                          \Projects\SappWsn\..\..\Components\mt\ -I         /
//                          D:\Zigbee资料\协议栈\ZStack-CC2530-IOT\Projects\S /
//                          appWsn\..\..\Components\osal\include\ -I          /
//                          D:\Zigbee资料\协议栈\ZStack-CC2530-IOT\Projects\S /
//                          appWsn\..\..\Components\services\saddr\ -I        /
//                          D:\Zigbee资料\协议栈\ZStack-CC2530-IOT\Projects\S /
//                          appWsn\..\..\Components\services\sdata\ -I        /
//                          D:\Zigbee资料\协议栈\ZStack-CC2530-IOT\Projects\S /
//                          appWsn\..\..\Components\stack\af\ -I              /
//                          D:\Zigbee资料\协议栈\ZStack-CC2530-IOT\Projects\S /
//                          appWsn\..\..\Components\stack\nwk\ -I             /
//                          D:\Zigbee资料\协议栈\ZStack-CC2530-IOT\Projects\S /
//                          appWsn\..\..\Components\stack\sapi\ -I            /
//                          D:\Zigbee资料\协议栈\ZStack-CC2530-IOT\Projects\S /
//                          appWsn\..\..\Components\stack\sec\ -I             /
//                          D:\Zigbee资料\协议栈\ZStack-CC2530-IOT\Projects\S /
//                          appWsn\..\..\Components\stack\sys\ -I             /
//                          D:\Zigbee资料\协议栈\ZStack-CC2530-IOT\Projects\S /
//                          appWsn\..\..\Components\stack\zdo\ -I             /
//                          D:\Zigbee资料\协议栈\ZStack-CC2530-IOT\Projects\S /
//                          appWsn\..\..\Components\zmac\ -I                  /
//                          D:\Zigbee资料\协议栈\ZStack-CC2530-IOT\Projects\S /
//                          appWsn\..\..\Components\zmac\f8w\ -Ohz            /
//                          --require_prototypes                              /
//    List file          =  D:\Zigbee资料\协议栈\ZStack-CC2530-IOT\Projects\S /
//                          appWsn\CoordinatorPeer\List\MT_UART.s51           /
//                                                                            /
//                                                                            /
///////////////////////////////////////////////////////////////////////////////

        NAME MT_UART

        RTMODEL "__SystemLibrary", "CLib"
        RTMODEL "__calling_convention", "xdata_reentrant"
        RTMODEL "__code_model", "banked"
        RTMODEL "__core", "plain"
        RTMODEL "__data_model", "large"
        RTMODEL "__dptr_size", "16"
        RTMODEL "__extended_stack", "disabled"
        RTMODEL "__location_for_constants", "data"
        RTMODEL "__number_of_dptrs", "1"
        RTMODEL "__rt_version", "1"

        RSEG DOVERLAY:DATA:NOROOT(0)
        RSEG IOVERLAY:IDATA:NOROOT(0)
        RSEG ISTACK:IDATA:NOROOT(0)
        RSEG PSTACK:XDATA:NOROOT(0)
        RSEG XSTACK:XDATA:NOROOT(0)

        EXTERN ?ALLOC_XSTACK8
        EXTERN ?BANKED_ENTER_XDATA
        EXTERN ?BANKED_LEAVE_XDATA
        EXTERN ?BDISPATCH
        EXTERN ?BRET
        EXTERN ?DEALLOC_XSTACK8
        EXTERN ?V0
        EXTERN ?XSP
        EXTERN ?XSTACK_DISP0_8
        EXTERN __INIT_XDATA_Z

        PUBLIC ??MT_UartCalcFCS?relay
        FUNCTION ??MT_UartCalcFCS?relay,0203H
        PUBLIC ??MT_UartInit?relay
        FUNCTION ??MT_UartInit?relay,0203H
        PUBLIC ??MT_UartProcessZToolData?relay
        FUNCTION ??MT_UartProcessZToolData?relay,0203H
        PUBLIC ??MT_UartRegisterTaskID?relay
        FUNCTION ??MT_UartRegisterTaskID?relay,0203H
        PUBLIC App_TaskID
        PUBLIC MT_UartCalcFCS
        FUNCTION MT_UartCalcFCS,0203H
        ARGFRAME XSTACK, 0, STACK
        LOCFRAME XSTACK, 9, STACK
        PUBLIC MT_UartInit
        FUNCTION MT_UartInit,021203H
        ARGFRAME XSTACK, 0, STACK
        LOCFRAME ISTACK, 2, STACK
        LOCFRAME XSTACK, 29, STACK
        PUBLIC MT_UartProcessZToolData
        FUNCTION MT_UartProcessZToolData,021603H
        ARGFRAME XSTACK, 0, STACK
        LOCFRAME ISTACK, 1, STACK
        LOCFRAME XSTACK, 11, STACK
        PUBLIC MT_UartRegisterTaskID
        FUNCTION MT_UartRegisterTaskID,0203H
        ARGFRAME XSTACK, 0, STACK
        LOCFRAME ISTACK, 2, STACK
        PUBLIC pMsg
        PUBLIC pMsgContent
        PUBLIC state
        PUBLIC tempDataLen
        
        CFI Names cfiNames0
        CFI StackFrame CFA_SP SP IDATA
        CFI StackFrame CFA_PSP16 PSP16 XDATA
        CFI StackFrame CFA_XSP16 XSP16 XDATA
        CFI StaticOverlayFrame CFA_IOVERLAY IOVERLAY
        CFI StaticOverlayFrame CFA_DOVERLAY DOVERLAY
        CFI Resource `PSW.CY`:1, `B.BR0`:1, `B.BR1`:1, `B.BR2`:1, `B.BR3`:1
        CFI Resource `B.BR4`:1, `B.BR5`:1, `B.BR6`:1, `B.BR7`:1, `VB.BR8`:1
        CFI Resource `VB.BR9`:1, `VB.BR10`:1, `VB.BR11`:1, `VB.BR12`:1
        CFI Resource `VB.BR13`:1, `VB.BR14`:1, `VB.BR15`:1, VB:8, B:8, A:8
        CFI Resource PSW:8, DPL0:8, DPH0:8, R0:8, R1:8, R2:8, R3:8, R4:8, R5:8
        CFI Resource R6:8, R7:8, V0:8, V1:8, V2:8, V3:8, V4:8, V5:8, V6:8, V7:8
        CFI Resource V8:8, V9:8, V10:8, V11:8, V12:8, V13:8, V14:8, V15:8, SP:8
        CFI Resource PSPH:8, PSPL:8, PSP16:16, XSPH:8, XSPL:8, XSP16:16
        CFI VirtualResource ?RET:24
        CFI Resource ?BRET_EXT:8
        CFI VirtualResource ?RET_HIGH:8, ?RET_LOW:8
        CFI ResourceParts PSP16 PSPH, PSPL
        CFI ResourceParts XSP16 XSPH, XSPL
        CFI ResourceParts ?RET ?BRET_EXT, ?RET_HIGH, ?RET_LOW
        CFI EndNames cfiNames0
        
        CFI Common cfiCommon0 Using cfiNames0
        CFI CodeAlign 1
        CFI DataAlign -1
        CFI ReturnAddress ?RET CODE
        CFI CFA_DOVERLAY Used
        CFI CFA_IOVERLAY Used
        CFI CFA_SP SP+-3
        CFI CFA_PSP16 PSP16+0
        CFI CFA_XSP16 XSP16+0
        CFI `PSW.CY` SameValue
        CFI `B.BR0` SameValue
        CFI `B.BR1` SameValue
        CFI `B.BR2` SameValue
        CFI `B.BR3` SameValue
        CFI `B.BR4` SameValue
        CFI `B.BR5` SameValue
        CFI `B.BR6` SameValue
        CFI `B.BR7` SameValue
        CFI `VB.BR8` SameValue
        CFI `VB.BR9` SameValue
        CFI `VB.BR10` SameValue
        CFI `VB.BR11` SameValue
        CFI `VB.BR12` SameValue
        CFI `VB.BR13` SameValue
        CFI `VB.BR14` SameValue
        CFI `VB.BR15` SameValue
        CFI VB SameValue
        CFI B Undefined
        CFI A Undefined
        CFI PSW SameValue
        CFI DPL0 SameValue
        CFI DPH0 SameValue
        CFI R0 Undefined
        CFI R1 Undefined
        CFI R2 Undefined
        CFI R3 Undefined
        CFI R4 Undefined
        CFI R5 Undefined
        CFI R6 SameValue
        CFI R7 SameValue
        CFI V0 SameValue
        CFI V1 SameValue
        CFI V2 SameValue
        CFI V3 SameValue
        CFI V4 SameValue
        CFI V5 SameValue
        CFI V6 SameValue
        CFI V7 SameValue
        CFI V8 SameValue
        CFI V9 SameValue
        CFI V10 SameValue
        CFI V11 SameValue
        CFI V12 SameValue
        CFI V13 SameValue
        CFI V14 SameValue
        CFI V15 SameValue
        CFI PSPH Undefined
        CFI PSPL Undefined
        CFI XSPH Undefined
        CFI XSPL Undefined
        CFI ?RET Concat
        CFI ?BRET_EXT Frame(CFA_SP, 3)
        CFI ?RET_HIGH Frame(CFA_SP, 2)
        CFI ?RET_LOW Frame(CFA_SP, 1)
        CFI EndCommon cfiCommon0
        
        
        CFI Common cfiCommon1 Using cfiNames0
        CFI CodeAlign 1
        CFI DataAlign -1
        CFI ReturnAddress ?RET CODE
        CFI CFA_DOVERLAY Used
        CFI CFA_IOVERLAY Used
        CFI CFA_SP SP+-2
        CFI CFA_PSP16 PSP16+0
        CFI CFA_XSP16 XSP16+0
        CFI `PSW.CY` SameValue
        CFI `B.BR0` SameValue
        CFI `B.BR1` SameValue
        CFI `B.BR2` SameValue
        CFI `B.BR3` SameValue
        CFI `B.BR4` SameValue
        CFI `B.BR5` SameValue
        CFI `B.BR6` SameValue
        CFI `B.BR7` SameValue
        CFI `VB.BR8` SameValue
        CFI `VB.BR9` SameValue
        CFI `VB.BR10` SameValue
        CFI `VB.BR11` SameValue
        CFI `VB.BR12` SameValue
        CFI `VB.BR13` SameValue
        CFI `VB.BR14` SameValue
        CFI `VB.BR15` SameValue
        CFI VB SameValue
        CFI B SameValue
        CFI A SameValue
        CFI PSW SameValue
        CFI DPL0 SameValue
        CFI DPH0 SameValue
        CFI R0 SameValue
        CFI R1 SameValue
        CFI R2 SameValue
        CFI R3 SameValue
        CFI R4 SameValue
        CFI R5 SameValue
        CFI R6 SameValue
        CFI R7 SameValue
        CFI V0 SameValue
        CFI V1 SameValue
        CFI V2 SameValue
        CFI V3 SameValue
        CFI V4 SameValue
        CFI V5 SameValue
        CFI V6 SameValue
        CFI V7 SameValue
        CFI V8 SameValue
        CFI V9 SameValue
        CFI V10 SameValue
        CFI V11 SameValue
        CFI V12 SameValue
        CFI V13 SameValue
        CFI V14 SameValue
        CFI V15 SameValue
        CFI PSPH Undefined
        CFI PSPL Undefined
        CFI XSPH Undefined
        CFI XSPL Undefined
        CFI ?RET Concat
        CFI ?BRET_EXT SameValue
        CFI ?RET_HIGH Frame(CFA_SP, 2)
        CFI ?RET_LOW Frame(CFA_SP, 1)
        CFI EndCommon cfiCommon1
        
HalUARTOpen         SYMBOL "HalUARTOpen"
Hal_UART_RxBufLen   SYMBOL "Hal_UART_RxBufLen"
HalUARTRead         SYMBOL "HalUARTRead"
osal_msg_allocate   SYMBOL "osal_msg_allocate"
osal_msg_send       SYMBOL "osal_msg_send"
??HalUARTOpen?relay SYMBOL "?relay", HalUARTOpen
??HalUARTRead?relay SYMBOL "?relay", HalUARTRead
??Hal_UART_RxBufLen?relay SYMBOL "?relay", Hal_UART_RxBufLen
??osal_msg_allocate?relay SYMBOL "?relay", osal_msg_allocate
??osal_msg_send?relay SYMBOL "?relay", osal_msg_send
MT_UartCalcFCS      SYMBOL "MT_UartCalcFCS"
??MT_UartCalcFCS?relay SYMBOL "?relay", MT_UartCalcFCS
MT_UartInit         SYMBOL "MT_UartInit"
??MT_UartInit?relay SYMBOL "?relay", MT_UartInit
MT_UartProcessZToolData SYMBOL "MT_UartProcessZToolData"
??MT_UartProcessZToolData?relay SYMBOL "?relay", MT_UartProcessZToolData
MT_UartRegisterTaskID SYMBOL "MT_UartRegisterTaskID"
??MT_UartRegisterTaskID?relay SYMBOL "?relay", MT_UartRegisterTaskID

        EXTERN HalUARTOpen
        FUNCTION HalUARTOpen,0202H
        ARGFRAME ISTACK, 2, STACK
        ARGFRAME PSTACK, 0, STACK
        ARGFRAME XSTACK, 29, STACK
        ARGFRAME IOVERLAY, 0, STATIC
        ARGFRAME DOVERLAY, 0, STATIC
        EXTERN Hal_UART_RxBufLen
        FUNCTION Hal_UART_RxBufLen,0202H
        ARGFRAME ISTACK, 0, STACK
        ARGFRAME PSTACK, 0, STACK
        ARGFRAME XSTACK, 11, STACK
        ARGFRAME IOVERLAY, 0, STATIC
        ARGFRAME DOVERLAY, 0, STATIC
        EXTERN HalUARTRead
        FUNCTION HalUARTRead,0202H
        ARGFRAME ISTACK, 0, STACK
        ARGFRAME PSTACK, 0, STACK
        ARGFRAME XSTACK, 11, STACK
        ARGFRAME IOVERLAY, 0, STATIC
        ARGFRAME DOVERLAY, 0, STATIC
        EXTERN osal_msg_allocate
        FUNCTION osal_msg_allocate,0202H
        ARGFRAME ISTACK, 0, STACK
        ARGFRAME PSTACK, 0, STACK
        ARGFRAME XSTACK, 11, STACK
        ARGFRAME IOVERLAY, 0, STATIC
        ARGFRAME DOVERLAY, 0, STATIC
        EXTERN osal_msg_send
        FUNCTION osal_msg_send,0202H
        ARGFRAME ISTACK, 0, STACK
        ARGFRAME PSTACK, 0, STACK
        ARGFRAME XSTACK, 11, STACK
        ARGFRAME IOVERLAY, 0, STATIC
        ARGFRAME DOVERLAY, 0, STATIC
        EXTERN ??HalUARTOpen?relay
        FUNCTION ??HalUARTOpen?relay,00H
        EXTERN ??HalUARTRead?relay
        FUNCTION ??HalUARTRead?relay,00H
        EXTERN ??Hal_UART_RxBufLen?relay
        FUNCTION ??Hal_UART_RxBufLen?relay,00H
        EXTERN ??osal_msg_allocate?relay
        FUNCTION ??osal_msg_allocate?relay,00H
        EXTERN ??osal_msg_send?relay
        FUNCTION ??osal_msg_send?relay,00H

// D:\Zigbee资料\协议栈\ZStack-CC2530-IOT\Components\mt\MT_UART.c
//    1 /***************************************************************************************************
//    2   Filename:       MT_UART.c
//    3   Revised:        $Date: 2009-03-12 16:25:22 -0700 (Thu, 12 Mar 2009) $
//    4   Revision:       $Revision: 19404 $
//    5 
//    6   Description:  This module handles anything dealing with the serial port.
//    7 
//    8   Copyright 2007 Texas Instruments Incorporated. All rights reserved.
//    9 
//   10   IMPORTANT: Your use of this Software is limited to those specific rights
//   11   granted under the terms of a software license agreement between the user
//   12   who downloaded the software, his/her employer (which must be your employer)
//   13   and Texas Instruments Incorporated (the "License").  You may not use this
//   14   Software unless you agree to abide by the terms of the License. The License
//   15   limits your use, and you acknowledge, that the Software may not be modified,
//   16   copied or distributed unless embedded on a Texas Instruments microcontroller
//   17   or used solely and exclusively in conjunction with a Texas Instruments radio
//   18   frequency transceiver, which is integrated into your product.  Other than for
//   19   the foregoing purpose, you may not use, reproduce, copy, prepare derivative
//   20   works of, modify, distribute, perform, display or sell this Software and/or
//   21   its documentation for any purpose.
//   22 
//   23   YOU FURTHER ACKNOWLEDGE AND AGREE THAT THE SOFTWARE AND DOCUMENTATION ARE
//   24   PROVIDED AS IS?WITHOUT WARRANTY OF ANY KIND, EITHER EXPRESS OR IMPLIED,
//   25   INCLUDING WITHOUT LIMITATION, ANY WARRANTY OF MERCHANTABILITY, TITLE,
//   26   NON-INFRINGEMENT AND FITNESS FOR A PARTICULAR PURPOSE. IN NO EVENT SHALL
//   27   TEXAS INSTRUMENTS OR ITS LICENSORS BE LIABLE OR OBLIGATED UNDER CONTRACT,
//   28   NEGLIGENCE, STRICT LIABILITY, CONTRIBUTION, BREACH OF WARRANTY, OR OTHER
//   29   LEGAL EQUITABLE THEORY ANY DIRECT OR INDIRECT DAMAGES OR EXPENSES
//   30   INCLUDING BUT NOT LIMITED TO ANY INCIDENTAL, SPECIAL, INDIRECT, PUNITIVE
//   31   OR CONSEQUENTIAL DAMAGES, LOST PROFITS OR LOST DATA, COST OF PROCUREMENT
//   32   OF SUBSTITUTE GOODS, TECHNOLOGY, SERVICES, OR ANY CLAIMS BY THIRD PARTIES
//   33   (INCLUDING BUT NOT LIMITED TO ANY DEFENSE THEREOF), OR OTHER SIMILAR COSTS.
//   34 
//   35   Should you have any questions regarding your right to use this Software,
//   36   contact Texas Instruments Incorporated at www.TI.com.
//   37 
//   38 ***************************************************************************************************/
//   39 
//   40 /***************************************************************************************************
//   41  * INCLUDES
//   42  ***************************************************************************************************/
//   43 #include "ZComDef.h"
//   44 #include "OSAL.h"
//   45 #include "hal_uart.h"
//   46 #include "MT.h"
//   47 #include "MT_UART.h"
//   48 #include "OSAL_Memory.h"
//   49 #include "SAPP_Device.h"
//   50 
//   51 /***************************************************************************************************
//   52  * MACROS
//   53  ***************************************************************************************************/
//   54 
//   55 /***************************************************************************************************
//   56  * CONSTANTS
//   57  ***************************************************************************************************/
//   58 /* State values for ZTool protocal */
//   59 #define SOP_STATE      0x00
//   60 #define LEN_STATE      0x01
//   61 #define DATA_STATE     0x02
//   62 #define FCS_STATE      0x03
//   63 
//   64 /***************************************************************************************************
//   65  *                                         GLOBAL VARIABLES
//   66  ***************************************************************************************************/
//   67 /* Used to indentify the application ID for osal task */

        RSEG XDATA_Z:XDATA:NOROOT(0)
        DATA8
//   68 uint8 App_TaskID;
App_TaskID:
        DS 1
        REQUIRE __INIT_XDATA_Z
//   69 
//   70 /* ZTool protocal parameters */

        RSEG XDATA_Z:XDATA:NOROOT(0)
        DATA8
//   71 uint8 state = SOP_STATE;
state:
        DS 1
        REQUIRE __INIT_XDATA_Z

        RSEG XDATA_Z:XDATA:NOROOT(0)
        DATA16
//   72 mtOSALSerialData_t  *pMsg;
pMsg:
        DS 2
        REQUIRE __INIT_XDATA_Z

        RSEG XDATA_Z:XDATA:NOROOT(0)
        DATA16
//   73 mtUserSerialMsg_t   *pMsgContent;
pMsgContent:
        DS 2
        REQUIRE __INIT_XDATA_Z

        RSEG XDATA_Z:XDATA:NOROOT(0)
        DATA8
//   74 uint8  tempDataLen;
tempDataLen:
        DS 1
        REQUIRE __INIT_XDATA_Z
//   75 extern uint8 SendData(uint8 srcEP, const void *buf, uint16 addr, uint8 dstEP, uint8 Len);
//   76 void RFIDprocess(uint8);  
//   77 #if !defined(ZDO_COORDINATOR) && defined ( SENSORBOARD4 )//RFID 扩展板
//   78 void SendFindCardError(void);
//   79 #endif
//   80 extern uint8 RfidStatus;
//   81 extern uint8 rxBytePtr;
//   82 extern uint8 rxByte[8];
//   83 #if defined (ZAPP_P1) || defined (ZAPP_P2)
//   84 uint16  MT_UartMaxZAppBufLen;
//   85 bool    MT_UartZAppRxStatus;
//   86 #endif
//   87 
//   88 
//   89 /***************************************************************************************************
//   90  *                                          LOCAL FUNCTIONS
//   91  ***************************************************************************************************/
//   92 
//   93 /***************************************************************************************************
//   94  * @fn      MT_UartInit
//   95  *
//   96  * @brief   Initialize MT with UART support
//   97  *
//   98  * @param   None
//   99  *
//  100  * @return  None
//  101 ***************************************************************************************************/

        RSEG BANKED_CODE:CODE:NOROOT(0)
//  102 void MT_UartInit ()
MT_UartInit:
        CFI Block cfiBlock0 Using cfiCommon0
        CFI Function MT_UartInit
        CODE
//  103 {
        FUNCALL MT_UartInit, HalUARTOpen
        LOCFRAME ISTACK, 2, STACK
        LOCFRAME PSTACK, 0, STACK
        LOCFRAME XSTACK, 29, STACK
        LOCFRAME IOVERLAY, 0, STATIC
        LOCFRAME DOVERLAY, 0, STATIC
        ARGFRAME ISTACK, 2, STACK
        ARGFRAME PSTACK, 0, STACK
        ARGFRAME XSTACK, 29, STACK
        ARGFRAME IOVERLAY, 0, STATIC
        ARGFRAME DOVERLAY, 0, STATIC
        PUSH    DPL
        CFI DPL0 Frame(CFA_SP, 4)
        CFI CFA_SP SP+-4
        PUSH    DPH
        CFI DPH0 Frame(CFA_SP, 5)
        CFI CFA_SP SP+-5
        ; Saved register size: 2
        ; Auto size: 29
        MOV     A,#-0x1d
        LCALL   ?ALLOC_XSTACK8
        CFI CFA_XSP16 add(XSP16, 29)
//  104   halUARTCfg_t uartConfig;
//  105 
//  106   /* Initialize APP ID */
//  107   App_TaskID = 0;
        MOV     DPTR,#App_TaskID
        CLR     A
        LCALL   ?Subroutine1 & 0xFFFF
//  108 
//  109   /* UART Configuration */
//  110   uartConfig.configured           = TRUE;
??CrossCallReturnLabel_0:
        INC     A
        MOVX    @DPTR,A
//  111   uartConfig.baudRate             = MT_UART_DEFAULT_BAUDRATE;
        LCALL   ?XSTACK_DISP0_8
        MOV     A,#0x4
        MOVX    @DPTR,A
//  112 #if defined ( SENSORBOARD4 )//RFID 扩展板  
//  113   uartConfig.baudRate             = HAL_UART_BR_9600;
//  114 #endif
//  115   uartConfig.flowControl          = MT_UART_DEFAULT_OVERFLOW;
        MOV     A,#0x2
        LCALL   ?XSTACK_DISP0_8
        CLR     A
        MOVX    @DPTR,A
//  116   uartConfig.flowControlThreshold = MT_UART_DEFAULT_THRESHOLD;
        MOV     A,#0x3
        LCALL   ?XSTACK_DISP0_8
        MOV     A,#0x40
        MOVX    @DPTR,A
        INC     DPTR
        CLR     A
        MOVX    @DPTR,A
//  117   uartConfig.rx.maxBufSize        = MT_UART_DEFAULT_MAX_RX_BUFF;
        MOV     A,#0xa
        LCALL   ?XSTACK_DISP0_8
        MOV     A,#-0x80
        MOVX    @DPTR,A
        INC     DPTR
        CLR     A
        MOVX    @DPTR,A
//  118   uartConfig.tx.maxBufSize        = MT_UART_DEFAULT_MAX_TX_BUFF;
        MOV     A,#0x12
        LCALL   ?XSTACK_DISP0_8
        MOV     A,#-0x80
        MOVX    @DPTR,A
        INC     DPTR
        CLR     A
        MOVX    @DPTR,A
//  119   uartConfig.idleTimeout          = MT_UART_DEFAULT_IDLE_TIMEOUT;
        MOV     A,#0x5
        LCALL   ?XSTACK_DISP0_8
        MOV     A,#0x6
        MOVX    @DPTR,A
//  120   uartConfig.intEnable            = TRUE;
        MOV     A,#0x16
        LCALL   ?XSTACK_DISP0_8
        MOV     A,#0x1
        MOVX    @DPTR,A
//  121 #if defined (ZTOOL_P1) || defined (ZTOOL_P2)
//  122   uartConfig.callBackFunc         = MT_UartProcessZToolData;
        MOV     A,#0x1b
        LCALL   ?XSTACK_DISP0_8
        MOV     A,#??MT_UartProcessZToolData?relay & 0xff
        MOVX    @DPTR,A
        INC     DPTR
        MOV     A,#(??MT_UartProcessZToolData?relay >> 8) & 0xff
        LCALL   ?Subroutine1 & 0xFFFF
//  123 #elif defined (ZAPP_P1) || defined (ZAPP_P2)
//  124   uartConfig.callBackFunc         = MT_UartProcessZAppData;
//  125 #else
//  126   uartConfig.callBackFunc         = NULL;
//  127 #endif
//  128 
//  129   /* Start UART */
//  130 #if defined (MT_UART_DEFAULT_PORT)
//  131   HalUARTOpen (MT_UART_DEFAULT_PORT, &uartConfig);
??CrossCallReturnLabel_1:
        MOV     R2,DPL
        MOV     R3,DPH
        MOV     R1,#0x0
        LCALL   ??HalUARTOpen?relay
//  132 #else
//  133   /* Silence IAR compiler warning */
//  134   (void)uartConfig;
//  135 #endif
//  136 
//  137   /* Initialize for ZApp */
//  138 #if defined (ZAPP_P1) || defined (ZAPP_P2)
//  139   /* Default max bytes that ZAPP can take */
//  140   MT_UartMaxZAppBufLen  = 1;
//  141   MT_UartZAppRxStatus   = MT_UART_ZAPP_RX_READY;
//  142 #endif
//  143 
//  144 }
        MOV     A,#0x1d
        LCALL   ?DEALLOC_XSTACK8
        CFI EndBlock cfiBlock0
        REQUIRE ?Subroutine0
        ; // Fall through to label ?Subroutine0

        RSEG BANKED_CODE:CODE:NOROOT(0)
?Subroutine0:
        CFI Block cfiBlock1 Using cfiCommon0
        CFI NoFunction
        CFI CFA_SP SP+-5
        CFI DPL0 Frame(CFA_SP, 4)
        CFI DPH0 Frame(CFA_SP, 5)
        POP     DPH
        CFI CFA_SP SP+-4
        CFI DPH0 SameValue
        POP     DPL
        CFI CFA_SP SP+-3
        CFI DPL0 SameValue
        LJMP    ?BRET
        CFI EndBlock cfiBlock1
//  145 
//  146 /***************************************************************************************************
//  147  * @fn      MT_SerialRegisterTaskID
//  148  *
//  149  * @brief   This function registers the taskID of the application so it knows
//  150  *          where to send the messages whent they come in.
//  151  *
//  152  * @param   void
//  153  *
//  154  * @return  void
//  155  ***************************************************************************************************/

        RSEG BANKED_CODE:CODE:NOROOT(0)
//  156 void MT_UartRegisterTaskID( byte taskID )
MT_UartRegisterTaskID:
        CFI Block cfiBlock2 Using cfiCommon0
        CFI Function MT_UartRegisterTaskID
        CODE
//  157 {
        PUSH    DPL
        CFI DPL0 Frame(CFA_SP, 4)
        CFI CFA_SP SP+-4
        PUSH    DPH
        CFI DPH0 Frame(CFA_SP, 5)
        CFI CFA_SP SP+-5
        ; Saved register size: 2
        ; Auto size: 0
//  158   App_TaskID = taskID;
        MOV     A,R1
        MOV     DPTR,#App_TaskID
        MOVX    @DPTR,A
//  159 }
        SJMP    ?Subroutine0
        CFI EndBlock cfiBlock2
//  160 
//  161 /***************************************************************************************************
//  162  * @fn      SPIMgr_CalcFCS
//  163  *
//  164  * @brief   Calculate the FCS of a message buffer by XOR'ing each byte.
//  165  *          Remember to NOT include SOP and FCS fields, so start at the CMD field.
//  166  *
//  167  * @param   byte *msg_ptr - message pointer
//  168  * @param   byte len - length (in bytes) of message
//  169  *
//  170  * @return  result byte
//  171  ***************************************************************************************************/

        RSEG BANKED_CODE:CODE:NOROOT(0)
//  172 byte MT_UartCalcFCS(uint8 lastResult, uint8 *msg_ptr, uint8 len )
MT_UartCalcFCS:
        CFI Block cfiBlock3 Using cfiCommon0
        CFI Function MT_UartCalcFCS
        CODE
//  173 {
        MOV     A,#-0x9
        LCALL   ?BANKED_ENTER_XDATA
        CFI DPH0 load(1, XDATA, add(CFA_XSP16, literal(-1)))
        CFI DPL0 load(1, XDATA, add(CFA_XSP16, literal(-2)))
        CFI ?BRET_EXT load(1, XDATA, add(CFA_XSP16, literal(-3)))
        CFI ?RET_HIGH load(1, XDATA, add(CFA_XSP16, literal(-4)))
        CFI ?RET_LOW load(1, XDATA, add(CFA_XSP16, literal(-5)))
        CFI R7 load(1, XDATA, add(CFA_XSP16, literal(-6)))
        CFI V0 load(1, XDATA, add(CFA_XSP16, literal(-7)))
        CFI VB load(1, XDATA, add(CFA_XSP16, literal(-8)))
        CFI R6 load(1, XDATA, add(CFA_XSP16, literal(-9)))
        CFI CFA_SP SP+0
        CFI CFA_XSP16 add(XSP16, 9)
        ; Saved register size: 9
        ; Auto size: 0
//  174   uint8 x;
//  175   uint8 xorResult = lastResult;
//  176 
//  177   for ( x = 0; x < len; x++, msg_ptr++ )
        MOV     R0,#0x0
        SJMP    ??MT_UartCalcFCS_0
//  178     xorResult = xorResult ^ *msg_ptr;
??MT_UartCalcFCS_1:
        MOV     DPL,R2
        MOV     DPH,R3
        MOVX    A,@DPTR
        XCH     A,R1
        XRL     A,R1
        MOV     R1,A
        INC     R0
        INC     DPTR
        MOV     R2,DPL
        MOV     R3,DPH
??MT_UartCalcFCS_0:
        MOV     A,R0
        CLR     C
        SUBB    A,R4
        JC      ??MT_UartCalcFCS_1
//  179 
//  180   return ( xorResult );
        MOV     R7,#0x1
        LJMP    ?BANKED_LEAVE_XDATA
        CFI EndBlock cfiBlock3
//  181 }
//  182 
//  183 #if defined (ZTOOL_P1) || defined (ZTOOL_P2)
//  184 /***************************************************************************************************
//  185  * @fn      MT_UartProcessZToolData
//  186  *
//  187  * @brief   | SOP | CMD |Data Length| cmdEP | Address | EndPoint |  Data  | FSC |
//  188  *          |  1  |  2  |    1      |   2   |    2    |     1    | 1 ~119 |  1  |
//  189  *
//  190  *          Parses the data and determine either is SPI or just simply serial data
//  191  *          then send the data to correct place (MT or APP)
//  192  *
//  193  * @param   port     - UART port
//  194  *          event    - Event that causes the callback
//  195  *
//  196  *
//  197  * @return  None
//  198  ***************************************************************************************************/

        RSEG BANKED_CODE:CODE:NOROOT(0)
//  199 void MT_UartProcessZToolData ( uint8 port, uint8 event )
MT_UartProcessZToolData:
        CFI Block cfiBlock4 Using cfiCommon0
        CFI Function MT_UartProcessZToolData
        CODE
//  200 {
        FUNCALL MT_UartProcessZToolData, Hal_UART_RxBufLen
        LOCFRAME ISTACK, 0, STACK
        LOCFRAME PSTACK, 0, STACK
        LOCFRAME XSTACK, 11, STACK
        LOCFRAME IOVERLAY, 0, STATIC
        LOCFRAME DOVERLAY, 0, STATIC
        ARGFRAME ISTACK, 0, STACK
        ARGFRAME PSTACK, 0, STACK
        ARGFRAME XSTACK, 11, STACK
        ARGFRAME IOVERLAY, 0, STATIC
        ARGFRAME DOVERLAY, 0, STATIC
        FUNCALL MT_UartProcessZToolData, HalUARTRead
        LOCFRAME ISTACK, 0, STACK
        LOCFRAME PSTACK, 0, STACK
        LOCFRAME XSTACK, 11, STACK
        LOCFRAME IOVERLAY, 0, STATIC
        LOCFRAME DOVERLAY, 0, STATIC
        ARGFRAME ISTACK, 0, STACK
        ARGFRAME PSTACK, 0, STACK
        ARGFRAME XSTACK, 11, STACK
        ARGFRAME IOVERLAY, 0, STATIC
        ARGFRAME DOVERLAY, 0, STATIC
        FUNCALL MT_UartProcessZToolData, osal_msg_allocate
        LOCFRAME ISTACK, 0, STACK
        LOCFRAME PSTACK, 0, STACK
        LOCFRAME XSTACK, 11, STACK
        LOCFRAME IOVERLAY, 0, STATIC
        LOCFRAME DOVERLAY, 0, STATIC
        ARGFRAME ISTACK, 0, STACK
        ARGFRAME PSTACK, 0, STACK
        ARGFRAME XSTACK, 11, STACK
        ARGFRAME IOVERLAY, 0, STATIC
        ARGFRAME DOVERLAY, 0, STATIC
        FUNCALL MT_UartProcessZToolData, osal_msg_send
        LOCFRAME ISTACK, 0, STACK
        LOCFRAME PSTACK, 0, STACK
        LOCFRAME XSTACK, 11, STACK
        LOCFRAME IOVERLAY, 0, STATIC
        LOCFRAME DOVERLAY, 0, STATIC
        ARGFRAME ISTACK, 0, STACK
        ARGFRAME PSTACK, 0, STACK
        ARGFRAME XSTACK, 11, STACK
        ARGFRAME IOVERLAY, 0, STATIC
        ARGFRAME DOVERLAY, 0, STATIC
        MOV     A,#-0xa
        LCALL   ?BANKED_ENTER_XDATA
        CFI DPH0 load(1, XDATA, add(CFA_XSP16, literal(-1)))
        CFI DPL0 load(1, XDATA, add(CFA_XSP16, literal(-2)))
        CFI ?BRET_EXT load(1, XDATA, add(CFA_XSP16, literal(-3)))
        CFI ?RET_HIGH load(1, XDATA, add(CFA_XSP16, literal(-4)))
        CFI ?RET_LOW load(1, XDATA, add(CFA_XSP16, literal(-5)))
        CFI R7 load(1, XDATA, add(CFA_XSP16, literal(-6)))
        CFI V1 load(1, XDATA, add(CFA_XSP16, literal(-7)))
        CFI V0 load(1, XDATA, add(CFA_XSP16, literal(-8)))
        CFI VB load(1, XDATA, add(CFA_XSP16, literal(-9)))
        CFI R6 load(1, XDATA, add(CFA_XSP16, literal(-10)))
        CFI CFA_SP SP+0
        CFI CFA_XSP16 add(XSP16, 10)
        ; Saved register size: 10
        ; Auto size: 1
        MOV     A,#-0x1
        LCALL   ?ALLOC_XSTACK8
        CFI CFA_XSP16 add(XSP16, 11)
        MOV     A,R1
        MOV     R6,A
//  201     uint8  ch;
//  202     uint8  bytesInRxBuffer;  
//  203     
//  204     (void)event;  // Intentionally unreferenced parameter
//  205     
//  206     while (Hal_UART_RxBufLen(port))
        ; Setup parameters for call to function Hal_UART_RxBufLen
        LCALL   ??Hal_UART_RxBufLen?relay
        MOV     ?V0 + 1,R3
        MOV     A,R2
        ORL     A,?V0 + 1
        JZ      ??MT_UartProcessZToolData_0
//  207     {
//  208         HalUARTRead (port, &ch, 1);        
        ; Setup parameters for call to function HalUARTRead
        MOV     R4,#0x1
        MOV     R5,#0x0
        MOV     DPL,?XSP + 0
        MOV     DPH,?XSP + 1
        MOV     R2,DPL
        MOV     R3,DPH
        MOV     A,R6
        MOV     R1,A
        LCALL   ??HalUARTRead?relay
//  209 #if (defined(PEER_COORD)||defined(PEER_ROUTER))//点对点通信或广播通信处理                
//  210         //接收串口的数据，通过消息发送出去     
//  211         pMsg = (mtOSALSerialData_t *)osal_msg_allocate(sizeof(mtOSALSerialData_t) +
//  212                                                            1);//SOP+LEN+FSC        
        ; Setup parameters for call to function osal_msg_allocate
        MOV     R2,#0x5
        MOV     R3,#0x0
        LCALL   ??osal_msg_allocate?relay
        MOV     DPTR,#pMsg
        MOV     A,R2
        MOVX    @DPTR,A
        INC     DPTR
        MOV     A,R3
        MOVX    @DPTR,A
//  213         tempDataLen = 0;       
        MOV     DPTR,#tempDataLen
        CLR     A
        MOVX    @DPTR,A
//  214         pMsg->hdr.event = CMD_SERIAL_MSG;
        MOV     DPTR,#pMsg
        LCALL   ?Subroutine3 & 0xFFFF
??CrossCallReturnLabel_5:
        MOV     A,#0x1
        MOVX    @DPTR,A
//  215         pMsg->msg = (uint8*)(pMsg + 1);
        MOV     DPTR,#pMsg
        MOVX    A,@DPTR
        ADD     A,#0x4
        MOV     R0,A
        INC     DPTR
        MOVX    A,@DPTR
        ADDC    A,#0x0
        MOV     R1,A
        MOV     DPTR,#pMsg
        MOVX    A,@DPTR
        MOV     R2,A
        INC     DPTR
        MOVX    A,@DPTR
        MOV     DPH,A
        MOV     DPL,R2
        INC     DPTR
        INC     DPTR
        MOV     A,R0
        MOVX    @DPTR,A
        INC     DPTR
        MOV     A,R1
        LCALL   ?Subroutine1 & 0xFFFF
//  216         pMsg->msg[0] = ch;                                  
??CrossCallReturnLabel_2:
        MOVX    A,@DPTR
        PUSH    A
        CFI CFA_SP SP+-1
        MOV     DPTR,#pMsg
        LCALL   ?Subroutine2 & 0xFFFF
??CrossCallReturnLabel_3:
        LCALL   ?Subroutine3 & 0xFFFF
??CrossCallReturnLabel_6:
        POP     A
        CFI CFA_SP SP+0
        MOVX    @DPTR,A
//  217         pMsgContent->len = 1;         
        MOV     DPTR,#pMsgContent
        LCALL   ?Subroutine2 & 0xFFFF
??CrossCallReturnLabel_4:
        MOV     A,#0x1
        MOVX    @DPTR,A
//  218         osal_msg_send(App_TaskID, (byte *)pMsg);            
        ; Setup parameters for call to function osal_msg_send
        MOV     DPTR,#pMsg
        MOVX    A,@DPTR
        MOV     R2,A
        INC     DPTR
        MOVX    A,@DPTR
        MOV     R3,A
        MOV     DPTR,#App_TaskID
        MOVX    A,@DPTR
        MOV     R1,A
        LCALL   ??osal_msg_send?relay
//  219         return;
??MT_UartProcessZToolData_0:
        MOV     A,#0x1
        LCALL   ?DEALLOC_XSTACK8
        CFI CFA_XSP16 add(XSP16, 10)
        MOV     R7,#0x2
        LJMP    ?BANKED_LEAVE_XDATA
        CFI EndBlock cfiBlock4
//  220 #endif        
//  221 #if !defined(ZDO_COORDINATOR) && defined ( SENSORBOARD4 )//RFID 扩展板         
//  222         RFIDprocess(ch);          
//  223         return;
//  224 #endif        
//  225         switch(state)
//  226         {
//  227         case SOP_STATE:
//  228             if(ch == MT_UART_SOF)
//  229                 state = LEN_STATE;
//  230             break;
//  231         case LEN_STATE:
//  232             if(ch < 7)
//  233             {
//  234                 // invalid length field
//  235                 state = SOP_STATE;
//  236                 break;
//  237             }
//  238             pMsg = (mtOSALSerialData_t *)osal_msg_allocate(sizeof(mtOSALSerialData_t) +
//  239                                                            ch + 3);//SOP+LEN+FSC
//  240             tempDataLen = 0;
//  241             /* Allocate memory for the data */
//  242 //            pMsg = (mtOSALSerialData_t *)osal_msg_allocate(sizeof(mtOSALSerialData_t) + sizeof(mtUserSerialMsg_t) +
//  243 //                                                           ch - 5);
//  244             if (pMsg)
//  245             {
//  246                 /* Fill up what we can */
//  247                 pMsg->hdr.event = CMD_SERIAL_MSG;
//  248                 pMsg->msg = (uint8*)(pMsg + 1);
//  249                 pMsgContent = (mtUserSerialMsg_t *)pMsg->msg;
//  250                 pMsgContent->sop = MT_UART_SOF;
//  251                 pMsgContent->len = ch;
//  252                 state = DATA_STATE;
//  253             }
//  254             else
//  255             {
//  256                 pMsgContent = NULL;
//  257                 state = SOP_STATE;
//  258                 return;
//  259             }
//  260             break;
//  261         case DATA_STATE:
//  262             pMsgContent->dataBody[tempDataLen++] = ch;
//  263             /* Check number of bytes left in the Rx buffer */
//  264             bytesInRxBuffer = Hal_UART_RxBufLen(port);
//  265 
//  266             /* If the remain of the data is there, read them all, otherwise, just read enough */
//  267             if (bytesInRxBuffer <= pMsgContent->len - tempDataLen)
//  268             {
//  269                 HalUARTRead (port, &pMsgContent->dataBody[tempDataLen], bytesInRxBuffer);
//  270                 tempDataLen += bytesInRxBuffer;
//  271             }
//  272             else
//  273             {
//  274                 HalUARTRead (port, &pMsgContent->dataBody[tempDataLen], pMsgContent->len - tempDataLen);
//  275                 tempDataLen += (pMsgContent->len - tempDataLen);
//  276             }
//  277             /* If number of bytes read is equal to data length, time to move on to FCS */
//  278             if ( tempDataLen == pMsgContent->len )
//  279                 state = FCS_STATE;
//  280             break;
//  281         case FCS_STATE:
//  282             /* Make sure it's correct */
//  283             {
//  284                 pMsgContent->fsc = ch;
//  285                 uint8 fcs = MT_UartCalcFCS(0, &pMsgContent->len, 1);
//  286                 fcs = MT_UartCalcFCS(fcs, pMsgContent->dataBody, pMsgContent->len);
//  287                 if(fcs == ch)
//  288                     osal_msg_send(App_TaskID, (byte *)pMsg);
//  289                 else
//  290                     osal_msg_deallocate((uint8 *)pMsg);
//  291             }
//  292             /* Reset the state, send or discard the buffers at this point */
//  293             state = SOP_STATE;
//  294             break;
//  295         default:
//  296             break;
//  297         }
//  298     }
//  299 }

        RSEG BANKED_CODE:CODE:NOROOT(0)
?Subroutine3:
        CFI Block cfiCond5 Using cfiCommon0
        CFI NoFunction
        CFI Conditional ??CrossCallReturnLabel_5
        CFI R6 load(1, XDATA, add(CFA_XSP16, literal(-10)))
        CFI VB load(1, XDATA, add(CFA_XSP16, literal(-9)))
        CFI V0 load(1, XDATA, add(CFA_XSP16, literal(-8)))
        CFI V1 load(1, XDATA, add(CFA_XSP16, literal(-7)))
        CFI R7 load(1, XDATA, add(CFA_XSP16, literal(-6)))
        CFI ?RET_LOW load(1, XDATA, add(CFA_XSP16, literal(-5)))
        CFI ?RET_HIGH load(1, XDATA, add(CFA_XSP16, literal(-4)))
        CFI ?BRET_EXT load(1, XDATA, add(CFA_XSP16, literal(-3)))
        CFI DPL0 load(1, XDATA, add(CFA_XSP16, literal(-2)))
        CFI DPH0 load(1, XDATA, add(CFA_XSP16, literal(-1)))
        CFI CFA_SP SP+0
        CFI CFA_XSP16 add(XSP16, 11)
        CFI Block cfiCond6 Using cfiCommon0
        CFI (cfiCond6) NoFunction
        CFI (cfiCond6) Conditional ??CrossCallReturnLabel_6
        CFI (cfiCond6) R6 load(1, XDATA, add(CFA_XSP16, literal(-10)))
        CFI (cfiCond6) VB load(1, XDATA, add(CFA_XSP16, literal(-9)))
        CFI (cfiCond6) V0 load(1, XDATA, add(CFA_XSP16, literal(-8)))
        CFI (cfiCond6) V1 load(1, XDATA, add(CFA_XSP16, literal(-7)))
        CFI (cfiCond6) R7 load(1, XDATA, add(CFA_XSP16, literal(-6)))
        CFI (cfiCond6) ?RET_LOW load(1, XDATA, add(CFA_XSP16, literal(-5)))
        CFI (cfiCond6) ?RET_HIGH load(1, XDATA, add(CFA_XSP16, literal(-4)))
        CFI (cfiCond6) ?BRET_EXT load(1, XDATA, add(CFA_XSP16, literal(-3)))
        CFI (cfiCond6) DPL0 load(1, XDATA, add(CFA_XSP16, literal(-2)))
        CFI (cfiCond6) DPH0 load(1, XDATA, add(CFA_XSP16, literal(-1)))
        CFI (cfiCond6) CFA_SP SP+-1
        CFI (cfiCond6) CFA_XSP16 add(XSP16, 11)
        CFI Block cfiPicker7 Using cfiCommon1
        CFI (cfiPicker7) NoFunction
        CFI (cfiPicker7) Picker
        LCALL   ?Subroutine4 & 0xFFFF
??CrossCallReturnLabel_8:
        RET
        CFI EndBlock cfiCond5
        CFI EndBlock cfiCond6
        CFI EndBlock cfiPicker7

        RSEG BANKED_CODE:CODE:NOROOT(0)
?Subroutine4:
        CFI Block cfiCond8 Using cfiCommon0
        CFI NoFunction
        CFI Conditional ??CrossCallReturnLabel_8, ??CrossCallReturnLabel_5
        CFI R6 load(1, XDATA, add(CFA_XSP16, literal(-10)))
        CFI VB load(1, XDATA, add(CFA_XSP16, literal(-9)))
        CFI V0 load(1, XDATA, add(CFA_XSP16, literal(-8)))
        CFI V1 load(1, XDATA, add(CFA_XSP16, literal(-7)))
        CFI R7 load(1, XDATA, add(CFA_XSP16, literal(-6)))
        CFI ?RET_LOW load(1, XDATA, add(CFA_XSP16, literal(-5)))
        CFI ?RET_HIGH load(1, XDATA, add(CFA_XSP16, literal(-4)))
        CFI ?BRET_EXT load(1, XDATA, add(CFA_XSP16, literal(-3)))
        CFI DPL0 load(1, XDATA, add(CFA_XSP16, literal(-2)))
        CFI DPH0 load(1, XDATA, add(CFA_XSP16, literal(-1)))
        CFI CFA_SP SP+0
        CFI CFA_XSP16 add(XSP16, 11)
        CFI Block cfiCond9 Using cfiCommon0
        CFI (cfiCond9) NoFunction
        CFI (cfiCond9) Conditional ??CrossCallReturnLabel_8, ??CrossCallReturnLabel_6
        CFI (cfiCond9) R6 load(1, XDATA, add(CFA_XSP16, literal(-10)))
        CFI (cfiCond9) VB load(1, XDATA, add(CFA_XSP16, literal(-9)))
        CFI (cfiCond9) V0 load(1, XDATA, add(CFA_XSP16, literal(-8)))
        CFI (cfiCond9) V1 load(1, XDATA, add(CFA_XSP16, literal(-7)))
        CFI (cfiCond9) R7 load(1, XDATA, add(CFA_XSP16, literal(-6)))
        CFI (cfiCond9) ?RET_LOW load(1, XDATA, add(CFA_XSP16, literal(-5)))
        CFI (cfiCond9) ?RET_HIGH load(1, XDATA, add(CFA_XSP16, literal(-4)))
        CFI (cfiCond9) ?BRET_EXT load(1, XDATA, add(CFA_XSP16, literal(-3)))
        CFI (cfiCond9) DPL0 load(1, XDATA, add(CFA_XSP16, literal(-2)))
        CFI (cfiCond9) DPH0 load(1, XDATA, add(CFA_XSP16, literal(-1)))
        CFI (cfiCond9) CFA_SP SP+-1
        CFI (cfiCond9) CFA_XSP16 add(XSP16, 11)
        CFI Block cfiCond10 Using cfiCommon0
        CFI (cfiCond10) NoFunction
        CFI (cfiCond10) Conditional ??CrossCallReturnLabel_7, ??CrossCallReturnLabel_3
        CFI (cfiCond10) R6 load(1, XDATA, add(CFA_XSP16, literal(-10)))
        CFI (cfiCond10) VB load(1, XDATA, add(CFA_XSP16, literal(-9)))
        CFI (cfiCond10) V0 load(1, XDATA, add(CFA_XSP16, literal(-8)))
        CFI (cfiCond10) V1 load(1, XDATA, add(CFA_XSP16, literal(-7)))
        CFI (cfiCond10) R7 load(1, XDATA, add(CFA_XSP16, literal(-6)))
        CFI (cfiCond10) ?RET_LOW load(1, XDATA, add(CFA_XSP16, literal(-5)))
        CFI (cfiCond10) ?RET_HIGH load(1, XDATA, add(CFA_XSP16, literal(-4)))
        CFI (cfiCond10) ?BRET_EXT load(1, XDATA, add(CFA_XSP16, literal(-3)))
        CFI (cfiCond10) DPL0 load(1, XDATA, add(CFA_XSP16, literal(-2)))
        CFI (cfiCond10) DPH0 load(1, XDATA, add(CFA_XSP16, literal(-1)))
        CFI (cfiCond10) CFA_SP SP+-1
        CFI (cfiCond10) CFA_XSP16 add(XSP16, 11)
        CFI Block cfiCond11 Using cfiCommon0
        CFI (cfiCond11) NoFunction
        CFI (cfiCond11) Conditional ??CrossCallReturnLabel_7, ??CrossCallReturnLabel_4
        CFI (cfiCond11) R6 load(1, XDATA, add(CFA_XSP16, literal(-10)))
        CFI (cfiCond11) VB load(1, XDATA, add(CFA_XSP16, literal(-9)))
        CFI (cfiCond11) V0 load(1, XDATA, add(CFA_XSP16, literal(-8)))
        CFI (cfiCond11) V1 load(1, XDATA, add(CFA_XSP16, literal(-7)))
        CFI (cfiCond11) R7 load(1, XDATA, add(CFA_XSP16, literal(-6)))
        CFI (cfiCond11) ?RET_LOW load(1, XDATA, add(CFA_XSP16, literal(-5)))
        CFI (cfiCond11) ?RET_HIGH load(1, XDATA, add(CFA_XSP16, literal(-4)))
        CFI (cfiCond11) ?BRET_EXT load(1, XDATA, add(CFA_XSP16, literal(-3)))
        CFI (cfiCond11) DPL0 load(1, XDATA, add(CFA_XSP16, literal(-2)))
        CFI (cfiCond11) DPH0 load(1, XDATA, add(CFA_XSP16, literal(-1)))
        CFI (cfiCond11) CFA_SP SP+0
        CFI (cfiCond11) CFA_XSP16 add(XSP16, 11)
        CFI Block cfiPicker12 Using cfiCommon1
        CFI (cfiPicker12) NoFunction
        CFI (cfiPicker12) Picker
        MOVX    A,@DPTR
        MOV     R0,A
        INC     DPTR
        MOVX    A,@DPTR
        MOV     DPH,A
        MOV     DPL,R0
        RET
        CFI EndBlock cfiCond8
        CFI EndBlock cfiCond9
        CFI EndBlock cfiCond10
        CFI EndBlock cfiCond11
        CFI EndBlock cfiPicker12

        RSEG BANKED_CODE:CODE:NOROOT(0)
?Subroutine2:
        CFI Block cfiCond13 Using cfiCommon0
        CFI NoFunction
        CFI Conditional ??CrossCallReturnLabel_3
        CFI R6 load(1, XDATA, add(CFA_XSP16, literal(-10)))
        CFI VB load(1, XDATA, add(CFA_XSP16, literal(-9)))
        CFI V0 load(1, XDATA, add(CFA_XSP16, literal(-8)))
        CFI V1 load(1, XDATA, add(CFA_XSP16, literal(-7)))
        CFI R7 load(1, XDATA, add(CFA_XSP16, literal(-6)))
        CFI ?RET_LOW load(1, XDATA, add(CFA_XSP16, literal(-5)))
        CFI ?RET_HIGH load(1, XDATA, add(CFA_XSP16, literal(-4)))
        CFI ?BRET_EXT load(1, XDATA, add(CFA_XSP16, literal(-3)))
        CFI DPL0 load(1, XDATA, add(CFA_XSP16, literal(-2)))
        CFI DPH0 load(1, XDATA, add(CFA_XSP16, literal(-1)))
        CFI CFA_SP SP+-1
        CFI CFA_XSP16 add(XSP16, 11)
        CFI Block cfiCond14 Using cfiCommon0
        CFI (cfiCond14) NoFunction
        CFI (cfiCond14) Conditional ??CrossCallReturnLabel_4
        CFI (cfiCond14) R6 load(1, XDATA, add(CFA_XSP16, literal(-10)))
        CFI (cfiCond14) VB load(1, XDATA, add(CFA_XSP16, literal(-9)))
        CFI (cfiCond14) V0 load(1, XDATA, add(CFA_XSP16, literal(-8)))
        CFI (cfiCond14) V1 load(1, XDATA, add(CFA_XSP16, literal(-7)))
        CFI (cfiCond14) R7 load(1, XDATA, add(CFA_XSP16, literal(-6)))
        CFI (cfiCond14) ?RET_LOW load(1, XDATA, add(CFA_XSP16, literal(-5)))
        CFI (cfiCond14) ?RET_HIGH load(1, XDATA, add(CFA_XSP16, literal(-4)))
        CFI (cfiCond14) ?BRET_EXT load(1, XDATA, add(CFA_XSP16, literal(-3)))
        CFI (cfiCond14) DPL0 load(1, XDATA, add(CFA_XSP16, literal(-2)))
        CFI (cfiCond14) DPH0 load(1, XDATA, add(CFA_XSP16, literal(-1)))
        CFI (cfiCond14) CFA_SP SP+0
        CFI (cfiCond14) CFA_XSP16 add(XSP16, 11)
        CFI Block cfiPicker15 Using cfiCommon1
        CFI (cfiPicker15) NoFunction
        CFI (cfiPicker15) Picker
        LCALL   ?Subroutine4 & 0xFFFF
??CrossCallReturnLabel_7:
        INC     DPTR
        INC     DPTR
        RET
        CFI EndBlock cfiCond13
        CFI EndBlock cfiCond14
        CFI EndBlock cfiPicker15

        RSEG BANKED_CODE:CODE:NOROOT(0)
?Subroutine1:
        CFI Block cfiCond16 Using cfiCommon0
        CFI NoFunction
        CFI Conditional ??CrossCallReturnLabel_0
        CFI DPL0 Frame(CFA_SP, 4)
        CFI DPH0 Frame(CFA_SP, 5)
        CFI CFA_SP SP+-5
        CFI CFA_XSP16 add(XSP16, 29)
        CFI Block cfiCond17 Using cfiCommon0
        CFI (cfiCond17) NoFunction
        CFI (cfiCond17) Conditional ??CrossCallReturnLabel_1
        CFI (cfiCond17) DPL0 Frame(CFA_SP, 4)
        CFI (cfiCond17) DPH0 Frame(CFA_SP, 5)
        CFI (cfiCond17) CFA_SP SP+-5
        CFI (cfiCond17) CFA_XSP16 add(XSP16, 29)
        CFI Block cfiCond18 Using cfiCommon0
        CFI (cfiCond18) NoFunction
        CFI (cfiCond18) Conditional ??CrossCallReturnLabel_2
        CFI (cfiCond18) R6 load(1, XDATA, add(CFA_XSP16, literal(-10)))
        CFI (cfiCond18) VB load(1, XDATA, add(CFA_XSP16, literal(-9)))
        CFI (cfiCond18) V0 load(1, XDATA, add(CFA_XSP16, literal(-8)))
        CFI (cfiCond18) V1 load(1, XDATA, add(CFA_XSP16, literal(-7)))
        CFI (cfiCond18) R7 load(1, XDATA, add(CFA_XSP16, literal(-6)))
        CFI (cfiCond18) ?RET_LOW load(1, XDATA, add(CFA_XSP16, literal(-5)))
        CFI (cfiCond18) ?RET_HIGH load(1, XDATA, add(CFA_XSP16, literal(-4)))
        CFI (cfiCond18) ?BRET_EXT load(1, XDATA, add(CFA_XSP16, literal(-3)))
        CFI (cfiCond18) DPL0 load(1, XDATA, add(CFA_XSP16, literal(-2)))
        CFI (cfiCond18) DPH0 load(1, XDATA, add(CFA_XSP16, literal(-1)))
        CFI (cfiCond18) CFA_SP SP+0
        CFI (cfiCond18) CFA_XSP16 add(XSP16, 11)
        CFI Block cfiPicker19 Using cfiCommon1
        CFI (cfiPicker19) NoFunction
        CFI (cfiPicker19) Picker
        MOVX    @DPTR,A
        ; Setup parameters for call to function HalUARTOpen
        MOV     DPL,?XSP + 0
        MOV     DPH,?XSP + 1
        RET
        CFI EndBlock cfiCond16
        CFI EndBlock cfiCond17
        CFI EndBlock cfiCond18
        CFI EndBlock cfiPicker19

        RSEG BANK_RELAYS:CODE:REORDER:NOROOT(0)
??MT_UartInit?relay:
        LCALL   ?BDISPATCH
        DATA
        DC24    MT_UartInit

        RSEG BANK_RELAYS:CODE:REORDER:NOROOT(0)
??MT_UartRegisterTaskID?relay:
        LCALL   ?BDISPATCH
        DATA
        DC24    MT_UartRegisterTaskID

        RSEG BANK_RELAYS:CODE:REORDER:NOROOT(0)
??MT_UartCalcFCS?relay:
        LCALL   ?BDISPATCH
        DATA
        DC24    MT_UartCalcFCS

        RSEG BANK_RELAYS:CODE:REORDER:NOROOT(0)
??MT_UartProcessZToolData?relay:
        LCALL   ?BDISPATCH
        DATA
        DC24    MT_UartProcessZToolData

        END
//  300 #if 0
//  301 void MT_UartProcessAppData ( uint8 port, uint8 event )
//  302 {
//  303    uint8  *bytesInRxBuffer;
//  304   static uint8 *msg;
//  305 
//  306   (void)event;  // Intentionally unreferenced parameter
//  307   msg = (uint8 *)osal_msg_allocate(5);
//  308   if(msg){
//  309     bytesInRxBuffer = msg;
//  310     *bytesInRxBuffer ++ = CMD_SERIAL_MSG;
//  311   }
//  312   while (Hal_UART_RxBufLen(port))
//  313   {
//  314     HalUARTRead (port, bytesInRxBuffer , 5);
//  315     osal_msg_send( App_TaskID, (byte *)msg );
//  316   }
//  317 }
//  318 #endif
//  319 
//  320 #endif
//  321 #if defined (ZAPP_P1) || defined (ZAPP_P2)
//  322 /***************************************************************************************************
//  323  * @fn      MT_UartProcessZAppData
//  324  *
//  325  * @brief   | SOP | CMD  |   Data Length   | FSC  |
//  326  *          |  1  |  2   |       1         |  1   |
//  327  *
//  328  *          Parses the data and determine either is SPI or just simply serial data
//  329  *          then send the data to correct place (MT or APP)
//  330  *
//  331  * @param   port    - UART port
//  332  *          event   - Event that causes the callback
//  333  *
//  334  *
//  335  * @return  None
//  336  ***************************************************************************************************/
//  337 void MT_UartProcessZAppData ( uint8 port, uint8 event )
//  338 {
//  339 
//  340   osal_event_hdr_t  *msg_ptr;
//  341   uint16 length = 0;
//  342   uint16 rxBufLen  = Hal_UART_RxBufLen(MT_UART_DEFAULT_PORT);
//  343 
//  344   /*
//  345      If maxZAppBufferLength is 0 or larger than current length
//  346      the entire length of the current buffer is returned.
//  347   */
//  348   if ((MT_UartMaxZAppBufLen != 0) && (MT_UartMaxZAppBufLen <= rxBufLen))
//  349   {
//  350     length = MT_UartMaxZAppBufLen;
//  351   }
//  352   else
//  353   {
//  354     length = rxBufLen;
//  355   }
//  356 
//  357   /* Verify events */
//  358   if (event == HAL_UART_TX_FULL)
//  359   {
//  360     // Do something when TX if full
//  361     return;
//  362   }
//  363 
//  364   if (event & ( HAL_UART_RX_FULL | HAL_UART_RX_ABOUT_FULL | HAL_UART_RX_TIMEOUT))
//  365   {
//  366     if ( App_TaskID )
//  367     {
//  368       /*
//  369          If Application is ready to receive and there is something
//  370          in the Rx buffer then send it up
//  371       */
//  372       if ((MT_UartZAppRxStatus == MT_UART_ZAPP_RX_READY ) && (length != 0))
//  373       {
//  374         /* Disable App flow control until it processes the current data */
//  375          MT_UartAppFlowControl (MT_UART_ZAPP_RX_NOT_READY);
//  376 
//  377         /* 2 more bytes are added, 1 for CMD type, other for length */
//  378         msg_ptr = (osal_event_hdr_t *)osal_msg_allocate( length + sizeof(osal_event_hdr_t) );
//  379         if ( msg_ptr )
//  380         {
//  381           msg_ptr->event = SPI_INCOMING_ZAPP_DATA;
//  382           msg_ptr->status = length;
//  383 
//  384           /* Read the data of Rx buffer */
//  385           HalUARTRead( MT_UART_DEFAULT_PORT, (uint8 *)(msg_ptr + 1), length );
//  386 
//  387           /* Send the raw data to application...or where ever */
//  388           osal_msg_send( App_TaskID, (uint8 *)msg_ptr );
//  389         }
//  390       }
//  391     }
//  392   }
//  393 }
//  394 
//  395 /***************************************************************************************************
//  396  * @fn      SPIMgr_ZAppBufferLengthRegister
//  397  *
//  398  * @brief
//  399  *
//  400  * @param   maxLen - Max Length that the application wants at a time
//  401  *
//  402  * @return  None
//  403  *
//  404  ***************************************************************************************************/
//  405 void MT_UartZAppBufferLengthRegister ( uint16 maxLen )
//  406 {
//  407   /* If the maxLen is larger than the RX buff, something is not right */
//  408   if (maxLen <= MT_UART_DEFAULT_MAX_RX_BUFF)
//  409     MT_UartMaxZAppBufLen = maxLen;
//  410   else
//  411     MT_UartMaxZAppBufLen = 1; /* default is 1 byte */
//  412 }
//  413 
//  414 /***************************************************************************************************
//  415  * @fn      SPIMgr_AppFlowControl
//  416  *
//  417  * @brief
//  418  *
//  419  * @param   status - ready to send or not
//  420  *
//  421  * @return  None
//  422  *
//  423  ***************************************************************************************************/
//  424 void MT_UartAppFlowControl ( bool status )
//  425 {
//  426 
//  427   /* Make sure only update if needed */
//  428   if (status != MT_UartZAppRxStatus )
//  429   {
//  430     MT_UartZAppRxStatus = status;
//  431   }
//  432 
//  433   /* App is ready to read again, ProcessZAppData have to be triggered too */
//  434   if (status == MT_UART_ZAPP_RX_READY)
//  435   {
//  436     MT_UartProcessZAppData (MT_UART_DEFAULT_PORT, HAL_UART_RX_TIMEOUT );
//  437   }
//  438 }
//  439 #endif //ZAPP
//  440 #if !defined(ZDO_COORDINATOR) && defined ( SENSORBOARD4 )//RFID 扩展板  
//  441 void RFIDprocess(uint8 ch)
//  442 {     
//  443     uint8 SendBuf[12]; 
//  444     uint16 ParentShortAddr;
//  445     uint16 AdValue;  
//  446     float RHTValue;
//  447     
//  448     switch(rxBytePtr){
//  449     case 0:
//  450         rxByte[rxBytePtr] = ch;
//  451         rxBytePtr++;
//  452         break;
//  453     case 1:
//  454         rxByte[rxBytePtr] = ch;
//  455         rxBytePtr++;
//  456         if(RfidStatus == 1){
//  457             if(rxByte[0] == 1){//寻卡错误,发送错误到网关                  
//  458                 SendFindCardError();
//  459                 RfidStatus = 0;
//  460                 rxBytePtr = 0;                  
//  461                 return;  
//  462             }
//  463         }
//  464         else if(RfidStatus == 2){
//  465             if((rxByte[0] != 5) || (rxByte[1] != 0)){//寻卡错误,发送错误到网关                  
//  466                 SendFindCardError();
//  467                 RfidStatus = 0;
//  468                 rxBytePtr = 0;                  
//  469                 return;  
//  470             }
//  471         }            
//  472         break;
//  473     case 2:
//  474         rxByte[rxBytePtr] = ch;
//  475         rxBytePtr++;
//  476         break;
//  477     case 3:
//  478         rxByte[rxBytePtr] = ch;
//  479         rxBytePtr++;
//  480         if(RfidStatus == 1){
//  481             if((rxByte[0] == 3) && (rxByte[1] == 0) && (rxByte[2] == 4) && (rxByte[3] == 0)){//寻卡正确，发送防冲突命令
//  482                 SendBuf[0] = 0x1;
//  483                 SendBuf[1] = 0x3;         
//  484                 HalUARTWrite(HAL_UART_PORT_0, &SendBuf[0], 2);//发送寻卡命令                   
//  485                 RfidStatus = 2;//等待防冲突应答状态
//  486                 rxBytePtr = 0;                  
//  487                 return;      
//  488             }
//  489             else{//寻卡错误,发送错误到网关                  
//  490                 SendFindCardError();
//  491                 RfidStatus = 0;
//  492                 rxBytePtr = 0;                  
//  493             }                       
//  494         }//if(RfidStatus == 1)
//  495         break;            
//  496     case 4:
//  497         rxByte[rxBytePtr] = ch;
//  498         rxBytePtr++;
//  499         break;
//  500     case 5:
//  501         rxByte[rxBytePtr] = ch;  
//  502         rxBytePtr++;
//  503         ParentShortAddr = NLME_GetCoordShortAddr();
//  504         SendBuf[0] = (unsigned char)(ParentShortAddr);
//  505         SendBuf[1] = (unsigned char)(ParentShortAddr>>8);
//  506         #if defined(RTR_NWK)
//  507             SendBuf[2] = 0x40 | 4;
//  508         #else
//  509             SendBuf[2] = 0x80 | 4;
//  510         #endif
//  511         AdValue = ReadAdcValue(0x1,3,2);
//  512         SendBuf[3] = (uint8)(AdValue>>6);//A/D采集                                                                                       
//  513         AdValue = ReadAdcValue(0xe,3,2);   
//  514         RHTValue = AdValue;
//  515         RHTValue = RHTValue /1480 * 25;    
//  516         SendBuf[4] = (uint8)(RHTValue);//主板温度         	    
//  517         
//  518         SendBuf[5] = rxByte[0];
//  519         SendBuf[6] = rxByte[1];
//  520         SendBuf[7] = rxByte[2];
//  521         SendBuf[8] = rxByte[3];
//  522         SendBuf[9] = rxByte[4];
//  523         SendBuf[10] = rxByte[5];        
//  524         SendData(0x1, &SendBuf[0],0x0000, TRANSFER_ENDPOINT,11);                                            
//  525         RfidStatus = 0;
//  526         rxBytePtr = 0;                  
//  527         break;
//  528     default:
//  529         RfidStatus = 0;
//  530         rxBytePtr = 0;                  
//  531         break;
//  532     }    
//  533 }  
//  534 void SendFindCardError(void)
//  535 {
//  536     uint8 SendBuf[8];      
//  537     uint16 ParentShortAddr;
//  538     uint16 AdValue;  
//  539     float RHTValue;
//  540 
//  541     ParentShortAddr = NLME_GetCoordShortAddr();
//  542     SendBuf[0] = (unsigned char)(ParentShortAddr);
//  543     SendBuf[1] = (unsigned char)(ParentShortAddr>>8);
//  544     #if defined(RTR_NWK)
//  545         SendBuf[2] = 0x40 | 4;
//  546     #else
//  547         SendBuf[2] = 0x80 | 4;
//  548     #endif
//  549     AdValue = ReadAdcValue(0x1,3,2);
//  550     SendBuf[3] = (uint8)(AdValue>>6);//A/D采集                                                                                       
//  551     AdValue = ReadAdcValue(0xe,3,2);   
//  552     RHTValue = AdValue;
//  553     RHTValue = RHTValue /1480 * 25;    
//  554     SendBuf[4] = (uint8)(RHTValue);//主板温度         	
//  555     //读卡错误    
//  556     SendBuf[5] = 1;
//  557     SendBuf[6] = 1;
//  558     SendData(0x1, &SendBuf[0],0x0000, TRANSFER_ENDPOINT,7);                                            
//  559 }
//  560 #endif
//  561 
//  562 /***************************************************************************************************
//  563 ***************************************************************************************************/
// 
// 338 bytes in segment BANKED_CODE
//  24 bytes in segment BANK_RELAYS
//   7 bytes in segment XDATA_Z
// 
// 362 bytes of CODE  memory
//   7 bytes of XDATA memory
//
//Errors: none
//Warnings: 1
