///////////////////////////////////////////////////////////////////////////////
//                                                                            /
// IAR C/C++ Compiler V8.10.3.10338/W32 for 8051        04/Jun/2019  10:11:25 /
// Copyright 2004-2011 IAR Systems AB.                                        /
//                                                                            /
//    Core               =  plain                                             /
//    Code model         =  banked                                            /
//    Data model         =  large                                             /
//    Calling convention =  xdata reentrant                                   /
//    Constant location  =  data_rom                                          /
//    Dptr setup         =  1,16                                              /
//    Source file        =  F:\cc2530testing\Zigbee终极无敌代码 -             /
//                          副本\Projects\SappWsn\Source\SAPP_FrameWork.c     /
//    Command line       =  -f "F:\cc2530testing\Zigbee终极无敌代码 -         /
//                          副本\Projects\SappWsn\..\zstack\Tools\CC2530DB\f8 /
//                          wCoord.cfg" (-DCPU32MHZ -DROOT=__near_func        /
//                          -DMAC_CFG_APP_PENDING_QUEUE=TRUE                  /
//                          -DMAC_CFG_TX_DATA_MAX=5 -DMAC_CFG_TX_MAX=8        /
//                          -DMAC_CFG_RX_MAX=5 -DZDO_COORDINATOR -DRTR_NWK)   /
//                          -f "F:\cc2530testing\Zigbee终极无敌代码 -         /
//                          副本\Projects\SappWsn\..\zstack\Tools\CC2530DB\f8 /
//                          wConfig.cfg" (-DZIGBEEPRO -DSECURE=0              /
//                          -DZG_SECURE_DYNAMIC=0 -DREFLECTOR                 /
//                          -DDEFAULT_CHANLIST=0x00020000                     /
//                          -DZDAPP_CONFIG_PAN_ID=0x0213                      /
//                          -DNWK_START_DELAY=100 -DEXTENDED_JOINING_RANDOM_M /
//                          ASK=0x007F -DBEACON_REQUEST_DELAY=100             /
//                          -DBEACON_REQ_DELAY_MASK=0x00FF                    /
//                          -DLINK_STATUS_JITTER_MASK=0x007F                  /
//                          -DROUTE_EXPIRY_TIME=30 -DAPSC_ACK_WAIT_DURATION_P /
//                          OLLED=3000 -DNWK_INDIRECT_MSG_TIMEOUT=7           /
//                          -DMAX_RREQ_ENTRIES=8 -DAPSC_MAX_FRAME_RETRIES=3   /
//                          -DNWK_MAX_DATA_RETRIES=2                          /
//                          -DMAX_POLL_FAILURE_RETRIES=2 -DMAX_BCAST=9        /
//                          -DAPS_MAX_GROUPS=16 -DMAX_RTG_ENTRIES=40          /
//                          -DNWK_MAX_BINDING_ENTRIES=4                       /
//                          -DMAX_BINDING_CLUSTER_IDS=4                       /
//                          "-DDEFAULT_KEY={0x01, 0x03, 0x05, 0x07, 0x09,     /
//                          0x0B, 0x0D, 0x0F, 0x00, 0x02, 0x04, 0x06, 0x08,   /
//                          0x0A, 0x0C, 0x0D}" -DMAC_MAX_FRAME_SIZE=116       /
//                          -DZDNWKMGR_MIN_TRANSMISSIONS=20 "-DCONST=const    /
//                          __code" -DGENERIC=__generic                       /
//                          -DRFD_RCVC_ALWAYS_ON=FALSE -DPOLL_RATE=1000       /
//                          -DQUEUED_POLL_RATE=100 -DRESPONSE_POLL_RATE=100)  /
//                          -DREJOIN_POLL_RATE=440 "F:\cc2530testing\Zigbee终 /
//                          极无敌代码 - 副本\Projects\SappWsn\Source\SAPP_Fr /
//                          ameWork.c" -D ZTOOL_P1 -D MT_TASK -D MT_SYS_FUNC  /
//                          -D MT_ZDO_FUNC -D KEY -D BROADCAST -lC            /
//                          "F:\cc2530testing\Zigbee终极无敌代码 -            /
//                          副本\Projects\SappWsn\CoordinatorBroadcast\List\" /
//                           -lA "F:\cc2530testing\Zigbee终极无敌代码 -       /
//                          副本\Projects\SappWsn\CoordinatorBroadcast\List\" /
//                           --diag_suppress Pe001,Pa010 -o                   /
//                          "F:\cc2530testing\Zigbee终极无敌代码 -            /
//                          副本\Projects\SappWsn\CoordinatorBroadcast\Obj\"  /
//                          -e --no_code_motion --debug --core=plain          /
//                          --dptr=16,1 --data_model=large                    /
//                          --code_model=banked --calling_convention=xdata_re /
//                          entrant --place_constants=data_rom                /
//                          --nr_virtual_regs 16 -I                           /
//                          "F:\cc2530testing\Zigbee终极无敌代码 -            /
//                          副本\Projects\SappWsn\" -I                        /
//                          "F:\cc2530testing\Zigbee终极无敌代码 -            /
//                          副本\Projects\SappWsn\Source\" -I                 /
//                          "F:\cc2530testing\Zigbee终极无敌代码 -            /
//                          副本\Projects\SappWsn\..\zstack\ZMain\TI2530DB\"  /
//                          -I "F:\cc2530testing\Zigbee终极无敌代码 -         /
//                          副本\Projects\SappWsn\..\..\Components\hal\includ /
//                          e\" -I "F:\cc2530testing\Zigbee终极无敌代码 -     /
//                          副本\Projects\SappWsn\..\..\Components\hal\target /
//                          \CC2530EB\" -I "F:\cc2530testing\Zigbee终极无敌代 /
//                          码 - 副本\Projects\SappWsn\..\..\Components\mac\i /
//                          nclude\" -I "F:\cc2530testing\Zigbee终极无敌代码  /
//                          - 副本\Projects\SappWsn\..\..\Components\mac\high /
//                          _level\" -I "F:\cc2530testing\Zigbee终极无敌代码  /
//                          - 副本\Projects\SappWsn\..\..\Components\mac\low_ /
//                          level\srf04\" -I "F:\cc2530testing\Zigbee终极无敌 /
//                          代码 - 副本\Projects\SappWsn\..\..\Components\mac /
//                          \low_level\srf04\single_chip\" -I                 /
//                          "F:\cc2530testing\Zigbee终极无敌代码 -            /
//                          副本\Projects\SappWsn\..\..\Components\mt\" -I    /
//                          "F:\cc2530testing\Zigbee终极无敌代码 -            /
//                          副本\Projects\SappWsn\..\..\Components\osal\inclu /
//                          de\" -I "F:\cc2530testing\Zigbee终极无敌代码 -    /
//                          副本\Projects\SappWsn\..\..\Components\services\s /
//                          addr\" -I "F:\cc2530testing\Zigbee终极无敌代码 -  /
//                          副本\Projects\SappWsn\..\..\Components\services\s /
//                          data\" -I "F:\cc2530testing\Zigbee终极无敌代码 -  /
//                          副本\Projects\SappWsn\..\..\Components\stack\af\" /
//                           -I "F:\cc2530testing\Zigbee终极无敌代码 -        /
//                          副本\Projects\SappWsn\..\..\Components\stack\nwk\ /
//                          " -I "F:\cc2530testing\Zigbee终极无敌代码 -       /
//                          副本\Projects\SappWsn\..\..\Components\stack\sapi /
//                          \" -I "F:\cc2530testing\Zigbee终极无敌代码 -      /
//                          副本\Projects\SappWsn\..\..\Components\stack\sec\ /
//                          " -I "F:\cc2530testing\Zigbee终极无敌代码 -       /
//                          副本\Projects\SappWsn\..\..\Components\stack\sys\ /
//                          " -I "F:\cc2530testing\Zigbee终极无敌代码 -       /
//                          副本\Projects\SappWsn\..\..\Components\stack\zdo\ /
//                          " -I "F:\cc2530testing\Zigbee终极无敌代码 -       /
//                          副本\Projects\SappWsn\..\..\Components\zmac\" -I  /
//                          "F:\cc2530testing\Zigbee终极无敌代码 -            /
//                          副本\Projects\SappWsn\..\..\Components\zmac\f8w\" /
//                           -Ohz --require_prototypes                        /
//    List file          =  F:\cc2530testing\Zigbee终极无敌代码 -             /
//                          副本\Projects\SappWsn\CoordinatorBroadcast\List\S /
//                          APP_FrameWork.s51                                 /
//                                                                            /
//                                                                            /
///////////////////////////////////////////////////////////////////////////////

        NAME SAPP_FrameWork

        RTMODEL "__SystemLibrary", "CLib"
        RTMODEL "__calling_convention", "xdata_reentrant"
        RTMODEL "__code_model", "banked"
        RTMODEL "__core", "plain"
        RTMODEL "__data_model", "large"
        RTMODEL "__dptr_size", "16"
        RTMODEL "__extended_stack", "disabled"
        RTMODEL "__location_for_constants", "data"
        RTMODEL "__number_of_dptrs", "1"
        RTMODEL "__rt_version", "1"

        RSEG DOVERLAY:DATA:NOROOT(0)
        RSEG IOVERLAY:IDATA:NOROOT(0)
        RSEG ISTACK:IDATA:NOROOT(0)
        RSEG PSTACK:XDATA:NOROOT(0)
        RSEG XSTACK:XDATA:NOROOT(0)

        EXTERN ?ALLOC_XSTACK8
        EXTERN ?BANKED_ENTER_XDATA
        EXTERN ?BANKED_LEAVE_XDATA
        EXTERN ?BDISPATCH
        EXTERN ?BRET
        EXTERN ?CALL_IND
        EXTERN ?DEALLOC_XSTACK8
        EXTERN ?MOVE_LONG8_XDATA_XDATA
        EXTERN ?PUSH_XSTACK8_X_TWO
        EXTERN ?PUSH_XSTACK_I_ONE
        EXTERN ?PUSH_XSTACK_I_THREE
        EXTERN ?PUSH_XSTACK_I_TWO
        EXTERN ?V0
        EXTERN ?XSP
        EXTERN ?XSTACK_DISP0_8
        EXTERN __INIT_XDATA_I
        EXTERN __INIT_XDATA_Z

        PUBLIC ??CoordinatorIncomingRoutine?relay
        FUNCTION ??CoordinatorIncomingRoutine?relay,0203H
        PUBLIC ??CreateUserTimer?relay
        FUNCTION ??CreateUserTimer?relay,0203H
        PUBLIC ??Delay100us?relay
        FUNCTION ??Delay100us?relay,0203H
        PUBLIC ??Delay_500us?relay
        FUNCTION ??Delay_500us?relay,0203H
        PUBLIC ??DeleteUserTimer?relay
        FUNCTION ??DeleteUserTimer?relay,0203H
        PUBLIC ??ModifyRefreshCycle?relay
        FUNCTION ??ModifyRefreshCycle?relay,0203H
        PUBLIC ??SampleApp_MessageMSGCB2?relay
        FUNCTION ??SampleApp_MessageMSGCB2?relay,0203H
        PUBLIC ??SampleApp_MessageMSGCB?relay
        FUNCTION ??SampleApp_MessageMSGCB?relay,0203H
        PUBLIC ??SendData?relay
        FUNCTION ??SendData?relay,0203H
        FUNCTION ??controlEpProcess?relay,0203H
        FUNCTION ??createEndPoint?relay,0203H
        FUNCTION ??functionEpProcess?relay,0203H
        PUBLIC ??osalInitTasks?relay
        FUNCTION ??osalInitTasks?relay,0203H
        FUNCTION ??taskInitProcess?relay,0203H
        FUNCTION ??uartMsgProcesser?relay,0203H
        PUBLIC CoordinatorIncomingRoutine
        FUNCTION CoordinatorIncomingRoutine,021203H
        ARGFRAME XSTACK, 2, STACK
        LOCFRAME ISTACK, 1, STACK
        LOCFRAME XSTACK, 20, STACK
        PUBLIC CreateUserTimer
        FUNCTION CreateUserTimer,021203H
        ARGFRAME XSTACK, 0, STACK
        LOCFRAME ISTACK, 1, STACK
        LOCFRAME XSTACK, 9, STACK
        PUBLIC Delay100us
        FUNCTION Delay100us,080203H
        ARGFRAME XSTACK, 18, STACK
        ARGFRAME IOVERLAY, 0, STATIC
        ARGFRAME DOVERLAY, 0, STATIC
        PUBLIC Delay_500us
        FUNCTION Delay_500us,021203H
        ARGFRAME XSTACK, 0, STACK
        LOCFRAME ISTACK, 2, STACK
        PUBLIC DeleteUserTimer
        FUNCTION DeleteUserTimer,0203H
        ARGFRAME XSTACK, 0, STACK
        LOCFRAME ISTACK, 2, STACK
        PUBLIC ModifyRefreshCycle
        FUNCTION ModifyRefreshCycle,0203H
        ARGFRAME XSTACK, 0, STACK
        LOCFRAME ISTACK, 3, STACK
        PUBWEAK P0DIR
        PUBWEAK P1DIR
        PUBWEAK P2DIR
        PUBLIC SampleApp_MessageMSGCB
        FUNCTION SampleApp_MessageMSGCB,021203H
        ARGFRAME XSTACK, 18, STACK
        ARGFRAME IOVERLAY, 0, STATIC
        ARGFRAME DOVERLAY, 0, STATIC
        LOCFRAME XSTACK, 17, STACK
        PUBLIC SampleApp_MessageMSGCB2
        FUNCTION SampleApp_MessageMSGCB2,021203H
        ARGFRAME XSTACK, 0, STACK
        LOCFRAME XSTACK, 17, STACK
        PUBLIC SendBuf
        PUBLIC SendData
        FUNCTION SendData,021203H
        ARGFRAME XSTACK, 21, STACK
        ARGFRAME IOVERLAY, 0, STATIC
        ARGFRAME DOVERLAY, 0, STATIC
        LOCFRAME ISTACK, 1, STACK
        LOCFRAME XSTACK, 33, STACK
        PUBLIC SrcShortAddr
        PUBWEAK WDCTL
        PUBWEAK _A_IEN0
        PUBWEAK _A_P0
        PUBWEAK _A_P1
        FUNCTION controlEpProcess,021603H
        ARGFRAME XSTACK, 0, STACK
        LOCFRAME ISTACK, 2, STACK
        LOCFRAME XSTACK, 21, STACK
        FUNCTION createEndPoint,021203H
        ARGFRAME XSTACK, 10, STACK
        ARGFRAME IOVERLAY, 0, STATIC
        ARGFRAME DOVERLAY, 0, STATIC
        LOCFRAME ISTACK, 1, STACK
        LOCFRAME XSTACK, 10, STACK
        PUBLIC funcTableBuffer
        FUNCTION functionEpProcess,021603H
        ARGFRAME XSTACK, 0, STACK
        LOCFRAME ISTACK, 1, STACK
        LOCFRAME XSTACK, 18, STACK
        PUBLIC osalInitTasks
        FUNCTION osalInitTasks,021203H
        ARGFRAME XSTACK, 0, STACK
        LOCFRAME ISTACK, 2, STACK
        FUNCTION taskInitProcess,021203H
        ARGFRAME XSTACK, 0, STACK
        ARGFRAME IOVERLAY, 0, STATIC
        ARGFRAME DOVERLAY, 0, STATIC
        LOCFRAME ISTACK, 1, STACK
        LOCFRAME XSTACK, 10, STACK
        PUBLIC tasksArr
        PUBLIC tasksCnt
        FUNCTION uartMsgProcesser,021203H
        ARGFRAME XSTACK, 19, STACK
        ARGFRAME IOVERLAY, 0, STATIC
        ARGFRAME DOVERLAY, 0, STATIC
        LOCFRAME XSTACK, 11, STACK
        
        CFI Names cfiNames0
        CFI StackFrame CFA_SP SP IDATA
        CFI StackFrame CFA_PSP16 PSP16 XDATA
        CFI StackFrame CFA_XSP16 XSP16 XDATA
        CFI StaticOverlayFrame CFA_IOVERLAY IOVERLAY
        CFI StaticOverlayFrame CFA_DOVERLAY DOVERLAY
        CFI Resource `PSW.CY`:1, `B.BR0`:1, `B.BR1`:1, `B.BR2`:1, `B.BR3`:1
        CFI Resource `B.BR4`:1, `B.BR5`:1, `B.BR6`:1, `B.BR7`:1, `VB.BR8`:1
        CFI Resource `VB.BR9`:1, `VB.BR10`:1, `VB.BR11`:1, `VB.BR12`:1
        CFI Resource `VB.BR13`:1, `VB.BR14`:1, `VB.BR15`:1, VB:8, B:8, A:8
        CFI Resource PSW:8, DPL0:8, DPH0:8, R0:8, R1:8, R2:8, R3:8, R4:8, R5:8
        CFI Resource R6:8, R7:8, V0:8, V1:8, V2:8, V3:8, V4:8, V5:8, V6:8, V7:8
        CFI Resource V8:8, V9:8, V10:8, V11:8, V12:8, V13:8, V14:8, V15:8, SP:8
        CFI Resource PSPH:8, PSPL:8, PSP16:16, XSPH:8, XSPL:8, XSP16:16
        CFI VirtualResource ?RET:24
        CFI Resource ?BRET_EXT:8
        CFI VirtualResource ?RET_HIGH:8, ?RET_LOW:8
        CFI ResourceParts PSP16 PSPH, PSPL
        CFI ResourceParts XSP16 XSPH, XSPL
        CFI ResourceParts ?RET ?BRET_EXT, ?RET_HIGH, ?RET_LOW
        CFI EndNames cfiNames0
        
        CFI Common cfiCommon0 Using cfiNames0
        CFI CodeAlign 1
        CFI DataAlign -1
        CFI ReturnAddress ?RET CODE
        CFI CFA_DOVERLAY Used
        CFI CFA_IOVERLAY Used
        CFI CFA_SP SP+-3
        CFI CFA_PSP16 PSP16+0
        CFI CFA_XSP16 XSP16+0
        CFI `PSW.CY` SameValue
        CFI `B.BR0` SameValue
        CFI `B.BR1` SameValue
        CFI `B.BR2` SameValue
        CFI `B.BR3` SameValue
        CFI `B.BR4` SameValue
        CFI `B.BR5` SameValue
        CFI `B.BR6` SameValue
        CFI `B.BR7` SameValue
        CFI `VB.BR8` SameValue
        CFI `VB.BR9` SameValue
        CFI `VB.BR10` SameValue
        CFI `VB.BR11` SameValue
        CFI `VB.BR12` SameValue
        CFI `VB.BR13` SameValue
        CFI `VB.BR14` SameValue
        CFI `VB.BR15` SameValue
        CFI VB SameValue
        CFI B Undefined
        CFI A Undefined
        CFI PSW SameValue
        CFI DPL0 SameValue
        CFI DPH0 SameValue
        CFI R0 Undefined
        CFI R1 Undefined
        CFI R2 Undefined
        CFI R3 Undefined
        CFI R4 Undefined
        CFI R5 Undefined
        CFI R6 SameValue
        CFI R7 SameValue
        CFI V0 SameValue
        CFI V1 SameValue
        CFI V2 SameValue
        CFI V3 SameValue
        CFI V4 SameValue
        CFI V5 SameValue
        CFI V6 SameValue
        CFI V7 SameValue
        CFI V8 SameValue
        CFI V9 SameValue
        CFI V10 SameValue
        CFI V11 SameValue
        CFI V12 SameValue
        CFI V13 SameValue
        CFI V14 SameValue
        CFI V15 SameValue
        CFI PSPH Undefined
        CFI PSPL Undefined
        CFI XSPH Undefined
        CFI XSPL Undefined
        CFI ?RET Concat
        CFI ?BRET_EXT Frame(CFA_SP, 3)
        CFI ?RET_HIGH Frame(CFA_SP, 2)
        CFI ?RET_LOW Frame(CFA_SP, 1)
        CFI EndCommon cfiCommon0
        
        
        CFI Common cfiCommon1 Using cfiNames0
        CFI CodeAlign 1
        CFI DataAlign -1
        CFI ReturnAddress ?RET CODE
        CFI CFA_DOVERLAY Used
        CFI CFA_IOVERLAY Used
        CFI CFA_SP SP+-2
        CFI CFA_PSP16 PSP16+0
        CFI CFA_XSP16 XSP16+0
        CFI `PSW.CY` SameValue
        CFI `B.BR0` SameValue
        CFI `B.BR1` SameValue
        CFI `B.BR2` SameValue
        CFI `B.BR3` SameValue
        CFI `B.BR4` SameValue
        CFI `B.BR5` SameValue
        CFI `B.BR6` SameValue
        CFI `B.BR7` SameValue
        CFI `VB.BR8` SameValue
        CFI `VB.BR9` SameValue
        CFI `VB.BR10` SameValue
        CFI `VB.BR11` SameValue
        CFI `VB.BR12` SameValue
        CFI `VB.BR13` SameValue
        CFI `VB.BR14` SameValue
        CFI `VB.BR15` SameValue
        CFI VB SameValue
        CFI B SameValue
        CFI A SameValue
        CFI PSW SameValue
        CFI DPL0 SameValue
        CFI DPH0 SameValue
        CFI R0 SameValue
        CFI R1 SameValue
        CFI R2 SameValue
        CFI R3 SameValue
        CFI R4 SameValue
        CFI R5 SameValue
        CFI R6 SameValue
        CFI R7 SameValue
        CFI V0 SameValue
        CFI V1 SameValue
        CFI V2 SameValue
        CFI V3 SameValue
        CFI V4 SameValue
        CFI V5 SameValue
        CFI V6 SameValue
        CFI V7 SameValue
        CFI V8 SameValue
        CFI V9 SameValue
        CFI V10 SameValue
        CFI V11 SameValue
        CFI V12 SameValue
        CFI V13 SameValue
        CFI V14 SameValue
        CFI V15 SameValue
        CFI PSPH Undefined
        CFI PSPL Undefined
        CFI XSPH Undefined
        CFI XSPL Undefined
        CFI ?RET Concat
        CFI ?BRET_EXT SameValue
        CFI ?RET_HIGH Frame(CFA_SP, 2)
        CFI ?RET_LOW Frame(CFA_SP, 1)
        CFI EndCommon cfiCommon1
        
macTaskInit         SYMBOL "macTaskInit"
nwk_init            SYMBOL "nwk_init"
Hal_Init            SYMBOL "Hal_Init"
MT_TaskInit         SYMBOL "MT_TaskInit"
APS_Init            SYMBOL "APS_Init"
APSF_Init           SYMBOL "APSF_Init"
ZDApp_Init          SYMBOL "ZDApp_Init"
ZDNwkMgr_Init       SYMBOL "ZDNwkMgr_Init"
ClrScreen           SYMBOL "ClrScreen"
FontSet_cn          SYMBOL "FontSet_cn"
PutString_cn        SYMBOL "PutString_cn"
osal_mem_alloc      SYMBOL "osal_mem_alloc"
MT_UartRegisterTaskID SYMBOL "MT_UartRegisterTaskID"
afRegister          SYMBOL "afRegister"
osal_msg_receive    SYMBOL "osal_msg_receive"
NLME_GetExtAddr     SYMBOL "NLME_GetExtAddr"
memcpy              SYMBOL "memcpy"
HalLcdWriteStringValue SYMBOL "HalLcdWriteStringValue"
NLME_GetShortAddr   SYMBOL "NLME_GetShortAddr"
PutAbyte            SYMBOL "PutAbyte"
TimeDelay           SYMBOL "TimeDelay"
HalLedBlink         SYMBOL "HalLedBlink"
osal_msg_deallocate SYMBOL "osal_msg_deallocate"
osal_start_timerEx  SYMBOL "osal_start_timerEx"
osal_stop_timerEx   SYMBOL "osal_stop_timerEx"
HalLedSet           SYMBOL "HalLedSet"
HalUARTWrite        SYMBOL "HalUARTWrite"
AF_DataRequest      SYMBOL "AF_DataRequest"
MT_UartCalcFCS      SYMBOL "MT_UartCalcFCS"
osal_mem_free       SYMBOL "osal_mem_free"
osal_memset         SYMBOL "osal_memset"
osal_memcpy         SYMBOL "osal_memcpy"
Onboard_wait        SYMBOL "Onboard_wait"
??AF_DataRequest?relay SYMBOL "?relay", AF_DataRequest
??APSF_Init?relay   SYMBOL "?relay", APSF_Init
`?<Name APSF_ProcessEvent 35>` SYMBOL "APSF_ProcessEvent"
??APSF_ProcessEvent?relay SYMBOL "?relay", `?<Name APSF_ProcessEvent 35>`
??APS_Init?relay    SYMBOL "?relay", APS_Init
`?<Name APS_event_loop 38>` SYMBOL "APS_event_loop"
??APS_event_loop?relay SYMBOL "?relay", `?<Name APS_event_loop 38>`
??ClrScreen?relay   SYMBOL "?relay", ClrScreen
??FontSet_cn?relay  SYMBOL "?relay", FontSet_cn
??HalLcdWriteStringValue?relay SYMBOL "?relay", HalLcdWriteStringValue
??HalLedBlink?relay SYMBOL "?relay", HalLedBlink
??HalLedSet?relay   SYMBOL "?relay", HalLedSet
??HalUARTWrite?relay SYMBOL "?relay", HalUARTWrite
??Hal_Init?relay    SYMBOL "?relay", Hal_Init
`?<Name Hal_ProcessEvent 47>` SYMBOL "Hal_ProcessEvent"
??Hal_ProcessEvent?relay SYMBOL "?relay", `?<Name Hal_ProcessEvent 47>`
`?<Name MT_ProcessEvent 49>` SYMBOL "MT_ProcessEvent"
??MT_ProcessEvent?relay SYMBOL "?relay", `?<Name MT_ProcessEvent 49>`
??MT_TaskInit?relay SYMBOL "?relay", MT_TaskInit
??MT_UartCalcFCS?relay SYMBOL "?relay", MT_UartCalcFCS
??MT_UartRegisterTaskID?relay SYMBOL "?relay", MT_UartRegisterTaskID
??NLME_GetExtAddr?relay SYMBOL "?relay", NLME_GetExtAddr
??NLME_GetShortAddr?relay SYMBOL "?relay", NLME_GetShortAddr
??Onboard_wait?relay SYMBOL "?relay", Onboard_wait
??PutAbyte?relay    SYMBOL "?relay", PutAbyte
??PutString_cn?relay SYMBOL "?relay", PutString_cn
??TimeDelay?relay   SYMBOL "?relay", TimeDelay
??ZDApp_Init?relay  SYMBOL "?relay", ZDApp_Init
`?<Name ZDApp_event_loop 61>` SYMBOL "ZDApp_event_loop"
??ZDApp_event_loop?relay SYMBOL "?relay", `?<Name ZDApp_event_loop 61>`
??ZDNwkMgr_Init?relay SYMBOL "?relay", ZDNwkMgr_Init
`?<Name ZDNwkMgr_event_loop 64>` SYMBOL "ZDNwkMgr_event_loop"
??ZDNwkMgr_event_loop?relay SYMBOL "?relay", `?<Name ZDNwkMgr_event_loop 64>`
??afRegister?relay  SYMBOL "?relay", afRegister
`?<Name macEventLoop 67>` SYMBOL "macEventLoop"
??macEventLoop?relay SYMBOL "?relay", `?<Name macEventLoop 67>`
??macTaskInit?relay SYMBOL "?relay", macTaskInit
??memcpy?relay      SYMBOL "?relay", memcpy
`?<Name nwk_event_loop 71>` SYMBOL "nwk_event_loop"
??nwk_event_loop?relay SYMBOL "?relay", `?<Name nwk_event_loop 71>`
??nwk_init?relay    SYMBOL "?relay", nwk_init
??osal_mem_alloc?relay SYMBOL "?relay", osal_mem_alloc
??osal_mem_free?relay SYMBOL "?relay", osal_mem_free
??osal_memcpy?relay SYMBOL "?relay", osal_memcpy
??osal_memset?relay SYMBOL "?relay", osal_memset
??osal_msg_deallocate?relay SYMBOL "?relay", osal_msg_deallocate
??osal_msg_receive?relay SYMBOL "?relay", osal_msg_receive
??osal_start_timerEx?relay SYMBOL "?relay", osal_start_timerEx
??osal_stop_timerEx?relay SYMBOL "?relay", osal_stop_timerEx
CoordinatorIncomingRoutine SYMBOL "CoordinatorIncomingRoutine"
??CoordinatorIncomingRoutine?relay SYMBOL "?relay", CoordinatorIncomingRoutine
CreateUserTimer     SYMBOL "CreateUserTimer"
??CreateUserTimer?relay SYMBOL "?relay", CreateUserTimer
Delay100us          SYMBOL "Delay100us"
??Delay100us?relay  SYMBOL "?relay", Delay100us
Delay_500us         SYMBOL "Delay_500us"
??Delay_500us?relay SYMBOL "?relay", Delay_500us
DeleteUserTimer     SYMBOL "DeleteUserTimer"
??DeleteUserTimer?relay SYMBOL "?relay", DeleteUserTimer
ModifyRefreshCycle  SYMBOL "ModifyRefreshCycle"
??ModifyRefreshCycle?relay SYMBOL "?relay", ModifyRefreshCycle
SampleApp_MessageMSGCB2 SYMBOL "SampleApp_MessageMSGCB2"
??SampleApp_MessageMSGCB2?relay SYMBOL "?relay", SampleApp_MessageMSGCB2
SampleApp_MessageMSGCB SYMBOL "SampleApp_MessageMSGCB"
??SampleApp_MessageMSGCB?relay SYMBOL "?relay", SampleApp_MessageMSGCB
SendData            SYMBOL "SendData"
??SendData?relay    SYMBOL "?relay", SendData
osalInitTasks       SYMBOL "osalInitTasks"
??osalInitTasks?relay SYMBOL "?relay", osalInitTasks

        EXTERN macTaskInit
        FUNCTION macTaskInit,0202H
        ARGFRAME ISTACK, 2, STACK
        ARGFRAME PSTACK, 0, STACK
        ARGFRAME XSTACK, 0, STACK
        ARGFRAME IOVERLAY, 0, STATIC
        ARGFRAME DOVERLAY, 0, STATIC
        EXTERN nwk_init
        FUNCTION nwk_init,0202H
        ARGFRAME ISTACK, 2, STACK
        ARGFRAME PSTACK, 0, STACK
        ARGFRAME XSTACK, 0, STACK
        ARGFRAME IOVERLAY, 0, STATIC
        ARGFRAME DOVERLAY, 0, STATIC
        EXTERN Hal_Init
        FUNCTION Hal_Init,0202H
        ARGFRAME ISTACK, 2, STACK
        ARGFRAME PSTACK, 0, STACK
        ARGFRAME XSTACK, 0, STACK
        ARGFRAME IOVERLAY, 0, STATIC
        ARGFRAME DOVERLAY, 0, STATIC
        EXTERN MT_TaskInit
        FUNCTION MT_TaskInit,0202H
        ARGFRAME ISTACK, 2, STACK
        ARGFRAME PSTACK, 0, STACK
        ARGFRAME XSTACK, 0, STACK
        ARGFRAME IOVERLAY, 0, STATIC
        ARGFRAME DOVERLAY, 0, STATIC
        EXTERN APS_Init
        FUNCTION APS_Init,0202H
        ARGFRAME ISTACK, 2, STACK
        ARGFRAME PSTACK, 0, STACK
        ARGFRAME XSTACK, 0, STACK
        ARGFRAME IOVERLAY, 0, STATIC
        ARGFRAME DOVERLAY, 0, STATIC
        EXTERN APSF_Init
        FUNCTION APSF_Init,0202H
        ARGFRAME ISTACK, 2, STACK
        ARGFRAME PSTACK, 0, STACK
        ARGFRAME XSTACK, 0, STACK
        ARGFRAME IOVERLAY, 0, STATIC
        ARGFRAME DOVERLAY, 0, STATIC
        EXTERN ZDApp_Init
        FUNCTION ZDApp_Init,0202H
        ARGFRAME ISTACK, 2, STACK
        ARGFRAME PSTACK, 0, STACK
        ARGFRAME XSTACK, 0, STACK
        ARGFRAME IOVERLAY, 0, STATIC
        ARGFRAME DOVERLAY, 0, STATIC
        EXTERN ZDNwkMgr_Init
        FUNCTION ZDNwkMgr_Init,0202H
        ARGFRAME ISTACK, 2, STACK
        ARGFRAME PSTACK, 0, STACK
        ARGFRAME XSTACK, 0, STACK
        ARGFRAME IOVERLAY, 0, STATIC
        ARGFRAME DOVERLAY, 0, STATIC
        EXTERN ClrScreen
        FUNCTION ClrScreen,0202H
        ARGFRAME ISTACK, 2, STACK
        ARGFRAME PSTACK, 0, STACK
        ARGFRAME XSTACK, 19, STACK
        ARGFRAME IOVERLAY, 0, STATIC
        ARGFRAME DOVERLAY, 0, STATIC
        EXTERN FontSet_cn
        FUNCTION FontSet_cn,0202H
        ARGFRAME ISTACK, 2, STACK
        ARGFRAME PSTACK, 0, STACK
        ARGFRAME XSTACK, 0, STACK
        ARGFRAME IOVERLAY, 0, STATIC
        ARGFRAME DOVERLAY, 0, STATIC
        EXTERN PutString_cn
        FUNCTION PutString_cn,0202H
        ARGFRAME ISTACK, 2, STACK
        ARGFRAME PSTACK, 0, STACK
        ARGFRAME XSTACK, 19, STACK
        ARGFRAME IOVERLAY, 0, STATIC
        ARGFRAME DOVERLAY, 0, STATIC
        EXTERN osal_mem_alloc
        FUNCTION osal_mem_alloc,0202H
        ARGFRAME ISTACK, 0, STACK
        ARGFRAME PSTACK, 0, STACK
        ARGFRAME XSTACK, 18, STACK
        ARGFRAME IOVERLAY, 0, STATIC
        ARGFRAME DOVERLAY, 0, STATIC
        EXTERN MT_UartRegisterTaskID
        FUNCTION MT_UartRegisterTaskID,0202H
        ARGFRAME ISTACK, 0, STACK
        ARGFRAME PSTACK, 0, STACK
        ARGFRAME XSTACK, 10, STACK
        ARGFRAME IOVERLAY, 0, STATIC
        ARGFRAME DOVERLAY, 0, STATIC
        EXTERN afRegister
        FUNCTION afRegister,0202H
        ARGFRAME ISTACK, 0, STACK
        ARGFRAME PSTACK, 0, STACK
        ARGFRAME XSTACK, 10, STACK
        ARGFRAME IOVERLAY, 0, STATIC
        ARGFRAME DOVERLAY, 0, STATIC
        EXTERN osal_msg_receive
        FUNCTION osal_msg_receive,0202H
        ARGFRAME ISTACK, 0, STACK
        ARGFRAME PSTACK, 0, STACK
        ARGFRAME XSTACK, 19, STACK
        ARGFRAME IOVERLAY, 0, STATIC
        ARGFRAME DOVERLAY, 0, STATIC
        EXTERN NLME_GetExtAddr
        FUNCTION NLME_GetExtAddr,0202H
        ARGFRAME ISTACK, 0, STACK
        ARGFRAME PSTACK, 0, STACK
        ARGFRAME XSTACK, 21, STACK
        ARGFRAME IOVERLAY, 0, STATIC
        ARGFRAME DOVERLAY, 0, STATIC
        EXTERN memcpy
        FUNCTION memcpy,010202H
        ARGFRAME ISTACK, 0, STACK
        ARGFRAME PSTACK, 0, STACK
        ARGFRAME XSTACK, 21, STACK
        ARGFRAME IOVERLAY, 0, STATIC
        ARGFRAME DOVERLAY, 0, STATIC
        EXTERN HalLcdWriteStringValue
        FUNCTION HalLcdWriteStringValue,0202H
        ARGFRAME ISTACK, 0, STACK
        ARGFRAME PSTACK, 0, STACK
        ARGFRAME XSTACK, 20, STACK
        ARGFRAME IOVERLAY, 0, STATIC
        ARGFRAME DOVERLAY, 0, STATIC
        EXTERN NLME_GetShortAddr
        FUNCTION NLME_GetShortAddr,0202H
        ARGFRAME ISTACK, 0, STACK
        ARGFRAME PSTACK, 0, STACK
        ARGFRAME XSTACK, 20, STACK
        ARGFRAME IOVERLAY, 0, STATIC
        ARGFRAME DOVERLAY, 0, STATIC
        EXTERN PutAbyte
        FUNCTION PutAbyte,0202H
        ARGFRAME ISTACK, 0, STACK
        ARGFRAME PSTACK, 0, STACK
        ARGFRAME XSTACK, 19, STACK
        ARGFRAME IOVERLAY, 0, STATIC
        ARGFRAME DOVERLAY, 0, STATIC
        EXTERN TimeDelay
        FUNCTION TimeDelay,0202H
        ARGFRAME ISTACK, 0, STACK
        ARGFRAME PSTACK, 0, STACK
        ARGFRAME XSTACK, 19, STACK
        ARGFRAME IOVERLAY, 0, STATIC
        ARGFRAME DOVERLAY, 0, STATIC
        EXTERN HalLedBlink
        FUNCTION HalLedBlink,0202H
        ARGFRAME ISTACK, 0, STACK
        ARGFRAME PSTACK, 0, STACK
        ARGFRAME XSTACK, 24, STACK
        ARGFRAME IOVERLAY, 0, STATIC
        ARGFRAME DOVERLAY, 0, STATIC
        EXTERN osal_msg_deallocate
        FUNCTION osal_msg_deallocate,0202H
        ARGFRAME ISTACK, 0, STACK
        ARGFRAME PSTACK, 0, STACK
        ARGFRAME XSTACK, 19, STACK
        ARGFRAME IOVERLAY, 0, STATIC
        ARGFRAME DOVERLAY, 0, STATIC
        EXTERN osal_start_timerEx
        FUNCTION osal_start_timerEx,0202H
        ARGFRAME ISTACK, 0, STACK
        ARGFRAME PSTACK, 0, STACK
        ARGFRAME XSTACK, 19, STACK
        ARGFRAME IOVERLAY, 0, STATIC
        ARGFRAME DOVERLAY, 0, STATIC
        EXTERN osal_stop_timerEx
        FUNCTION osal_stop_timerEx,0202H
        ARGFRAME ISTACK, 0, STACK
        ARGFRAME PSTACK, 0, STACK
        ARGFRAME XSTACK, 19, STACK
        ARGFRAME IOVERLAY, 0, STATIC
        ARGFRAME DOVERLAY, 0, STATIC
        EXTERN HalLedSet
        FUNCTION HalLedSet,0202H
        ARGFRAME ISTACK, 0, STACK
        ARGFRAME PSTACK, 0, STACK
        ARGFRAME XSTACK, 9, STACK
        ARGFRAME IOVERLAY, 0, STATIC
        ARGFRAME DOVERLAY, 0, STATIC
        EXTERN HalUARTWrite
        FUNCTION HalUARTWrite,0202H
        ARGFRAME ISTACK, 0, STACK
        ARGFRAME PSTACK, 0, STACK
        ARGFRAME XSTACK, 18, STACK
        ARGFRAME IOVERLAY, 0, STATIC
        ARGFRAME DOVERLAY, 0, STATIC
        EXTERN AF_DataRequest
        FUNCTION AF_DataRequest,0202H
        ARGFRAME ISTACK, 0, STACK
        ARGFRAME PSTACK, 0, STACK
        ARGFRAME XSTACK, 33, STACK
        ARGFRAME IOVERLAY, 0, STATIC
        ARGFRAME DOVERLAY, 0, STATIC
        EXTERN MT_UartCalcFCS
        FUNCTION MT_UartCalcFCS,0202H
        ARGFRAME ISTACK, 0, STACK
        ARGFRAME PSTACK, 0, STACK
        ARGFRAME XSTACK, 18, STACK
        ARGFRAME IOVERLAY, 0, STATIC
        ARGFRAME DOVERLAY, 0, STATIC
        EXTERN osal_mem_free
        FUNCTION osal_mem_free,0202H
        ARGFRAME ISTACK, 0, STACK
        ARGFRAME PSTACK, 0, STACK
        ARGFRAME XSTACK, 18, STACK
        ARGFRAME IOVERLAY, 0, STATIC
        ARGFRAME DOVERLAY, 0, STATIC
        EXTERN osal_memset
        FUNCTION osal_memset,0202H
        ARGFRAME ISTACK, 0, STACK
        ARGFRAME PSTACK, 0, STACK
        ARGFRAME XSTACK, 14, STACK
        ARGFRAME IOVERLAY, 0, STATIC
        ARGFRAME DOVERLAY, 0, STATIC
        EXTERN osal_memcpy
        FUNCTION osal_memcpy,0202H
        ARGFRAME ISTACK, 0, STACK
        ARGFRAME PSTACK, 0, STACK
        ARGFRAME XSTACK, 17, STACK
        ARGFRAME IOVERLAY, 0, STATIC
        ARGFRAME DOVERLAY, 0, STATIC
        EXTERN Onboard_wait
        FUNCTION Onboard_wait,0202H
        ARGFRAME ISTACK, 2, STACK
        ARGFRAME PSTACK, 0, STACK
        ARGFRAME XSTACK, 0, STACK
        ARGFRAME IOVERLAY, 0, STATIC
        ARGFRAME DOVERLAY, 0, STATIC
        EXTERN ??AF_DataRequest?relay
        FUNCTION ??AF_DataRequest?relay,00H
        EXTERN ??APSF_Init?relay
        FUNCTION ??APSF_Init?relay,00H
        EXTERN ??APSF_ProcessEvent?relay
        FUNCTION ??APSF_ProcessEvent?relay,00H
        EXTERN ??APS_Init?relay
        FUNCTION ??APS_Init?relay,00H
        EXTERN ??APS_event_loop?relay
        FUNCTION ??APS_event_loop?relay,00H
        EXTERN ??ClrScreen?relay
        FUNCTION ??ClrScreen?relay,00H
        EXTERN ??FontSet_cn?relay
        FUNCTION ??FontSet_cn?relay,00H
        EXTERN ??HalLcdWriteStringValue?relay
        FUNCTION ??HalLcdWriteStringValue?relay,00H
        EXTERN ??HalLedBlink?relay
        FUNCTION ??HalLedBlink?relay,00H
        EXTERN ??HalLedSet?relay
        FUNCTION ??HalLedSet?relay,00H
        EXTERN ??HalUARTWrite?relay
        FUNCTION ??HalUARTWrite?relay,00H
        EXTERN ??Hal_Init?relay
        FUNCTION ??Hal_Init?relay,00H
        EXTERN ??Hal_ProcessEvent?relay
        FUNCTION ??Hal_ProcessEvent?relay,00H
        EXTERN ??MT_ProcessEvent?relay
        FUNCTION ??MT_ProcessEvent?relay,00H
        EXTERN ??MT_TaskInit?relay
        FUNCTION ??MT_TaskInit?relay,00H
        EXTERN ??MT_UartCalcFCS?relay
        FUNCTION ??MT_UartCalcFCS?relay,00H
        EXTERN ??MT_UartRegisterTaskID?relay
        FUNCTION ??MT_UartRegisterTaskID?relay,00H
        EXTERN ??NLME_GetExtAddr?relay
        FUNCTION ??NLME_GetExtAddr?relay,00H
        EXTERN ??NLME_GetShortAddr?relay
        FUNCTION ??NLME_GetShortAddr?relay,00H
        EXTERN ??Onboard_wait?relay
        FUNCTION ??Onboard_wait?relay,00H
        EXTERN ??PutAbyte?relay
        FUNCTION ??PutAbyte?relay,00H
        EXTERN ??PutString_cn?relay
        FUNCTION ??PutString_cn?relay,00H
        EXTERN ??TimeDelay?relay
        FUNCTION ??TimeDelay?relay,00H
        EXTERN ??ZDApp_Init?relay
        FUNCTION ??ZDApp_Init?relay,00H
        EXTERN ??ZDApp_event_loop?relay
        FUNCTION ??ZDApp_event_loop?relay,00H
        EXTERN ??ZDNwkMgr_Init?relay
        FUNCTION ??ZDNwkMgr_Init?relay,00H
        EXTERN ??ZDNwkMgr_event_loop?relay
        FUNCTION ??ZDNwkMgr_event_loop?relay,00H
        EXTERN ??afRegister?relay
        FUNCTION ??afRegister?relay,00H
        EXTERN ??macEventLoop?relay
        FUNCTION ??macEventLoop?relay,00H
        EXTERN ??macTaskInit?relay
        FUNCTION ??macTaskInit?relay,00H
        EXTERN ??memcpy?relay
        FUNCTION ??memcpy?relay,00H
        EXTERN ??nwk_event_loop?relay
        FUNCTION ??nwk_event_loop?relay,00H
        EXTERN ??nwk_init?relay
        FUNCTION ??nwk_init?relay,00H
        EXTERN ??osal_mem_alloc?relay
        FUNCTION ??osal_mem_alloc?relay,00H
        EXTERN ??osal_mem_free?relay
        FUNCTION ??osal_mem_free?relay,00H
        EXTERN ??osal_memcpy?relay
        FUNCTION ??osal_memcpy?relay,00H
        EXTERN ??osal_memset?relay
        FUNCTION ??osal_memset?relay,00H
        EXTERN ??osal_msg_deallocate?relay
        FUNCTION ??osal_msg_deallocate?relay,00H
        EXTERN ??osal_msg_receive?relay
        FUNCTION ??osal_msg_receive?relay,00H
        EXTERN ??osal_start_timerEx?relay
        FUNCTION ??osal_start_timerEx?relay,00H
        EXTERN ??osal_stop_timerEx?relay
        FUNCTION ??osal_stop_timerEx?relay,00H
        EXTERN funcCount
        EXTERN funcList

// F:\cc2530testing\Zigbee终极无敌代码 - 副本\Projects\SappWsn\Source\SAPP_FrameWork.c
//    1 #include "SAPP_FrameWork.h"

        ASEGN SFR_AN:DATA:NOROOT,080H
// union <unnamed> volatile __sfr _A_P0
_A_P0:
        DATA8
        DS 1

        ASEGN SFR_AN:DATA:NOROOT,090H
// union <unnamed> volatile __sfr _A_P1
_A_P1:
        DATA8
        DS 1

        ASEGN SFR_AN:DATA:NOROOT,0a8H
// union <unnamed> volatile __sfr _A_IEN0
_A_IEN0:
        DATA8
        DS 1

        ASEGN SFR_AN:DATA:NOROOT,0c9H
// unsigned char volatile __sfr WDCTL
WDCTL:
        DATA8
        DS 1

        ASEGN SFR_AN:DATA:NOROOT,0fdH
// unsigned char volatile __sfr P0DIR
P0DIR:
        DATA8
        DS 1

        ASEGN SFR_AN:DATA:NOROOT,0feH
// unsigned char volatile __sfr P1DIR
P1DIR:
        DATA8
        DS 1

        ASEGN SFR_AN:DATA:NOROOT,0ffH
// unsigned char volatile __sfr P2DIR
P2DIR:
        DATA8
        DS 1
//    2 #include <string.h>
//    3 #include <Lcd_Dis.h>
//    4 #include "hal_lcd.h"
//    5 /*********************************************************************
//    6  * FUNCTIONS
//    7  *********************************************************************/
//    8 static void createEndPoint(struct ep_info_t *epInfo, uint8 *task_id, uint8 ep);
//    9 static void taskInitProcess(void);
//   10 static uint16 controlEpProcess(uint8 task_id, uint16 events);
//   11 static UINT16 functionEpProcess( uint8 task_id, uint16 events );
//   12 void SampleApp_MessageMSGCB( afIncomingMSGPacket_t *pckt );
//   13 void SampleApp_MessageMSGCB2( afIncomingMSGPacket_t *pckt );
//   14 void Delay_500us(void);

        RSEG XDATA_I:XDATA:NOROOT(0)
//   15 uint16 SrcShortAddr = 0xFFFF;//PeerToPeer时使用
SrcShortAddr:
        DATA16
        DS 2
        REQUIRE `?<Initializer for SrcShortAddr>`
        REQUIRE __INIT_XDATA_I
//   16 void Delay100us(uint16);
//   17 #if defined(ZDO_COORDINATOR) || defined(PEER_ROUTER) || defined(PEER_COORD)
//   18 static uint8 uartMsgProcesser(uint8 *msg);
//   19 #endif
//   20 
//   21 
//   22 //uint8 ctrlBuffer[sizeof(TOPOINFO) + sizeof(FUNCTABLE) + FUNC_NUM * sizeof(FUNCINFO)];

        RSEG XDATA_I:XDATA:NOROOT(0)
//   23 static TOPOINFO topoBuffer = { 0x02 };
topoBuffer:
        DATA8
        DS 11
        REQUIRE `?<Initializer for topoBuffer>`
        REQUIRE __INIT_XDATA_I

        RSEG XDATA_Z:XDATA:NOROOT(0)
        DATA16
//   24 FUNCTABLE *funcTableBuffer;// = (FUNCTABLE *)(&ctrlBuffer[sizeof(TOPOINFO)]);
funcTableBuffer:
        DS 2
        REQUIRE __INIT_XDATA_Z
//   25 

        RSEG XDATA_ROM_C:CONST:REORDER:NOROOT(0)
        DATA8
//   26 const pTaskEventHandlerFn tasksArr[] = {
tasksArr:
        DATA16
        DW ??macEventLoop?relay
        DW ??nwk_event_loop?relay
        DW ??Hal_ProcessEvent?relay
        DW ??MT_ProcessEvent?relay
        DW ??APS_event_loop?relay
        DW ??APSF_ProcessEvent?relay
        DW ??ZDApp_event_loop?relay
        DW ??ZDNwkMgr_event_loop?relay
        DW ??controlEpProcess?relay
        DW ??functionEpProcess?relay
//   27     macEventLoop,
//   28     nwk_event_loop,
//   29     Hal_ProcessEvent,
//   30 #if defined( MT_TASK )
//   31     MT_ProcessEvent,
//   32 #endif
//   33     APS_event_loop,
//   34 #if defined ( ZIGBEE_FRAGMENTATION )
//   35     APSF_ProcessEvent,
//   36 #endif
//   37     ZDApp_event_loop,
//   38 #if defined ( ZIGBEE_FREQ_AGILITY ) || defined ( ZIGBEE_PANID_CONFLICT )
//   39     ZDNwkMgr_event_loop,
//   40 #endif
//   41     controlEpProcess,
//   42     functionEpProcess,
//   43 };

        RSEG XDATA_ROM_C:CONST:REORDER:NOROOT(0)
        DATA8
//   44 const uint8 tasksCnt = sizeof(tasksArr)/sizeof(tasksArr[0]);
tasksCnt:
        DB 10
//   45 /*********************************************************************
//   46 *********************************************************************/
//   47 
//   48 /*********************************************************************
//   49  * @fn      osalInitTasks
//   50  *
//   51  * @brief   This function invokes the initialization function for each task.
//   52  *
//   53  * @param   void
//   54  *
//   55  * @return  none
//   56  */

        RSEG BANKED_CODE:CODE:NOROOT(0)
//   57 void osalInitTasks( void )
osalInitTasks:
        CFI Block cfiBlock0 Using cfiCommon0
        CFI Function osalInitTasks
        CODE
//   58 {
        FUNCALL osalInitTasks, macTaskInit
        LOCFRAME ISTACK, 2, STACK
        LOCFRAME PSTACK, 0, STACK
        LOCFRAME XSTACK, 0, STACK
        LOCFRAME IOVERLAY, 0, STATIC
        LOCFRAME DOVERLAY, 0, STATIC
        ARGFRAME ISTACK, 2, STACK
        ARGFRAME PSTACK, 0, STACK
        ARGFRAME XSTACK, 0, STACK
        ARGFRAME IOVERLAY, 0, STATIC
        ARGFRAME DOVERLAY, 0, STATIC
        FUNCALL osalInitTasks, nwk_init
        LOCFRAME ISTACK, 2, STACK
        LOCFRAME PSTACK, 0, STACK
        LOCFRAME XSTACK, 0, STACK
        LOCFRAME IOVERLAY, 0, STATIC
        LOCFRAME DOVERLAY, 0, STATIC
        ARGFRAME ISTACK, 2, STACK
        ARGFRAME PSTACK, 0, STACK
        ARGFRAME XSTACK, 0, STACK
        ARGFRAME IOVERLAY, 0, STATIC
        ARGFRAME DOVERLAY, 0, STATIC
        FUNCALL osalInitTasks, Hal_Init
        LOCFRAME ISTACK, 2, STACK
        LOCFRAME PSTACK, 0, STACK
        LOCFRAME XSTACK, 0, STACK
        LOCFRAME IOVERLAY, 0, STATIC
        LOCFRAME DOVERLAY, 0, STATIC
        ARGFRAME ISTACK, 2, STACK
        ARGFRAME PSTACK, 0, STACK
        ARGFRAME XSTACK, 0, STACK
        ARGFRAME IOVERLAY, 0, STATIC
        ARGFRAME DOVERLAY, 0, STATIC
        FUNCALL osalInitTasks, MT_TaskInit
        LOCFRAME ISTACK, 2, STACK
        LOCFRAME PSTACK, 0, STACK
        LOCFRAME XSTACK, 0, STACK
        LOCFRAME IOVERLAY, 0, STATIC
        LOCFRAME DOVERLAY, 0, STATIC
        ARGFRAME ISTACK, 2, STACK
        ARGFRAME PSTACK, 0, STACK
        ARGFRAME XSTACK, 0, STACK
        ARGFRAME IOVERLAY, 0, STATIC
        ARGFRAME DOVERLAY, 0, STATIC
        FUNCALL osalInitTasks, APS_Init
        LOCFRAME ISTACK, 2, STACK
        LOCFRAME PSTACK, 0, STACK
        LOCFRAME XSTACK, 0, STACK
        LOCFRAME IOVERLAY, 0, STATIC
        LOCFRAME DOVERLAY, 0, STATIC
        ARGFRAME ISTACK, 2, STACK
        ARGFRAME PSTACK, 0, STACK
        ARGFRAME XSTACK, 0, STACK
        ARGFRAME IOVERLAY, 0, STATIC
        ARGFRAME DOVERLAY, 0, STATIC
        FUNCALL osalInitTasks, APSF_Init
        LOCFRAME ISTACK, 2, STACK
        LOCFRAME PSTACK, 0, STACK
        LOCFRAME XSTACK, 0, STACK
        LOCFRAME IOVERLAY, 0, STATIC
        LOCFRAME DOVERLAY, 0, STATIC
        ARGFRAME ISTACK, 2, STACK
        ARGFRAME PSTACK, 0, STACK
        ARGFRAME XSTACK, 0, STACK
        ARGFRAME IOVERLAY, 0, STATIC
        ARGFRAME DOVERLAY, 0, STATIC
        FUNCALL osalInitTasks, ZDApp_Init
        LOCFRAME ISTACK, 2, STACK
        LOCFRAME PSTACK, 0, STACK
        LOCFRAME XSTACK, 0, STACK
        LOCFRAME IOVERLAY, 0, STATIC
        LOCFRAME DOVERLAY, 0, STATIC
        ARGFRAME ISTACK, 2, STACK
        ARGFRAME PSTACK, 0, STACK
        ARGFRAME XSTACK, 0, STACK
        ARGFRAME IOVERLAY, 0, STATIC
        ARGFRAME DOVERLAY, 0, STATIC
        FUNCALL osalInitTasks, ZDNwkMgr_Init
        LOCFRAME ISTACK, 2, STACK
        LOCFRAME PSTACK, 0, STACK
        LOCFRAME XSTACK, 0, STACK
        LOCFRAME IOVERLAY, 0, STATIC
        LOCFRAME DOVERLAY, 0, STATIC
        ARGFRAME ISTACK, 2, STACK
        ARGFRAME PSTACK, 0, STACK
        ARGFRAME XSTACK, 0, STACK
        ARGFRAME IOVERLAY, 0, STATIC
        ARGFRAME DOVERLAY, 0, STATIC
        FUNCALL osalInitTasks, ClrScreen
        LOCFRAME ISTACK, 2, STACK
        LOCFRAME PSTACK, 0, STACK
        LOCFRAME XSTACK, 0, STACK
        LOCFRAME IOVERLAY, 0, STATIC
        LOCFRAME DOVERLAY, 0, STATIC
        ARGFRAME ISTACK, 2, STACK
        ARGFRAME PSTACK, 0, STACK
        ARGFRAME XSTACK, 0, STACK
        ARGFRAME IOVERLAY, 0, STATIC
        ARGFRAME DOVERLAY, 0, STATIC
        FUNCALL osalInitTasks, FontSet_cn
        LOCFRAME ISTACK, 2, STACK
        LOCFRAME PSTACK, 0, STACK
        LOCFRAME XSTACK, 0, STACK
        LOCFRAME IOVERLAY, 0, STATIC
        LOCFRAME DOVERLAY, 0, STATIC
        ARGFRAME ISTACK, 2, STACK
        ARGFRAME PSTACK, 0, STACK
        ARGFRAME XSTACK, 0, STACK
        ARGFRAME IOVERLAY, 0, STATIC
        ARGFRAME DOVERLAY, 0, STATIC
        FUNCALL osalInitTasks, PutString_cn
        LOCFRAME ISTACK, 2, STACK
        LOCFRAME PSTACK, 0, STACK
        LOCFRAME XSTACK, 0, STACK
        LOCFRAME IOVERLAY, 0, STATIC
        LOCFRAME DOVERLAY, 0, STATIC
        ARGFRAME ISTACK, 2, STACK
        ARGFRAME PSTACK, 0, STACK
        ARGFRAME XSTACK, 0, STACK
        ARGFRAME IOVERLAY, 0, STATIC
        ARGFRAME DOVERLAY, 0, STATIC
        FUNCALL osalInitTasks, PutString_cn
        LOCFRAME ISTACK, 2, STACK
        LOCFRAME PSTACK, 0, STACK
        LOCFRAME XSTACK, 0, STACK
        LOCFRAME IOVERLAY, 0, STATIC
        LOCFRAME DOVERLAY, 0, STATIC
        ARGFRAME ISTACK, 2, STACK
        ARGFRAME PSTACK, 0, STACK
        ARGFRAME XSTACK, 0, STACK
        ARGFRAME IOVERLAY, 0, STATIC
        ARGFRAME DOVERLAY, 0, STATIC
        FUNCALL osalInitTasks, PutString_cn
        LOCFRAME ISTACK, 2, STACK
        LOCFRAME PSTACK, 0, STACK
        LOCFRAME XSTACK, 0, STACK
        LOCFRAME IOVERLAY, 0, STATIC
        LOCFRAME DOVERLAY, 0, STATIC
        ARGFRAME ISTACK, 2, STACK
        ARGFRAME PSTACK, 0, STACK
        ARGFRAME XSTACK, 0, STACK
        ARGFRAME IOVERLAY, 0, STATIC
        ARGFRAME DOVERLAY, 0, STATIC
        FUNCALL osalInitTasks, PutString_cn
        LOCFRAME ISTACK, 2, STACK
        LOCFRAME PSTACK, 0, STACK
        LOCFRAME XSTACK, 0, STACK
        LOCFRAME IOVERLAY, 0, STATIC
        LOCFRAME DOVERLAY, 0, STATIC
        ARGFRAME ISTACK, 2, STACK
        ARGFRAME PSTACK, 0, STACK
        ARGFRAME XSTACK, 0, STACK
        ARGFRAME IOVERLAY, 0, STATIC
        ARGFRAME DOVERLAY, 0, STATIC
        FUNCALL osalInitTasks, taskInitProcess
        LOCFRAME ISTACK, 2, STACK
        LOCFRAME PSTACK, 0, STACK
        LOCFRAME XSTACK, 0, STACK
        LOCFRAME IOVERLAY, 0, STATIC
        LOCFRAME DOVERLAY, 0, STATIC
        ARGFRAME ISTACK, 2, STACK
        ARGFRAME PSTACK, 0, STACK
        ARGFRAME XSTACK, 0, STACK
        ARGFRAME IOVERLAY, 0, STATIC
        ARGFRAME DOVERLAY, 0, STATIC
        PUSH    DPL
        CFI DPL0 Frame(CFA_SP, 4)
        CFI CFA_SP SP+-4
        PUSH    DPH
        CFI DPH0 Frame(CFA_SP, 5)
        CFI CFA_SP SP+-5
        ; Saved register size: 2
        ; Auto size: 0
//   59     uint8 taskID = 0;
//   60 
//   61     macTaskInit( taskID++ );
        ; Setup parameters for call to function macTaskInit
        MOV     R1,#0x0
        LCALL   ??macTaskInit?relay
//   62     nwk_init( taskID++ );
        ; Setup parameters for call to function nwk_init
        MOV     R1,#0x1
        LCALL   ??nwk_init?relay
//   63     Hal_Init( taskID++ );
        ; Setup parameters for call to function Hal_Init
        MOV     R1,#0x2
        LCALL   ??Hal_Init?relay
//   64 #if defined( MT_TASK )
//   65     MT_TaskInit( taskID++ );
        ; Setup parameters for call to function MT_TaskInit
        MOV     R1,#0x3
        LCALL   ??MT_TaskInit?relay
//   66 #endif
//   67     APS_Init( taskID++ );
        ; Setup parameters for call to function APS_Init
        MOV     R1,#0x4
        LCALL   ??APS_Init?relay
//   68 #if defined ( ZIGBEE_FRAGMENTATION )
//   69     APSF_Init( taskID++ );
        ; Setup parameters for call to function APSF_Init
        MOV     R1,#0x5
        LCALL   ??APSF_Init?relay
//   70 #endif
//   71     ZDApp_Init( taskID++ );
        ; Setup parameters for call to function ZDApp_Init
        MOV     R1,#0x6
        LCALL   ??ZDApp_Init?relay
//   72 #if defined ( ZIGBEE_FREQ_AGILITY ) || defined ( ZIGBEE_PANID_CONFLICT )
//   73     ZDNwkMgr_Init( taskID++ );
        ; Setup parameters for call to function ZDNwkMgr_Init
        MOV     R1,#0x7
        LCALL   ??ZDNwkMgr_Init?relay
//   74 #endif
//   75 #if defined(ZDO_COORDINATOR)// || defined(RTR_NWK)    
//   76     ClrScreen();        
        ; Setup parameters for call to function ClrScreen
        LCALL   ??ClrScreen?relay
//   77     FontSet_cn(1,1);                //16x16	
        ; Setup parameters for call to function FontSet_cn
        MOV     R2,#0x1
        MOV     R1,#0x1
        LCALL   ??FontSet_cn?relay
//   78     PutString_cn(24,0,"网络协调器");
        ; Setup parameters for call to function PutString_cn
        MOV     R4,#`?<Constant "\\315\\370\\302\\347\\320\\255\\265\\367\\3` & 0xff
        MOV     R5,#(`?<Constant "\\315\\370\\302\\347\\320\\255\\265\\367\\3` >> 8) & 0xff
        MOV     R2,#0x0
        MOV     R1,#0x18
        LCALL   ??PutString_cn?relay
//   79     PutString_cn(0,16,"---------------");
        ; Setup parameters for call to function PutString_cn
        MOV     R4,#`?<Constant "---------------">` & 0xff
        MOV     R5,#(`?<Constant "---------------">` >> 8) & 0xff
        MOV     R2,#0x10
        MOV     R1,#0x0
        LCALL   ??PutString_cn?relay
//   80     PutString_cn(8,32,"启动新的网络");	
        ; Setup parameters for call to function PutString_cn
        MOV     R4,#`?<Constant "\\306\\364\\266\\257\\320\\302\\265\\304\\3` & 0xff
        MOV     R5,#(`?<Constant "\\306\\364\\266\\257\\320\\302\\265\\304\\3` >> 8) & 0xff
        MOV     R2,#0x20
        MOV     R1,#0x8
        LCALL   ??PutString_cn?relay
//   81     PutString_cn(8,48,"正在启动...");	
        ; Setup parameters for call to function PutString_cn
        MOV     R4,#`?<Constant "\\325\\375\\324\\332\\306\\364\\266\\257..` & 0xff
        MOV     R5,#(`?<Constant "\\325\\375\\324\\332\\306\\364\\266\\257..` >> 8) & 0xff
        MOV     R2,#0x30
        MOV     R1,#0x8
        LCALL   ??PutString_cn?relay
//   82 #endif  
//   83     taskInitProcess();  
        ; Setup parameters for call to function taskInitProcess
        LCALL   ??taskInitProcess?relay
//   84     //Hello_Init(taskID);
//   85 }
        LJMP    ?Subroutine0 & 0xFFFF
        CFI EndBlock cfiBlock0
//   86 

        RSEG XDATA_Z:XDATA:NOROOT(0)
        DATA8
//   87 static devStates_t curNwkState;
curNwkState:
        DS 1
        REQUIRE __INIT_XDATA_Z

        RSEG XDATA_Z:XDATA:NOROOT(0)
        DATA8
//   88 static uint8 controlTaskId;
controlTaskId:
        DS 1
        REQUIRE __INIT_XDATA_Z

        RSEG XDATA_Z:XDATA:NOROOT(0)
        DATA8
//   89 static uint8 functionTaskId;
functionTaskId:
        DS 1
        REQUIRE __INIT_XDATA_Z

        RSEG XDATA_Z:XDATA:NOROOT(0)
        DATA8
//   90 static struct ep_info_t controlEndPointInfo;
controlEndPointInfo:
        DS 33
        REQUIRE __INIT_XDATA_Z

        RSEG XDATA_Z:XDATA:NOROOT(0)
        DATA8
//   91 static uint8 isUserTimerRunning = 0;
isUserTimerRunning:
        DS 1
        REQUIRE __INIT_XDATA_Z
//   92 /*********************************************************************
//   93  * LOCAL FUNCTIONS
//   94  */

        RSEG BANKED_CODE:CODE:NOROOT(0)
//   95 static void taskInitProcess(void)
taskInitProcess:
        CFI Block cfiBlock1 Using cfiCommon0
        CFI Function taskInitProcess
        CODE
//   96 {
        FUNCALL taskInitProcess, osal_mem_alloc
        LOCFRAME ISTACK, 0, STACK
        LOCFRAME PSTACK, 0, STACK
        LOCFRAME XSTACK, 10, STACK
        LOCFRAME IOVERLAY, 0, STATIC
        LOCFRAME DOVERLAY, 0, STATIC
        ARGFRAME ISTACK, 0, STACK
        ARGFRAME PSTACK, 0, STACK
        ARGFRAME XSTACK, 10, STACK
        ARGFRAME IOVERLAY, 0, STATIC
        ARGFRAME DOVERLAY, 0, STATIC
        FUNCALL taskInitProcess, createEndPoint
        LOCFRAME ISTACK, 0, STACK
        LOCFRAME PSTACK, 0, STACK
        LOCFRAME XSTACK, 10, STACK
        LOCFRAME IOVERLAY, 0, STATIC
        LOCFRAME DOVERLAY, 0, STATIC
        ARGFRAME ISTACK, 0, STACK
        ARGFRAME PSTACK, 0, STACK
        ARGFRAME XSTACK, 10, STACK
        ARGFRAME IOVERLAY, 0, STATIC
        ARGFRAME DOVERLAY, 0, STATIC
        FUNCALL taskInitProcess, createEndPoint
        LOCFRAME ISTACK, 0, STACK
        LOCFRAME PSTACK, 0, STACK
        LOCFRAME XSTACK, 10, STACK
        LOCFRAME IOVERLAY, 0, STATIC
        LOCFRAME DOVERLAY, 0, STATIC
        ARGFRAME ISTACK, 0, STACK
        ARGFRAME PSTACK, 0, STACK
        ARGFRAME XSTACK, 10, STACK
        ARGFRAME IOVERLAY, 0, STATIC
        ARGFRAME DOVERLAY, 0, STATIC
        FUNCALL taskInitProcess, MT_UartRegisterTaskID
        LOCFRAME ISTACK, 0, STACK
        LOCFRAME PSTACK, 0, STACK
        LOCFRAME XSTACK, 10, STACK
        LOCFRAME IOVERLAY, 0, STATIC
        LOCFRAME DOVERLAY, 0, STATIC
        ARGFRAME ISTACK, 0, STACK
        ARGFRAME PSTACK, 0, STACK
        ARGFRAME XSTACK, 10, STACK
        ARGFRAME IOVERLAY, 0, STATIC
        ARGFRAME DOVERLAY, 0, STATIC
        MOV     A,#-0xa
        LCALL   ?BANKED_ENTER_XDATA
        CFI DPH0 load(1, XDATA, add(CFA_XSP16, literal(-1)))
        CFI DPL0 load(1, XDATA, add(CFA_XSP16, literal(-2)))
        CFI ?BRET_EXT load(1, XDATA, add(CFA_XSP16, literal(-3)))
        CFI ?RET_HIGH load(1, XDATA, add(CFA_XSP16, literal(-4)))
        CFI ?RET_LOW load(1, XDATA, add(CFA_XSP16, literal(-5)))
        CFI R7 load(1, XDATA, add(CFA_XSP16, literal(-6)))
        CFI V1 load(1, XDATA, add(CFA_XSP16, literal(-7)))
        CFI V0 load(1, XDATA, add(CFA_XSP16, literal(-8)))
        CFI VB load(1, XDATA, add(CFA_XSP16, literal(-9)))
        CFI R6 load(1, XDATA, add(CFA_XSP16, literal(-10)))
        CFI CFA_SP SP+0
        CFI CFA_XSP16 add(XSP16, 10)
        ; Saved register size: 10
        ; Auto size: 0
//   97  #if defined ( BUILD_ALL_DEVICES )
//   98     // The "Demo" target is setup to have BUILD_ALL_DEVICES and HOLD_AUTO_START
//   99     // We are looking at a jumper (defined in SampleAppHw.c) to be jumpered
//  100     // together - if they are - we will start up a coordinator. Otherwise,
//  101     // the device will start as a router.
//  102     if ( readCoordinatorJumper() )
//  103         zgDeviceLogicalType = ZG_DEVICETYPE_COORDINATOR;
//  104     else
//  105         zgDeviceLogicalType = ZG_DEVICETYPE_ROUTER;
//  106 #endif // BUILD_ALL_DEVICES
//  107 
//  108 #if defined ( HOLD_AUTO_START )
//  109     // HOLD_AUTO_START is a compile option that will surpress ZDApp
//  110     //  from starting the device and wait for the application to
//  111     //  start the device.
//  112     ZDOInitDevice(0);
//  113 #endif
//  114 
//  115     // 构造功能列表
//  116     funcTableBuffer = createFuncTable(funcCount);
        ; Setup parameters for call to function osal_mem_alloc
        MOV     DPTR,#funcCount
        MOVX    A,@DPTR
        MOV     B,#0x3
        MUL     AB
        ADD     A,#0x2
        MOV     R2,A
        MOV     A,B
        ADDC    A,#0x0
        MOV     R3,A
        LCALL   ??osal_mem_alloc?relay
        MOV     DPTR,#funcTableBuffer
        MOV     A,R2
        MOVX    @DPTR,A
        INC     DPTR
        MOV     A,R3
        MOVX    @DPTR,A
//  117     funcTableBuffer->ft_type = 0x01;
        LCALL   ?Subroutine9 & 0xFFFF
??CrossCallReturnLabel_72:
        MOV     A,#0x1
        MOVX    @DPTR,A
//  118     funcTableBuffer->ft_count = funcCount;
        MOV     DPTR,#funcCount
        MOVX    A,@DPTR
        PUSH    A
        CFI CFA_SP SP+-1
        LCALL   ?Subroutine9 & 0xFFFF
??CrossCallReturnLabel_73:
        INC     DPTR
        POP     A
        CFI CFA_SP SP+0
        MOVX    @DPTR,A
//  119     int i;
//  120     for(i = 0; i < funcCount; i++)
        MOV     R6,#0x0
        MOV     R7,#0x0
        SJMP    ??CrossCallReturnLabel_33
//  121     {
//  122         funcTableBuffer->ft_list[i].type = funcList[i].function.type;
??taskInitProcess_0:
        LCALL   ?Subroutine24 & 0xFFFF
//  123         funcTableBuffer->ft_list[i].id = funcList[i].function.id;
//  124         funcTableBuffer->ft_list[i].cycle = funcList[i].function.cycle;
//  125     }
??CrossCallReturnLabel_53:
        MOV     R0,A
        MOV     A,#(funcList >> 8) & 0xff
        ADDC    A,R1
        MOV     R1,A
        MOV     A,R0
        MOV     R2,A
        MOV     A,R1
        MOV     R3,A
        MOV     A,R6
        MOV     R0,A
        MOV     A,R7
        MOV     R1,A
        MOV     A,R0
        MOV     B,#0x3
        MUL     AB
        MOV     R0,A
        MOV     R4,B
        MOV     B,#0x3
        MOV     A,R1
        MUL     AB
        ADD     A,R4
        MOV     R1,A
        MOV     DPL,R2
        MOV     DPH,R3
        INC     DPTR
        INC     DPTR
        INC     DPTR
        INC     DPTR
        INC     DPTR
        INC     DPTR
        INC     DPTR
        INC     DPTR
        MOVX    A,@DPTR
        PUSH    A
        CFI CFA_SP SP+-1
        LCALL   ?Subroutine13 & 0xFFFF
??CrossCallReturnLabel_12:
        POP     A
        CFI CFA_SP SP+0
        LCALL   ?Subroutine33 & 0xFFFF
??CrossCallReturnLabel_47:
        MOVX    A,@DPTR
        PUSH    A
        CFI CFA_SP SP+-1
        LCALL   ?Subroutine13 & 0xFFFF
??CrossCallReturnLabel_13:
        INC     DPTR
        POP     A
        CFI CFA_SP SP+0
        LCALL   ?Subroutine21 & 0xFFFF
??CrossCallReturnLabel_23:
        PUSH    A
        CFI CFA_SP SP+-1
        LCALL   ?Subroutine11 & 0xFFFF
??CrossCallReturnLabel_10:
        POP     A
        CFI CFA_SP SP+0
        MOVX    @DPTR,A
        LCALL   ?Subroutine27 & 0xFFFF
??CrossCallReturnLabel_33:
        LCALL   ?Subroutine7 & 0xFFFF
??CrossCallReturnLabel_2:
        JC      ??taskInitProcess_0
//  126     controlTaskId = tasksCnt - 2; //排在 tasksArr[] 的最后两个。
        MOV     DPTR,#controlTaskId
        MOV     A,#0x8
        MOVX    @DPTR,A
//  127     functionTaskId = tasksCnt - 1;
        MOV     DPTR,#functionTaskId
        INC     A
        MOVX    @DPTR,A
//  128     createEndPoint(&controlEndPointInfo, &controlTaskId, CONTROL_ENDPOINT);
        ; Setup parameters for call to function createEndPoint
        MOV     R1,#-0x10
        MOV     R4,#controlTaskId & 0xff
        MOV     R5,#(controlTaskId >> 8) & 0xff
        MOV     R2,#controlEndPointInfo & 0xff
        MOV     R3,#(controlEndPointInfo >> 8) & 0xff
        LCALL   ??createEndPoint?relay
//  129     for(i = 0; i < funcCount; i++)
        MOV     R6,#0x0
        MOV     R7,#0x0
        SJMP    ??CrossCallReturnLabel_34
//  130     {
//  131         struct ep_info_t *ep = &funcList[i];
??taskInitProcess_1:
        LCALL   ?Subroutine24 & 0xFFFF
??CrossCallReturnLabel_54:
        MOV     ?V0 + 0,A
        MOV     A,#(funcList >> 8) & 0xff
        ADDC    A,R1
        MOV     ?V0 + 1,A
//  132         createEndPoint(ep, &functionTaskId, i + 1);
        ; Setup parameters for call to function createEndPoint
        MOV     A,R6
        INC     A
        MOV     R1,A
        MOV     R4,#functionTaskId & 0xff
        MOV     R5,#(functionTaskId >> 8) & 0xff
        MOV     R2,?V0 + 0
        MOV     R3,?V0 + 1
        LCALL   ??createEndPoint?relay
//  133         if(ep->res_available)
        MOV     DPL,?V0 + 0
        MOV     DPH,?V0 + 1
        LCALL   ??Subroutine37_0 & 0xFFFF
??CrossCallReturnLabel_60:
        JZ      ??taskInitProcess_2
//  134           (*ep->res_available)(ep, ResInit, NULL);
        ; Setup parameters for indirect call
        MOV     R4,#0x0
        MOV     R5,#0x0
        MOV     R1,#0x1
        MOV     R2,?V0 + 0
        MOV     R3,?V0 + 1
        MOV     DPL,R2
        MOV     DPH,R3
        INC     DPTR
        INC     DPTR
        INC     DPTR
        INC     DPTR
        INC     DPTR
        INC     DPTR
        LCALL   ??Subroutine44_0 & 0xFFFF
//  135     }
??CrossCallReturnLabel_64:
        LCALL   ?CALL_IND
??taskInitProcess_2:
        LCALL   ?Subroutine27 & 0xFFFF
??CrossCallReturnLabel_34:
        LCALL   ?Subroutine7 & 0xFFFF
??CrossCallReturnLabel_3:
        JC      ??taskInitProcess_1
//  136 #if defined(ZDO_COORDINATOR) || defined(PEER_ROUTER) || defined(PEER_COORD)   
//  137 //  RegisterForKeys( SampleApp_TaskID );
//  138     MT_UartRegisterTaskID(controlTaskId);     
        ; Setup parameters for call to function MT_UartRegisterTaskID
        MOV     DPTR,#controlTaskId
        MOVX    A,@DPTR
        MOV     R1,A
        LCALL   ??MT_UartRegisterTaskID?relay
        CFI EndBlock cfiBlock1
//  139 #endif  
//  140 }
        REQUIRE ?Subroutine1
        ; // Fall through to label ?Subroutine1

        RSEG BANKED_CODE:CODE:NOROOT(0)
?Subroutine1:
        CFI Block cfiBlock2 Using cfiCommon0
        CFI NoFunction
        CFI CFA_SP SP+0
        CFI CFA_XSP16 add(XSP16, 10)
        CFI VB load(1, XDATA, add(CFA_XSP16, literal(-9)))
        CFI DPL0 load(1, XDATA, add(CFA_XSP16, literal(-2)))
        CFI DPH0 load(1, XDATA, add(CFA_XSP16, literal(-1)))
        CFI R6 load(1, XDATA, add(CFA_XSP16, literal(-10)))
        CFI R7 load(1, XDATA, add(CFA_XSP16, literal(-6)))
        CFI V0 load(1, XDATA, add(CFA_XSP16, literal(-8)))
        CFI V1 load(1, XDATA, add(CFA_XSP16, literal(-7)))
        CFI ?BRET_EXT load(1, XDATA, add(CFA_XSP16, literal(-3)))
        CFI ?RET_HIGH load(1, XDATA, add(CFA_XSP16, literal(-4)))
        CFI ?RET_LOW load(1, XDATA, add(CFA_XSP16, literal(-5)))
        MOV     R7,#0x2
        LJMP    ?BANKED_LEAVE_XDATA
        CFI EndBlock cfiBlock2

        RSEG BANKED_CODE:CODE:NOROOT(0)
?Subroutine24:
        CFI Block cfiCond3 Using cfiCommon0
        CFI NoFunction
        CFI Conditional ??CrossCallReturnLabel_53
        CFI R6 load(1, XDATA, add(CFA_XSP16, literal(-10)))
        CFI VB load(1, XDATA, add(CFA_XSP16, literal(-9)))
        CFI V0 load(1, XDATA, add(CFA_XSP16, literal(-8)))
        CFI V1 load(1, XDATA, add(CFA_XSP16, literal(-7)))
        CFI R7 load(1, XDATA, add(CFA_XSP16, literal(-6)))
        CFI ?RET_LOW load(1, XDATA, add(CFA_XSP16, literal(-5)))
        CFI ?RET_HIGH load(1, XDATA, add(CFA_XSP16, literal(-4)))
        CFI ?BRET_EXT load(1, XDATA, add(CFA_XSP16, literal(-3)))
        CFI DPL0 load(1, XDATA, add(CFA_XSP16, literal(-2)))
        CFI DPH0 load(1, XDATA, add(CFA_XSP16, literal(-1)))
        CFI CFA_SP SP+0
        CFI CFA_XSP16 add(XSP16, 10)
        CFI Block cfiCond4 Using cfiCommon0
        CFI (cfiCond4) NoFunction
        CFI (cfiCond4) Conditional ??CrossCallReturnLabel_54
        CFI (cfiCond4) R6 load(1, XDATA, add(CFA_XSP16, literal(-10)))
        CFI (cfiCond4) VB load(1, XDATA, add(CFA_XSP16, literal(-9)))
        CFI (cfiCond4) V0 load(1, XDATA, add(CFA_XSP16, literal(-8)))
        CFI (cfiCond4) V1 load(1, XDATA, add(CFA_XSP16, literal(-7)))
        CFI (cfiCond4) R7 load(1, XDATA, add(CFA_XSP16, literal(-6)))
        CFI (cfiCond4) ?RET_LOW load(1, XDATA, add(CFA_XSP16, literal(-5)))
        CFI (cfiCond4) ?RET_HIGH load(1, XDATA, add(CFA_XSP16, literal(-4)))
        CFI (cfiCond4) ?BRET_EXT load(1, XDATA, add(CFA_XSP16, literal(-3)))
        CFI (cfiCond4) DPL0 load(1, XDATA, add(CFA_XSP16, literal(-2)))
        CFI (cfiCond4) DPH0 load(1, XDATA, add(CFA_XSP16, literal(-1)))
        CFI (cfiCond4) CFA_SP SP+0
        CFI (cfiCond4) CFA_XSP16 add(XSP16, 10)
        CFI Block cfiPicker5 Using cfiCommon1
        CFI (cfiPicker5) NoFunction
        CFI (cfiPicker5) Picker
        MOV     A,R6
        MOV     R0,A
        MOV     A,R7
        MOV     R1,A
        MOV     A,R0
        MOV     B,#0x21
        MUL     AB
        MOV     R0,A
        MOV     R2,B
        MOV     B,#0x21
        MOV     A,R1
        CFI EndBlock cfiCond3
        CFI EndBlock cfiCond4
        CFI EndBlock cfiPicker5
        REQUIRE ??Subroutine36_0
        ; // Fall through to label ??Subroutine36_0

        RSEG BANKED_CODE:CODE:NOROOT(0)
??Subroutine36_0:
        CFI Block cfiCond6 Using cfiCommon0
        CFI NoFunction
        CFI Conditional ??CrossCallReturnLabel_51
        CFI R6 load(1, XDATA, add(CFA_XSP16, literal(-18)))
        CFI VB load(1, XDATA, add(CFA_XSP16, literal(-17)))
        CFI V0 load(1, XDATA, add(CFA_XSP16, literal(-16)))
        CFI V1 load(1, XDATA, add(CFA_XSP16, literal(-15)))
        CFI V2 load(1, XDATA, add(CFA_XSP16, literal(-14)))
        CFI V3 load(1, XDATA, add(CFA_XSP16, literal(-13)))
        CFI V4 load(1, XDATA, add(CFA_XSP16, literal(-12)))
        CFI V5 load(1, XDATA, add(CFA_XSP16, literal(-11)))
        CFI V6 load(1, XDATA, add(CFA_XSP16, literal(-10)))
        CFI V7 load(1, XDATA, add(CFA_XSP16, literal(-9)))
        CFI V8 load(1, XDATA, add(CFA_XSP16, literal(-8)))
        CFI V9 load(1, XDATA, add(CFA_XSP16, literal(-7)))
        CFI R7 load(1, XDATA, add(CFA_XSP16, literal(-6)))
        CFI ?RET_LOW load(1, XDATA, add(CFA_XSP16, literal(-5)))
        CFI ?RET_HIGH load(1, XDATA, add(CFA_XSP16, literal(-4)))
        CFI ?BRET_EXT load(1, XDATA, add(CFA_XSP16, literal(-3)))
        CFI DPL0 load(1, XDATA, add(CFA_XSP16, literal(-2)))
        CFI DPH0 load(1, XDATA, add(CFA_XSP16, literal(-1)))
        CFI CFA_SP SP+0
        CFI CFA_XSP16 add(XSP16, 18)
        CFI Block cfiCond7 Using cfiCommon0
        CFI (cfiCond7) NoFunction
        CFI (cfiCond7) Conditional ??CrossCallReturnLabel_52
        CFI (cfiCond7) R6 load(1, XDATA, add(CFA_XSP16, literal(-18)))
        CFI (cfiCond7) VB load(1, XDATA, add(CFA_XSP16, literal(-17)))
        CFI (cfiCond7) V0 load(1, XDATA, add(CFA_XSP16, literal(-16)))
        CFI (cfiCond7) V1 load(1, XDATA, add(CFA_XSP16, literal(-15)))
        CFI (cfiCond7) V2 load(1, XDATA, add(CFA_XSP16, literal(-14)))
        CFI (cfiCond7) V3 load(1, XDATA, add(CFA_XSP16, literal(-13)))
        CFI (cfiCond7) V4 load(1, XDATA, add(CFA_XSP16, literal(-12)))
        CFI (cfiCond7) V5 load(1, XDATA, add(CFA_XSP16, literal(-11)))
        CFI (cfiCond7) V6 load(1, XDATA, add(CFA_XSP16, literal(-10)))
        CFI (cfiCond7) V7 load(1, XDATA, add(CFA_XSP16, literal(-9)))
        CFI (cfiCond7) V8 load(1, XDATA, add(CFA_XSP16, literal(-8)))
        CFI (cfiCond7) V9 load(1, XDATA, add(CFA_XSP16, literal(-7)))
        CFI (cfiCond7) R7 load(1, XDATA, add(CFA_XSP16, literal(-6)))
        CFI (cfiCond7) ?RET_LOW load(1, XDATA, add(CFA_XSP16, literal(-5)))
        CFI (cfiCond7) ?RET_HIGH load(1, XDATA, add(CFA_XSP16, literal(-4)))
        CFI (cfiCond7) ?BRET_EXT load(1, XDATA, add(CFA_XSP16, literal(-3)))
        CFI (cfiCond7) DPL0 load(1, XDATA, add(CFA_XSP16, literal(-2)))
        CFI (cfiCond7) DPH0 load(1, XDATA, add(CFA_XSP16, literal(-1)))
        CFI (cfiCond7) CFA_SP SP+0
        CFI (cfiCond7) CFA_XSP16 add(XSP16, 18)
        CFI Block cfiCond8 Using cfiCommon0
        CFI (cfiCond8) NoFunction
        CFI (cfiCond8) Conditional ??CrossCallReturnLabel_53
        CFI (cfiCond8) R6 load(1, XDATA, add(CFA_XSP16, literal(-10)))
        CFI (cfiCond8) VB load(1, XDATA, add(CFA_XSP16, literal(-9)))
        CFI (cfiCond8) V0 load(1, XDATA, add(CFA_XSP16, literal(-8)))
        CFI (cfiCond8) V1 load(1, XDATA, add(CFA_XSP16, literal(-7)))
        CFI (cfiCond8) R7 load(1, XDATA, add(CFA_XSP16, literal(-6)))
        CFI (cfiCond8) ?RET_LOW load(1, XDATA, add(CFA_XSP16, literal(-5)))
        CFI (cfiCond8) ?RET_HIGH load(1, XDATA, add(CFA_XSP16, literal(-4)))
        CFI (cfiCond8) ?BRET_EXT load(1, XDATA, add(CFA_XSP16, literal(-3)))
        CFI (cfiCond8) DPL0 load(1, XDATA, add(CFA_XSP16, literal(-2)))
        CFI (cfiCond8) DPH0 load(1, XDATA, add(CFA_XSP16, literal(-1)))
        CFI (cfiCond8) CFA_SP SP+0
        CFI (cfiCond8) CFA_XSP16 add(XSP16, 10)
        CFI Block cfiCond9 Using cfiCommon0
        CFI (cfiCond9) NoFunction
        CFI (cfiCond9) Conditional ??CrossCallReturnLabel_54
        CFI (cfiCond9) R6 load(1, XDATA, add(CFA_XSP16, literal(-10)))
        CFI (cfiCond9) VB load(1, XDATA, add(CFA_XSP16, literal(-9)))
        CFI (cfiCond9) V0 load(1, XDATA, add(CFA_XSP16, literal(-8)))
        CFI (cfiCond9) V1 load(1, XDATA, add(CFA_XSP16, literal(-7)))
        CFI (cfiCond9) R7 load(1, XDATA, add(CFA_XSP16, literal(-6)))
        CFI (cfiCond9) ?RET_LOW load(1, XDATA, add(CFA_XSP16, literal(-5)))
        CFI (cfiCond9) ?RET_HIGH load(1, XDATA, add(CFA_XSP16, literal(-4)))
        CFI (cfiCond9) ?BRET_EXT load(1, XDATA, add(CFA_XSP16, literal(-3)))
        CFI (cfiCond9) DPL0 load(1, XDATA, add(CFA_XSP16, literal(-2)))
        CFI (cfiCond9) DPH0 load(1, XDATA, add(CFA_XSP16, literal(-1)))
        CFI (cfiCond9) CFA_SP SP+0
        CFI (cfiCond9) CFA_XSP16 add(XSP16, 10)
        CFI Block cfiPicker10 Using cfiCommon1
        CFI (cfiPicker10) NoFunction
        CFI (cfiPicker10) Picker
        MUL     AB
        ADD     A,R2
        MOV     R1,A
        MOV     A,#funcList & 0xff
        ADD     A,R0
        RET
        CFI EndBlock cfiCond6
        CFI EndBlock cfiCond7
        CFI EndBlock cfiCond8
        CFI EndBlock cfiCond9
        CFI EndBlock cfiPicker10

        RSEG BANKED_CODE:CODE:NOROOT(0)
?Subroutine13:
        CFI Block cfiCond11 Using cfiCommon0
        CFI NoFunction
        CFI Conditional ??CrossCallReturnLabel_12
        CFI R6 load(1, XDATA, add(CFA_XSP16, literal(-10)))
        CFI VB load(1, XDATA, add(CFA_XSP16, literal(-9)))
        CFI V0 load(1, XDATA, add(CFA_XSP16, literal(-8)))
        CFI V1 load(1, XDATA, add(CFA_XSP16, literal(-7)))
        CFI R7 load(1, XDATA, add(CFA_XSP16, literal(-6)))
        CFI ?RET_LOW load(1, XDATA, add(CFA_XSP16, literal(-5)))
        CFI ?RET_HIGH load(1, XDATA, add(CFA_XSP16, literal(-4)))
        CFI ?BRET_EXT load(1, XDATA, add(CFA_XSP16, literal(-3)))
        CFI DPL0 load(1, XDATA, add(CFA_XSP16, literal(-2)))
        CFI DPH0 load(1, XDATA, add(CFA_XSP16, literal(-1)))
        CFI CFA_SP SP+-1
        CFI CFA_XSP16 add(XSP16, 10)
        CFI Block cfiCond12 Using cfiCommon0
        CFI (cfiCond12) NoFunction
        CFI (cfiCond12) Conditional ??CrossCallReturnLabel_13
        CFI (cfiCond12) R6 load(1, XDATA, add(CFA_XSP16, literal(-10)))
        CFI (cfiCond12) VB load(1, XDATA, add(CFA_XSP16, literal(-9)))
        CFI (cfiCond12) V0 load(1, XDATA, add(CFA_XSP16, literal(-8)))
        CFI (cfiCond12) V1 load(1, XDATA, add(CFA_XSP16, literal(-7)))
        CFI (cfiCond12) R7 load(1, XDATA, add(CFA_XSP16, literal(-6)))
        CFI (cfiCond12) ?RET_LOW load(1, XDATA, add(CFA_XSP16, literal(-5)))
        CFI (cfiCond12) ?RET_HIGH load(1, XDATA, add(CFA_XSP16, literal(-4)))
        CFI (cfiCond12) ?BRET_EXT load(1, XDATA, add(CFA_XSP16, literal(-3)))
        CFI (cfiCond12) DPL0 load(1, XDATA, add(CFA_XSP16, literal(-2)))
        CFI (cfiCond12) DPH0 load(1, XDATA, add(CFA_XSP16, literal(-1)))
        CFI (cfiCond12) CFA_SP SP+-1
        CFI (cfiCond12) CFA_XSP16 add(XSP16, 10)
        CFI Block cfiPicker13 Using cfiCommon1
        CFI (cfiPicker13) NoFunction
        CFI (cfiPicker13) Picker
        MOV     DPTR,#funcTableBuffer
        MOVX    A,@DPTR
        ADD     A,R0
        MOV     R4,A
        INC     DPTR
        MOVX    A,@DPTR
        ADDC    A,R1
        MOV     DPL,R4
        MOV     DPH,A
        INC     DPTR
        INC     DPTR
        RET
        CFI EndBlock cfiCond11
        CFI EndBlock cfiCond12
        CFI EndBlock cfiPicker13

        RSEG XDATA_I:XDATA:NOROOT(0)
??commonClusterId:
        DATA16
        DS 2
        REQUIRE `?<Initializer for commonClusterId>`
        REQUIRE __INIT_XDATA_I

        RSEG BANKED_CODE:CODE:NOROOT(0)
?Subroutine6:
        CFI Block cfiCond14 Using cfiCommon0
        CFI NoFunction
        CFI Conditional ??CrossCallReturnLabel_61
        CFI R6 load(1, XDATA, add(CFA_XSP16, literal(-16)))
        CFI VB load(1, XDATA, add(CFA_XSP16, literal(-15)))
        CFI V0 load(1, XDATA, add(CFA_XSP16, literal(-14)))
        CFI V1 load(1, XDATA, add(CFA_XSP16, literal(-13)))
        CFI V2 load(1, XDATA, add(CFA_XSP16, literal(-12)))
        CFI V3 load(1, XDATA, add(CFA_XSP16, literal(-11)))
        CFI V4 load(1, XDATA, add(CFA_XSP16, literal(-10)))
        CFI V5 load(1, XDATA, add(CFA_XSP16, literal(-9)))
        CFI V6 load(1, XDATA, add(CFA_XSP16, literal(-8)))
        CFI V7 load(1, XDATA, add(CFA_XSP16, literal(-7)))
        CFI R7 load(1, XDATA, add(CFA_XSP16, literal(-6)))
        CFI ?RET_LOW load(1, XDATA, add(CFA_XSP16, literal(-5)))
        CFI ?RET_HIGH load(1, XDATA, add(CFA_XSP16, literal(-4)))
        CFI ?BRET_EXT load(1, XDATA, add(CFA_XSP16, literal(-3)))
        CFI DPL0 load(1, XDATA, add(CFA_XSP16, literal(-2)))
        CFI DPH0 load(1, XDATA, add(CFA_XSP16, literal(-1)))
        CFI CFA_SP SP+0
        CFI CFA_XSP16 add(XSP16, 19)
        CFI Block cfiCond15 Using cfiCommon0
        CFI (cfiCond15) NoFunction
        CFI (cfiCond15) Conditional ??CrossCallReturnLabel_62
        CFI (cfiCond15) R6 load(1, XDATA, add(CFA_XSP16, literal(-16)))
        CFI (cfiCond15) VB load(1, XDATA, add(CFA_XSP16, literal(-15)))
        CFI (cfiCond15) V0 load(1, XDATA, add(CFA_XSP16, literal(-14)))
        CFI (cfiCond15) V1 load(1, XDATA, add(CFA_XSP16, literal(-13)))
        CFI (cfiCond15) V2 load(1, XDATA, add(CFA_XSP16, literal(-12)))
        CFI (cfiCond15) V3 load(1, XDATA, add(CFA_XSP16, literal(-11)))
        CFI (cfiCond15) V4 load(1, XDATA, add(CFA_XSP16, literal(-10)))
        CFI (cfiCond15) V5 load(1, XDATA, add(CFA_XSP16, literal(-9)))
        CFI (cfiCond15) V6 load(1, XDATA, add(CFA_XSP16, literal(-8)))
        CFI (cfiCond15) V7 load(1, XDATA, add(CFA_XSP16, literal(-7)))
        CFI (cfiCond15) R7 load(1, XDATA, add(CFA_XSP16, literal(-6)))
        CFI (cfiCond15) ?RET_LOW load(1, XDATA, add(CFA_XSP16, literal(-5)))
        CFI (cfiCond15) ?RET_HIGH load(1, XDATA, add(CFA_XSP16, literal(-4)))
        CFI (cfiCond15) ?BRET_EXT load(1, XDATA, add(CFA_XSP16, literal(-3)))
        CFI (cfiCond15) DPL0 load(1, XDATA, add(CFA_XSP16, literal(-2)))
        CFI (cfiCond15) DPH0 load(1, XDATA, add(CFA_XSP16, literal(-1)))
        CFI (cfiCond15) CFA_SP SP+0
        CFI (cfiCond15) CFA_XSP16 add(XSP16, 19)
        CFI Block cfiCond16 Using cfiCommon0
        CFI (cfiCond16) NoFunction
        CFI (cfiCond16) Conditional ??CrossCallReturnLabel_63
        CFI (cfiCond16) R6 load(1, XDATA, add(CFA_XSP16, literal(-9)))
        CFI (cfiCond16) VB load(1, XDATA, add(CFA_XSP16, literal(-8)))
        CFI (cfiCond16) V0 load(1, XDATA, add(CFA_XSP16, literal(-7)))
        CFI (cfiCond16) R7 load(1, XDATA, add(CFA_XSP16, literal(-6)))
        CFI (cfiCond16) ?RET_LOW load(1, XDATA, add(CFA_XSP16, literal(-5)))
        CFI (cfiCond16) ?RET_HIGH load(1, XDATA, add(CFA_XSP16, literal(-4)))
        CFI (cfiCond16) ?BRET_EXT load(1, XDATA, add(CFA_XSP16, literal(-3)))
        CFI (cfiCond16) DPL0 load(1, XDATA, add(CFA_XSP16, literal(-2)))
        CFI (cfiCond16) DPH0 load(1, XDATA, add(CFA_XSP16, literal(-1)))
        CFI (cfiCond16) CFA_SP SP+0
        CFI (cfiCond16) CFA_XSP16 add(XSP16, 9)
        CFI Block cfiPicker17 Using cfiCommon1
        CFI (cfiPicker17) NoFunction
        CFI (cfiPicker17) Picker
        MOV     DPL,R2
        MOV     DPH,R3
        CFI EndBlock cfiCond14
        CFI EndBlock cfiCond15
        CFI EndBlock cfiCond16
        CFI EndBlock cfiPicker17
        REQUIRE ??Subroutine37_0
        ; // Fall through to label ??Subroutine37_0

        RSEG BANKED_CODE:CODE:NOROOT(0)
??Subroutine37_0:
        CFI Block cfiCond18 Using cfiCommon0
        CFI NoFunction
        CFI Conditional ??CrossCallReturnLabel_60
        CFI R6 load(1, XDATA, add(CFA_XSP16, literal(-10)))
        CFI VB load(1, XDATA, add(CFA_XSP16, literal(-9)))
        CFI V0 load(1, XDATA, add(CFA_XSP16, literal(-8)))
        CFI V1 load(1, XDATA, add(CFA_XSP16, literal(-7)))
        CFI R7 load(1, XDATA, add(CFA_XSP16, literal(-6)))
        CFI ?RET_LOW load(1, XDATA, add(CFA_XSP16, literal(-5)))
        CFI ?RET_HIGH load(1, XDATA, add(CFA_XSP16, literal(-4)))
        CFI ?BRET_EXT load(1, XDATA, add(CFA_XSP16, literal(-3)))
        CFI DPL0 load(1, XDATA, add(CFA_XSP16, literal(-2)))
        CFI DPH0 load(1, XDATA, add(CFA_XSP16, literal(-1)))
        CFI CFA_SP SP+0
        CFI CFA_XSP16 add(XSP16, 10)
        CFI Block cfiCond19 Using cfiCommon0
        CFI (cfiCond19) NoFunction
        CFI (cfiCond19) Conditional ??CrossCallReturnLabel_61
        CFI (cfiCond19) R6 load(1, XDATA, add(CFA_XSP16, literal(-16)))
        CFI (cfiCond19) VB load(1, XDATA, add(CFA_XSP16, literal(-15)))
        CFI (cfiCond19) V0 load(1, XDATA, add(CFA_XSP16, literal(-14)))
        CFI (cfiCond19) V1 load(1, XDATA, add(CFA_XSP16, literal(-13)))
        CFI (cfiCond19) V2 load(1, XDATA, add(CFA_XSP16, literal(-12)))
        CFI (cfiCond19) V3 load(1, XDATA, add(CFA_XSP16, literal(-11)))
        CFI (cfiCond19) V4 load(1, XDATA, add(CFA_XSP16, literal(-10)))
        CFI (cfiCond19) V5 load(1, XDATA, add(CFA_XSP16, literal(-9)))
        CFI (cfiCond19) V6 load(1, XDATA, add(CFA_XSP16, literal(-8)))
        CFI (cfiCond19) V7 load(1, XDATA, add(CFA_XSP16, literal(-7)))
        CFI (cfiCond19) R7 load(1, XDATA, add(CFA_XSP16, literal(-6)))
        CFI (cfiCond19) ?RET_LOW load(1, XDATA, add(CFA_XSP16, literal(-5)))
        CFI (cfiCond19) ?RET_HIGH load(1, XDATA, add(CFA_XSP16, literal(-4)))
        CFI (cfiCond19) ?BRET_EXT load(1, XDATA, add(CFA_XSP16, literal(-3)))
        CFI (cfiCond19) DPL0 load(1, XDATA, add(CFA_XSP16, literal(-2)))
        CFI (cfiCond19) DPH0 load(1, XDATA, add(CFA_XSP16, literal(-1)))
        CFI (cfiCond19) CFA_SP SP+0
        CFI (cfiCond19) CFA_XSP16 add(XSP16, 19)
        CFI Block cfiCond20 Using cfiCommon0
        CFI (cfiCond20) NoFunction
        CFI (cfiCond20) Conditional ??CrossCallReturnLabel_62
        CFI (cfiCond20) R6 load(1, XDATA, add(CFA_XSP16, literal(-16)))
        CFI (cfiCond20) VB load(1, XDATA, add(CFA_XSP16, literal(-15)))
        CFI (cfiCond20) V0 load(1, XDATA, add(CFA_XSP16, literal(-14)))
        CFI (cfiCond20) V1 load(1, XDATA, add(CFA_XSP16, literal(-13)))
        CFI (cfiCond20) V2 load(1, XDATA, add(CFA_XSP16, literal(-12)))
        CFI (cfiCond20) V3 load(1, XDATA, add(CFA_XSP16, literal(-11)))
        CFI (cfiCond20) V4 load(1, XDATA, add(CFA_XSP16, literal(-10)))
        CFI (cfiCond20) V5 load(1, XDATA, add(CFA_XSP16, literal(-9)))
        CFI (cfiCond20) V6 load(1, XDATA, add(CFA_XSP16, literal(-8)))
        CFI (cfiCond20) V7 load(1, XDATA, add(CFA_XSP16, literal(-7)))
        CFI (cfiCond20) R7 load(1, XDATA, add(CFA_XSP16, literal(-6)))
        CFI (cfiCond20) ?RET_LOW load(1, XDATA, add(CFA_XSP16, literal(-5)))
        CFI (cfiCond20) ?RET_HIGH load(1, XDATA, add(CFA_XSP16, literal(-4)))
        CFI (cfiCond20) ?BRET_EXT load(1, XDATA, add(CFA_XSP16, literal(-3)))
        CFI (cfiCond20) DPL0 load(1, XDATA, add(CFA_XSP16, literal(-2)))
        CFI (cfiCond20) DPH0 load(1, XDATA, add(CFA_XSP16, literal(-1)))
        CFI (cfiCond20) CFA_SP SP+0
        CFI (cfiCond20) CFA_XSP16 add(XSP16, 19)
        CFI Block cfiCond21 Using cfiCommon0
        CFI (cfiCond21) NoFunction
        CFI (cfiCond21) Conditional ??CrossCallReturnLabel_63
        CFI (cfiCond21) R6 load(1, XDATA, add(CFA_XSP16, literal(-9)))
        CFI (cfiCond21) VB load(1, XDATA, add(CFA_XSP16, literal(-8)))
        CFI (cfiCond21) V0 load(1, XDATA, add(CFA_XSP16, literal(-7)))
        CFI (cfiCond21) R7 load(1, XDATA, add(CFA_XSP16, literal(-6)))
        CFI (cfiCond21) ?RET_LOW load(1, XDATA, add(CFA_XSP16, literal(-5)))
        CFI (cfiCond21) ?RET_HIGH load(1, XDATA, add(CFA_XSP16, literal(-4)))
        CFI (cfiCond21) ?BRET_EXT load(1, XDATA, add(CFA_XSP16, literal(-3)))
        CFI (cfiCond21) DPL0 load(1, XDATA, add(CFA_XSP16, literal(-2)))
        CFI (cfiCond21) DPH0 load(1, XDATA, add(CFA_XSP16, literal(-1)))
        CFI (cfiCond21) CFA_SP SP+0
        CFI (cfiCond21) CFA_XSP16 add(XSP16, 9)
        CFI Block cfiPicker22 Using cfiCommon1
        CFI (cfiPicker22) NoFunction
        CFI (cfiPicker22) Picker
        INC     DPTR
        INC     DPTR
        CFI EndBlock cfiCond18
        CFI EndBlock cfiCond19
        CFI EndBlock cfiCond20
        CFI EndBlock cfiCond21
        CFI EndBlock cfiPicker22
        REQUIRE ??Subroutine38_0
        ; // Fall through to label ??Subroutine38_0

        RSEG BANKED_CODE:CODE:NOROOT(0)
??Subroutine38_0:
        CFI Block cfiCond23 Using cfiCommon0
        CFI NoFunction
        CFI Conditional ??CrossCallReturnLabel_58
        CFI R6 load(1, XDATA, add(CFA_XSP16, literal(-18)))
        CFI VB load(1, XDATA, add(CFA_XSP16, literal(-17)))
        CFI V0 load(1, XDATA, add(CFA_XSP16, literal(-16)))
        CFI V1 load(1, XDATA, add(CFA_XSP16, literal(-15)))
        CFI V2 load(1, XDATA, add(CFA_XSP16, literal(-14)))
        CFI V3 load(1, XDATA, add(CFA_XSP16, literal(-13)))
        CFI V4 load(1, XDATA, add(CFA_XSP16, literal(-12)))
        CFI V5 load(1, XDATA, add(CFA_XSP16, literal(-11)))
        CFI V6 load(1, XDATA, add(CFA_XSP16, literal(-10)))
        CFI V7 load(1, XDATA, add(CFA_XSP16, literal(-9)))
        CFI V8 load(1, XDATA, add(CFA_XSP16, literal(-8)))
        CFI V9 load(1, XDATA, add(CFA_XSP16, literal(-7)))
        CFI R7 load(1, XDATA, add(CFA_XSP16, literal(-6)))
        CFI ?RET_LOW load(1, XDATA, add(CFA_XSP16, literal(-5)))
        CFI ?RET_HIGH load(1, XDATA, add(CFA_XSP16, literal(-4)))
        CFI ?BRET_EXT load(1, XDATA, add(CFA_XSP16, literal(-3)))
        CFI DPL0 load(1, XDATA, add(CFA_XSP16, literal(-2)))
        CFI DPH0 load(1, XDATA, add(CFA_XSP16, literal(-1)))
        CFI CFA_SP SP+0
        CFI CFA_XSP16 add(XSP16, 18)
        CFI Block cfiCond24 Using cfiCommon0
        CFI (cfiCond24) NoFunction
        CFI (cfiCond24) Conditional ??CrossCallReturnLabel_59
        CFI (cfiCond24) R6 load(1, XDATA, add(CFA_XSP16, literal(-18)))
        CFI (cfiCond24) VB load(1, XDATA, add(CFA_XSP16, literal(-17)))
        CFI (cfiCond24) V0 load(1, XDATA, add(CFA_XSP16, literal(-16)))
        CFI (cfiCond24) V1 load(1, XDATA, add(CFA_XSP16, literal(-15)))
        CFI (cfiCond24) V2 load(1, XDATA, add(CFA_XSP16, literal(-14)))
        CFI (cfiCond24) V3 load(1, XDATA, add(CFA_XSP16, literal(-13)))
        CFI (cfiCond24) V4 load(1, XDATA, add(CFA_XSP16, literal(-12)))
        CFI (cfiCond24) V5 load(1, XDATA, add(CFA_XSP16, literal(-11)))
        CFI (cfiCond24) V6 load(1, XDATA, add(CFA_XSP16, literal(-10)))
        CFI (cfiCond24) V7 load(1, XDATA, add(CFA_XSP16, literal(-9)))
        CFI (cfiCond24) V8 load(1, XDATA, add(CFA_XSP16, literal(-8)))
        CFI (cfiCond24) V9 load(1, XDATA, add(CFA_XSP16, literal(-7)))
        CFI (cfiCond24) R7 load(1, XDATA, add(CFA_XSP16, literal(-6)))
        CFI (cfiCond24) ?RET_LOW load(1, XDATA, add(CFA_XSP16, literal(-5)))
        CFI (cfiCond24) ?RET_HIGH load(1, XDATA, add(CFA_XSP16, literal(-4)))
        CFI (cfiCond24) ?BRET_EXT load(1, XDATA, add(CFA_XSP16, literal(-3)))
        CFI (cfiCond24) DPL0 load(1, XDATA, add(CFA_XSP16, literal(-2)))
        CFI (cfiCond24) DPH0 load(1, XDATA, add(CFA_XSP16, literal(-1)))
        CFI (cfiCond24) CFA_SP SP+0
        CFI (cfiCond24) CFA_XSP16 add(XSP16, 18)
        CFI Block cfiCond25 Using cfiCommon0
        CFI (cfiCond25) NoFunction
        CFI (cfiCond25) Conditional ??CrossCallReturnLabel_60
        CFI (cfiCond25) R6 load(1, XDATA, add(CFA_XSP16, literal(-10)))
        CFI (cfiCond25) VB load(1, XDATA, add(CFA_XSP16, literal(-9)))
        CFI (cfiCond25) V0 load(1, XDATA, add(CFA_XSP16, literal(-8)))
        CFI (cfiCond25) V1 load(1, XDATA, add(CFA_XSP16, literal(-7)))
        CFI (cfiCond25) R7 load(1, XDATA, add(CFA_XSP16, literal(-6)))
        CFI (cfiCond25) ?RET_LOW load(1, XDATA, add(CFA_XSP16, literal(-5)))
        CFI (cfiCond25) ?RET_HIGH load(1, XDATA, add(CFA_XSP16, literal(-4)))
        CFI (cfiCond25) ?BRET_EXT load(1, XDATA, add(CFA_XSP16, literal(-3)))
        CFI (cfiCond25) DPL0 load(1, XDATA, add(CFA_XSP16, literal(-2)))
        CFI (cfiCond25) DPH0 load(1, XDATA, add(CFA_XSP16, literal(-1)))
        CFI (cfiCond25) CFA_SP SP+0
        CFI (cfiCond25) CFA_XSP16 add(XSP16, 10)
        CFI Block cfiCond26 Using cfiCommon0
        CFI (cfiCond26) NoFunction
        CFI (cfiCond26) Conditional ??CrossCallReturnLabel_61
        CFI (cfiCond26) R6 load(1, XDATA, add(CFA_XSP16, literal(-16)))
        CFI (cfiCond26) VB load(1, XDATA, add(CFA_XSP16, literal(-15)))
        CFI (cfiCond26) V0 load(1, XDATA, add(CFA_XSP16, literal(-14)))
        CFI (cfiCond26) V1 load(1, XDATA, add(CFA_XSP16, literal(-13)))
        CFI (cfiCond26) V2 load(1, XDATA, add(CFA_XSP16, literal(-12)))
        CFI (cfiCond26) V3 load(1, XDATA, add(CFA_XSP16, literal(-11)))
        CFI (cfiCond26) V4 load(1, XDATA, add(CFA_XSP16, literal(-10)))
        CFI (cfiCond26) V5 load(1, XDATA, add(CFA_XSP16, literal(-9)))
        CFI (cfiCond26) V6 load(1, XDATA, add(CFA_XSP16, literal(-8)))
        CFI (cfiCond26) V7 load(1, XDATA, add(CFA_XSP16, literal(-7)))
        CFI (cfiCond26) R7 load(1, XDATA, add(CFA_XSP16, literal(-6)))
        CFI (cfiCond26) ?RET_LOW load(1, XDATA, add(CFA_XSP16, literal(-5)))
        CFI (cfiCond26) ?RET_HIGH load(1, XDATA, add(CFA_XSP16, literal(-4)))
        CFI (cfiCond26) ?BRET_EXT load(1, XDATA, add(CFA_XSP16, literal(-3)))
        CFI (cfiCond26) DPL0 load(1, XDATA, add(CFA_XSP16, literal(-2)))
        CFI (cfiCond26) DPH0 load(1, XDATA, add(CFA_XSP16, literal(-1)))
        CFI (cfiCond26) CFA_SP SP+0
        CFI (cfiCond26) CFA_XSP16 add(XSP16, 19)
        CFI Block cfiCond27 Using cfiCommon0
        CFI (cfiCond27) NoFunction
        CFI (cfiCond27) Conditional ??CrossCallReturnLabel_62
        CFI (cfiCond27) R6 load(1, XDATA, add(CFA_XSP16, literal(-16)))
        CFI (cfiCond27) VB load(1, XDATA, add(CFA_XSP16, literal(-15)))
        CFI (cfiCond27) V0 load(1, XDATA, add(CFA_XSP16, literal(-14)))
        CFI (cfiCond27) V1 load(1, XDATA, add(CFA_XSP16, literal(-13)))
        CFI (cfiCond27) V2 load(1, XDATA, add(CFA_XSP16, literal(-12)))
        CFI (cfiCond27) V3 load(1, XDATA, add(CFA_XSP16, literal(-11)))
        CFI (cfiCond27) V4 load(1, XDATA, add(CFA_XSP16, literal(-10)))
        CFI (cfiCond27) V5 load(1, XDATA, add(CFA_XSP16, literal(-9)))
        CFI (cfiCond27) V6 load(1, XDATA, add(CFA_XSP16, literal(-8)))
        CFI (cfiCond27) V7 load(1, XDATA, add(CFA_XSP16, literal(-7)))
        CFI (cfiCond27) R7 load(1, XDATA, add(CFA_XSP16, literal(-6)))
        CFI (cfiCond27) ?RET_LOW load(1, XDATA, add(CFA_XSP16, literal(-5)))
        CFI (cfiCond27) ?RET_HIGH load(1, XDATA, add(CFA_XSP16, literal(-4)))
        CFI (cfiCond27) ?BRET_EXT load(1, XDATA, add(CFA_XSP16, literal(-3)))
        CFI (cfiCond27) DPL0 load(1, XDATA, add(CFA_XSP16, literal(-2)))
        CFI (cfiCond27) DPH0 load(1, XDATA, add(CFA_XSP16, literal(-1)))
        CFI (cfiCond27) CFA_SP SP+0
        CFI (cfiCond27) CFA_XSP16 add(XSP16, 19)
        CFI Block cfiCond28 Using cfiCommon0
        CFI (cfiCond28) NoFunction
        CFI (cfiCond28) Conditional ??CrossCallReturnLabel_63
        CFI (cfiCond28) R6 load(1, XDATA, add(CFA_XSP16, literal(-9)))
        CFI (cfiCond28) VB load(1, XDATA, add(CFA_XSP16, literal(-8)))
        CFI (cfiCond28) V0 load(1, XDATA, add(CFA_XSP16, literal(-7)))
        CFI (cfiCond28) R7 load(1, XDATA, add(CFA_XSP16, literal(-6)))
        CFI (cfiCond28) ?RET_LOW load(1, XDATA, add(CFA_XSP16, literal(-5)))
        CFI (cfiCond28) ?RET_HIGH load(1, XDATA, add(CFA_XSP16, literal(-4)))
        CFI (cfiCond28) ?BRET_EXT load(1, XDATA, add(CFA_XSP16, literal(-3)))
        CFI (cfiCond28) DPL0 load(1, XDATA, add(CFA_XSP16, literal(-2)))
        CFI (cfiCond28) DPH0 load(1, XDATA, add(CFA_XSP16, literal(-1)))
        CFI (cfiCond28) CFA_SP SP+0
        CFI (cfiCond28) CFA_XSP16 add(XSP16, 9)
        CFI Block cfiPicker29 Using cfiCommon1
        CFI (cfiPicker29) NoFunction
        CFI (cfiPicker29) Picker
        INC     DPTR
        INC     DPTR
        CFI EndBlock cfiCond23
        CFI EndBlock cfiCond24
        CFI EndBlock cfiCond25
        CFI EndBlock cfiCond26
        CFI EndBlock cfiCond27
        CFI EndBlock cfiCond28
        CFI EndBlock cfiPicker29
        REQUIRE ??Subroutine39_0
        ; // Fall through to label ??Subroutine39_0

        RSEG BANKED_CODE:CODE:NOROOT(0)
??Subroutine39_0:
        CFI Block cfiCond30 Using cfiCommon0
        CFI NoFunction
        CFI Conditional ??CrossCallReturnLabel_57
        CFI R6 load(1, XDATA, add(CFA_XSP16, literal(-11)))
        CFI VB load(1, XDATA, add(CFA_XSP16, literal(-10)))
        CFI V0 load(1, XDATA, add(CFA_XSP16, literal(-9)))
        CFI V1 load(1, XDATA, add(CFA_XSP16, literal(-8)))
        CFI V2 load(1, XDATA, add(CFA_XSP16, literal(-7)))
        CFI R7 load(1, XDATA, add(CFA_XSP16, literal(-6)))
        CFI ?RET_LOW load(1, XDATA, add(CFA_XSP16, literal(-5)))
        CFI ?RET_HIGH load(1, XDATA, add(CFA_XSP16, literal(-4)))
        CFI ?BRET_EXT load(1, XDATA, add(CFA_XSP16, literal(-3)))
        CFI DPL0 load(1, XDATA, add(CFA_XSP16, literal(-2)))
        CFI DPH0 load(1, XDATA, add(CFA_XSP16, literal(-1)))
        CFI CFA_SP SP+0
        CFI CFA_XSP16 add(XSP16, 14)
        CFI Block cfiCond31 Using cfiCommon0
        CFI (cfiCond31) NoFunction
        CFI (cfiCond31) Conditional ??CrossCallReturnLabel_58
        CFI (cfiCond31) R6 load(1, XDATA, add(CFA_XSP16, literal(-18)))
        CFI (cfiCond31) VB load(1, XDATA, add(CFA_XSP16, literal(-17)))
        CFI (cfiCond31) V0 load(1, XDATA, add(CFA_XSP16, literal(-16)))
        CFI (cfiCond31) V1 load(1, XDATA, add(CFA_XSP16, literal(-15)))
        CFI (cfiCond31) V2 load(1, XDATA, add(CFA_XSP16, literal(-14)))
        CFI (cfiCond31) V3 load(1, XDATA, add(CFA_XSP16, literal(-13)))
        CFI (cfiCond31) V4 load(1, XDATA, add(CFA_XSP16, literal(-12)))
        CFI (cfiCond31) V5 load(1, XDATA, add(CFA_XSP16, literal(-11)))
        CFI (cfiCond31) V6 load(1, XDATA, add(CFA_XSP16, literal(-10)))
        CFI (cfiCond31) V7 load(1, XDATA, add(CFA_XSP16, literal(-9)))
        CFI (cfiCond31) V8 load(1, XDATA, add(CFA_XSP16, literal(-8)))
        CFI (cfiCond31) V9 load(1, XDATA, add(CFA_XSP16, literal(-7)))
        CFI (cfiCond31) R7 load(1, XDATA, add(CFA_XSP16, literal(-6)))
        CFI (cfiCond31) ?RET_LOW load(1, XDATA, add(CFA_XSP16, literal(-5)))
        CFI (cfiCond31) ?RET_HIGH load(1, XDATA, add(CFA_XSP16, literal(-4)))
        CFI (cfiCond31) ?BRET_EXT load(1, XDATA, add(CFA_XSP16, literal(-3)))
        CFI (cfiCond31) DPL0 load(1, XDATA, add(CFA_XSP16, literal(-2)))
        CFI (cfiCond31) DPH0 load(1, XDATA, add(CFA_XSP16, literal(-1)))
        CFI (cfiCond31) CFA_SP SP+0
        CFI (cfiCond31) CFA_XSP16 add(XSP16, 18)
        CFI Block cfiCond32 Using cfiCommon0
        CFI (cfiCond32) NoFunction
        CFI (cfiCond32) Conditional ??CrossCallReturnLabel_59
        CFI (cfiCond32) R6 load(1, XDATA, add(CFA_XSP16, literal(-18)))
        CFI (cfiCond32) VB load(1, XDATA, add(CFA_XSP16, literal(-17)))
        CFI (cfiCond32) V0 load(1, XDATA, add(CFA_XSP16, literal(-16)))
        CFI (cfiCond32) V1 load(1, XDATA, add(CFA_XSP16, literal(-15)))
        CFI (cfiCond32) V2 load(1, XDATA, add(CFA_XSP16, literal(-14)))
        CFI (cfiCond32) V3 load(1, XDATA, add(CFA_XSP16, literal(-13)))
        CFI (cfiCond32) V4 load(1, XDATA, add(CFA_XSP16, literal(-12)))
        CFI (cfiCond32) V5 load(1, XDATA, add(CFA_XSP16, literal(-11)))
        CFI (cfiCond32) V6 load(1, XDATA, add(CFA_XSP16, literal(-10)))
        CFI (cfiCond32) V7 load(1, XDATA, add(CFA_XSP16, literal(-9)))
        CFI (cfiCond32) V8 load(1, XDATA, add(CFA_XSP16, literal(-8)))
        CFI (cfiCond32) V9 load(1, XDATA, add(CFA_XSP16, literal(-7)))
        CFI (cfiCond32) R7 load(1, XDATA, add(CFA_XSP16, literal(-6)))
        CFI (cfiCond32) ?RET_LOW load(1, XDATA, add(CFA_XSP16, literal(-5)))
        CFI (cfiCond32) ?RET_HIGH load(1, XDATA, add(CFA_XSP16, literal(-4)))
        CFI (cfiCond32) ?BRET_EXT load(1, XDATA, add(CFA_XSP16, literal(-3)))
        CFI (cfiCond32) DPL0 load(1, XDATA, add(CFA_XSP16, literal(-2)))
        CFI (cfiCond32) DPH0 load(1, XDATA, add(CFA_XSP16, literal(-1)))
        CFI (cfiCond32) CFA_SP SP+0
        CFI (cfiCond32) CFA_XSP16 add(XSP16, 18)
        CFI Block cfiCond33 Using cfiCommon0
        CFI (cfiCond33) NoFunction
        CFI (cfiCond33) Conditional ??CrossCallReturnLabel_60
        CFI (cfiCond33) R6 load(1, XDATA, add(CFA_XSP16, literal(-10)))
        CFI (cfiCond33) VB load(1, XDATA, add(CFA_XSP16, literal(-9)))
        CFI (cfiCond33) V0 load(1, XDATA, add(CFA_XSP16, literal(-8)))
        CFI (cfiCond33) V1 load(1, XDATA, add(CFA_XSP16, literal(-7)))
        CFI (cfiCond33) R7 load(1, XDATA, add(CFA_XSP16, literal(-6)))
        CFI (cfiCond33) ?RET_LOW load(1, XDATA, add(CFA_XSP16, literal(-5)))
        CFI (cfiCond33) ?RET_HIGH load(1, XDATA, add(CFA_XSP16, literal(-4)))
        CFI (cfiCond33) ?BRET_EXT load(1, XDATA, add(CFA_XSP16, literal(-3)))
        CFI (cfiCond33) DPL0 load(1, XDATA, add(CFA_XSP16, literal(-2)))
        CFI (cfiCond33) DPH0 load(1, XDATA, add(CFA_XSP16, literal(-1)))
        CFI (cfiCond33) CFA_SP SP+0
        CFI (cfiCond33) CFA_XSP16 add(XSP16, 10)
        CFI Block cfiCond34 Using cfiCommon0
        CFI (cfiCond34) NoFunction
        CFI (cfiCond34) Conditional ??CrossCallReturnLabel_61
        CFI (cfiCond34) R6 load(1, XDATA, add(CFA_XSP16, literal(-16)))
        CFI (cfiCond34) VB load(1, XDATA, add(CFA_XSP16, literal(-15)))
        CFI (cfiCond34) V0 load(1, XDATA, add(CFA_XSP16, literal(-14)))
        CFI (cfiCond34) V1 load(1, XDATA, add(CFA_XSP16, literal(-13)))
        CFI (cfiCond34) V2 load(1, XDATA, add(CFA_XSP16, literal(-12)))
        CFI (cfiCond34) V3 load(1, XDATA, add(CFA_XSP16, literal(-11)))
        CFI (cfiCond34) V4 load(1, XDATA, add(CFA_XSP16, literal(-10)))
        CFI (cfiCond34) V5 load(1, XDATA, add(CFA_XSP16, literal(-9)))
        CFI (cfiCond34) V6 load(1, XDATA, add(CFA_XSP16, literal(-8)))
        CFI (cfiCond34) V7 load(1, XDATA, add(CFA_XSP16, literal(-7)))
        CFI (cfiCond34) R7 load(1, XDATA, add(CFA_XSP16, literal(-6)))
        CFI (cfiCond34) ?RET_LOW load(1, XDATA, add(CFA_XSP16, literal(-5)))
        CFI (cfiCond34) ?RET_HIGH load(1, XDATA, add(CFA_XSP16, literal(-4)))
        CFI (cfiCond34) ?BRET_EXT load(1, XDATA, add(CFA_XSP16, literal(-3)))
        CFI (cfiCond34) DPL0 load(1, XDATA, add(CFA_XSP16, literal(-2)))
        CFI (cfiCond34) DPH0 load(1, XDATA, add(CFA_XSP16, literal(-1)))
        CFI (cfiCond34) CFA_SP SP+0
        CFI (cfiCond34) CFA_XSP16 add(XSP16, 19)
        CFI Block cfiCond35 Using cfiCommon0
        CFI (cfiCond35) NoFunction
        CFI (cfiCond35) Conditional ??CrossCallReturnLabel_62
        CFI (cfiCond35) R6 load(1, XDATA, add(CFA_XSP16, literal(-16)))
        CFI (cfiCond35) VB load(1, XDATA, add(CFA_XSP16, literal(-15)))
        CFI (cfiCond35) V0 load(1, XDATA, add(CFA_XSP16, literal(-14)))
        CFI (cfiCond35) V1 load(1, XDATA, add(CFA_XSP16, literal(-13)))
        CFI (cfiCond35) V2 load(1, XDATA, add(CFA_XSP16, literal(-12)))
        CFI (cfiCond35) V3 load(1, XDATA, add(CFA_XSP16, literal(-11)))
        CFI (cfiCond35) V4 load(1, XDATA, add(CFA_XSP16, literal(-10)))
        CFI (cfiCond35) V5 load(1, XDATA, add(CFA_XSP16, literal(-9)))
        CFI (cfiCond35) V6 load(1, XDATA, add(CFA_XSP16, literal(-8)))
        CFI (cfiCond35) V7 load(1, XDATA, add(CFA_XSP16, literal(-7)))
        CFI (cfiCond35) R7 load(1, XDATA, add(CFA_XSP16, literal(-6)))
        CFI (cfiCond35) ?RET_LOW load(1, XDATA, add(CFA_XSP16, literal(-5)))
        CFI (cfiCond35) ?RET_HIGH load(1, XDATA, add(CFA_XSP16, literal(-4)))
        CFI (cfiCond35) ?BRET_EXT load(1, XDATA, add(CFA_XSP16, literal(-3)))
        CFI (cfiCond35) DPL0 load(1, XDATA, add(CFA_XSP16, literal(-2)))
        CFI (cfiCond35) DPH0 load(1, XDATA, add(CFA_XSP16, literal(-1)))
        CFI (cfiCond35) CFA_SP SP+0
        CFI (cfiCond35) CFA_XSP16 add(XSP16, 19)
        CFI Block cfiCond36 Using cfiCommon0
        CFI (cfiCond36) NoFunction
        CFI (cfiCond36) Conditional ??CrossCallReturnLabel_63
        CFI (cfiCond36) R6 load(1, XDATA, add(CFA_XSP16, literal(-9)))
        CFI (cfiCond36) VB load(1, XDATA, add(CFA_XSP16, literal(-8)))
        CFI (cfiCond36) V0 load(1, XDATA, add(CFA_XSP16, literal(-7)))
        CFI (cfiCond36) R7 load(1, XDATA, add(CFA_XSP16, literal(-6)))
        CFI (cfiCond36) ?RET_LOW load(1, XDATA, add(CFA_XSP16, literal(-5)))
        CFI (cfiCond36) ?RET_HIGH load(1, XDATA, add(CFA_XSP16, literal(-4)))
        CFI (cfiCond36) ?BRET_EXT load(1, XDATA, add(CFA_XSP16, literal(-3)))
        CFI (cfiCond36) DPL0 load(1, XDATA, add(CFA_XSP16, literal(-2)))
        CFI (cfiCond36) DPH0 load(1, XDATA, add(CFA_XSP16, literal(-1)))
        CFI (cfiCond36) CFA_SP SP+0
        CFI (cfiCond36) CFA_XSP16 add(XSP16, 9)
        CFI Block cfiPicker37 Using cfiCommon1
        CFI (cfiPicker37) NoFunction
        CFI (cfiPicker37) Picker
        INC     DPTR
        CFI EndBlock cfiCond30
        CFI EndBlock cfiCond31
        CFI EndBlock cfiCond32
        CFI EndBlock cfiCond33
        CFI EndBlock cfiCond34
        CFI EndBlock cfiCond35
        CFI EndBlock cfiCond36
        CFI EndBlock cfiPicker37
        REQUIRE ??Subroutine40_0
        ; // Fall through to label ??Subroutine40_0

        RSEG BANKED_CODE:CODE:NOROOT(0)
??Subroutine40_0:
        CFI Block cfiCond38 Using cfiCommon0
        CFI NoFunction
        CFI Conditional ??CrossCallReturnLabel_56
        CFI R6 load(1, XDATA, add(CFA_XSP16, literal(-18)))
        CFI VB load(1, XDATA, add(CFA_XSP16, literal(-17)))
        CFI V0 load(1, XDATA, add(CFA_XSP16, literal(-16)))
        CFI V1 load(1, XDATA, add(CFA_XSP16, literal(-15)))
        CFI V2 load(1, XDATA, add(CFA_XSP16, literal(-14)))
        CFI V3 load(1, XDATA, add(CFA_XSP16, literal(-13)))
        CFI V4 load(1, XDATA, add(CFA_XSP16, literal(-12)))
        CFI V5 load(1, XDATA, add(CFA_XSP16, literal(-11)))
        CFI V6 load(1, XDATA, add(CFA_XSP16, literal(-10)))
        CFI V7 load(1, XDATA, add(CFA_XSP16, literal(-9)))
        CFI V8 load(1, XDATA, add(CFA_XSP16, literal(-8)))
        CFI V9 load(1, XDATA, add(CFA_XSP16, literal(-7)))
        CFI R7 load(1, XDATA, add(CFA_XSP16, literal(-6)))
        CFI ?RET_LOW load(1, XDATA, add(CFA_XSP16, literal(-5)))
        CFI ?RET_HIGH load(1, XDATA, add(CFA_XSP16, literal(-4)))
        CFI ?BRET_EXT load(1, XDATA, add(CFA_XSP16, literal(-3)))
        CFI DPL0 load(1, XDATA, add(CFA_XSP16, literal(-2)))
        CFI DPH0 load(1, XDATA, add(CFA_XSP16, literal(-1)))
        CFI CFA_SP SP+0
        CFI CFA_XSP16 add(XSP16, 18)
        CFI Block cfiCond39 Using cfiCommon0
        CFI (cfiCond39) NoFunction
        CFI (cfiCond39) Conditional ??CrossCallReturnLabel_57
        CFI (cfiCond39) R6 load(1, XDATA, add(CFA_XSP16, literal(-11)))
        CFI (cfiCond39) VB load(1, XDATA, add(CFA_XSP16, literal(-10)))
        CFI (cfiCond39) V0 load(1, XDATA, add(CFA_XSP16, literal(-9)))
        CFI (cfiCond39) V1 load(1, XDATA, add(CFA_XSP16, literal(-8)))
        CFI (cfiCond39) V2 load(1, XDATA, add(CFA_XSP16, literal(-7)))
        CFI (cfiCond39) R7 load(1, XDATA, add(CFA_XSP16, literal(-6)))
        CFI (cfiCond39) ?RET_LOW load(1, XDATA, add(CFA_XSP16, literal(-5)))
        CFI (cfiCond39) ?RET_HIGH load(1, XDATA, add(CFA_XSP16, literal(-4)))
        CFI (cfiCond39) ?BRET_EXT load(1, XDATA, add(CFA_XSP16, literal(-3)))
        CFI (cfiCond39) DPL0 load(1, XDATA, add(CFA_XSP16, literal(-2)))
        CFI (cfiCond39) DPH0 load(1, XDATA, add(CFA_XSP16, literal(-1)))
        CFI (cfiCond39) CFA_SP SP+0
        CFI (cfiCond39) CFA_XSP16 add(XSP16, 14)
        CFI Block cfiCond40 Using cfiCommon0
        CFI (cfiCond40) NoFunction
        CFI (cfiCond40) Conditional ??CrossCallReturnLabel_58
        CFI (cfiCond40) R6 load(1, XDATA, add(CFA_XSP16, literal(-18)))
        CFI (cfiCond40) VB load(1, XDATA, add(CFA_XSP16, literal(-17)))
        CFI (cfiCond40) V0 load(1, XDATA, add(CFA_XSP16, literal(-16)))
        CFI (cfiCond40) V1 load(1, XDATA, add(CFA_XSP16, literal(-15)))
        CFI (cfiCond40) V2 load(1, XDATA, add(CFA_XSP16, literal(-14)))
        CFI (cfiCond40) V3 load(1, XDATA, add(CFA_XSP16, literal(-13)))
        CFI (cfiCond40) V4 load(1, XDATA, add(CFA_XSP16, literal(-12)))
        CFI (cfiCond40) V5 load(1, XDATA, add(CFA_XSP16, literal(-11)))
        CFI (cfiCond40) V6 load(1, XDATA, add(CFA_XSP16, literal(-10)))
        CFI (cfiCond40) V7 load(1, XDATA, add(CFA_XSP16, literal(-9)))
        CFI (cfiCond40) V8 load(1, XDATA, add(CFA_XSP16, literal(-8)))
        CFI (cfiCond40) V9 load(1, XDATA, add(CFA_XSP16, literal(-7)))
        CFI (cfiCond40) R7 load(1, XDATA, add(CFA_XSP16, literal(-6)))
        CFI (cfiCond40) ?RET_LOW load(1, XDATA, add(CFA_XSP16, literal(-5)))
        CFI (cfiCond40) ?RET_HIGH load(1, XDATA, add(CFA_XSP16, literal(-4)))
        CFI (cfiCond40) ?BRET_EXT load(1, XDATA, add(CFA_XSP16, literal(-3)))
        CFI (cfiCond40) DPL0 load(1, XDATA, add(CFA_XSP16, literal(-2)))
        CFI (cfiCond40) DPH0 load(1, XDATA, add(CFA_XSP16, literal(-1)))
        CFI (cfiCond40) CFA_SP SP+0
        CFI (cfiCond40) CFA_XSP16 add(XSP16, 18)
        CFI Block cfiCond41 Using cfiCommon0
        CFI (cfiCond41) NoFunction
        CFI (cfiCond41) Conditional ??CrossCallReturnLabel_59
        CFI (cfiCond41) R6 load(1, XDATA, add(CFA_XSP16, literal(-18)))
        CFI (cfiCond41) VB load(1, XDATA, add(CFA_XSP16, literal(-17)))
        CFI (cfiCond41) V0 load(1, XDATA, add(CFA_XSP16, literal(-16)))
        CFI (cfiCond41) V1 load(1, XDATA, add(CFA_XSP16, literal(-15)))
        CFI (cfiCond41) V2 load(1, XDATA, add(CFA_XSP16, literal(-14)))
        CFI (cfiCond41) V3 load(1, XDATA, add(CFA_XSP16, literal(-13)))
        CFI (cfiCond41) V4 load(1, XDATA, add(CFA_XSP16, literal(-12)))
        CFI (cfiCond41) V5 load(1, XDATA, add(CFA_XSP16, literal(-11)))
        CFI (cfiCond41) V6 load(1, XDATA, add(CFA_XSP16, literal(-10)))
        CFI (cfiCond41) V7 load(1, XDATA, add(CFA_XSP16, literal(-9)))
        CFI (cfiCond41) V8 load(1, XDATA, add(CFA_XSP16, literal(-8)))
        CFI (cfiCond41) V9 load(1, XDATA, add(CFA_XSP16, literal(-7)))
        CFI (cfiCond41) R7 load(1, XDATA, add(CFA_XSP16, literal(-6)))
        CFI (cfiCond41) ?RET_LOW load(1, XDATA, add(CFA_XSP16, literal(-5)))
        CFI (cfiCond41) ?RET_HIGH load(1, XDATA, add(CFA_XSP16, literal(-4)))
        CFI (cfiCond41) ?BRET_EXT load(1, XDATA, add(CFA_XSP16, literal(-3)))
        CFI (cfiCond41) DPL0 load(1, XDATA, add(CFA_XSP16, literal(-2)))
        CFI (cfiCond41) DPH0 load(1, XDATA, add(CFA_XSP16, literal(-1)))
        CFI (cfiCond41) CFA_SP SP+0
        CFI (cfiCond41) CFA_XSP16 add(XSP16, 18)
        CFI Block cfiCond42 Using cfiCommon0
        CFI (cfiCond42) NoFunction
        CFI (cfiCond42) Conditional ??CrossCallReturnLabel_60
        CFI (cfiCond42) R6 load(1, XDATA, add(CFA_XSP16, literal(-10)))
        CFI (cfiCond42) VB load(1, XDATA, add(CFA_XSP16, literal(-9)))
        CFI (cfiCond42) V0 load(1, XDATA, add(CFA_XSP16, literal(-8)))
        CFI (cfiCond42) V1 load(1, XDATA, add(CFA_XSP16, literal(-7)))
        CFI (cfiCond42) R7 load(1, XDATA, add(CFA_XSP16, literal(-6)))
        CFI (cfiCond42) ?RET_LOW load(1, XDATA, add(CFA_XSP16, literal(-5)))
        CFI (cfiCond42) ?RET_HIGH load(1, XDATA, add(CFA_XSP16, literal(-4)))
        CFI (cfiCond42) ?BRET_EXT load(1, XDATA, add(CFA_XSP16, literal(-3)))
        CFI (cfiCond42) DPL0 load(1, XDATA, add(CFA_XSP16, literal(-2)))
        CFI (cfiCond42) DPH0 load(1, XDATA, add(CFA_XSP16, literal(-1)))
        CFI (cfiCond42) CFA_SP SP+0
        CFI (cfiCond42) CFA_XSP16 add(XSP16, 10)
        CFI Block cfiCond43 Using cfiCommon0
        CFI (cfiCond43) NoFunction
        CFI (cfiCond43) Conditional ??CrossCallReturnLabel_61
        CFI (cfiCond43) R6 load(1, XDATA, add(CFA_XSP16, literal(-16)))
        CFI (cfiCond43) VB load(1, XDATA, add(CFA_XSP16, literal(-15)))
        CFI (cfiCond43) V0 load(1, XDATA, add(CFA_XSP16, literal(-14)))
        CFI (cfiCond43) V1 load(1, XDATA, add(CFA_XSP16, literal(-13)))
        CFI (cfiCond43) V2 load(1, XDATA, add(CFA_XSP16, literal(-12)))
        CFI (cfiCond43) V3 load(1, XDATA, add(CFA_XSP16, literal(-11)))
        CFI (cfiCond43) V4 load(1, XDATA, add(CFA_XSP16, literal(-10)))
        CFI (cfiCond43) V5 load(1, XDATA, add(CFA_XSP16, literal(-9)))
        CFI (cfiCond43) V6 load(1, XDATA, add(CFA_XSP16, literal(-8)))
        CFI (cfiCond43) V7 load(1, XDATA, add(CFA_XSP16, literal(-7)))
        CFI (cfiCond43) R7 load(1, XDATA, add(CFA_XSP16, literal(-6)))
        CFI (cfiCond43) ?RET_LOW load(1, XDATA, add(CFA_XSP16, literal(-5)))
        CFI (cfiCond43) ?RET_HIGH load(1, XDATA, add(CFA_XSP16, literal(-4)))
        CFI (cfiCond43) ?BRET_EXT load(1, XDATA, add(CFA_XSP16, literal(-3)))
        CFI (cfiCond43) DPL0 load(1, XDATA, add(CFA_XSP16, literal(-2)))
        CFI (cfiCond43) DPH0 load(1, XDATA, add(CFA_XSP16, literal(-1)))
        CFI (cfiCond43) CFA_SP SP+0
        CFI (cfiCond43) CFA_XSP16 add(XSP16, 19)
        CFI Block cfiCond44 Using cfiCommon0
        CFI (cfiCond44) NoFunction
        CFI (cfiCond44) Conditional ??CrossCallReturnLabel_62
        CFI (cfiCond44) R6 load(1, XDATA, add(CFA_XSP16, literal(-16)))
        CFI (cfiCond44) VB load(1, XDATA, add(CFA_XSP16, literal(-15)))
        CFI (cfiCond44) V0 load(1, XDATA, add(CFA_XSP16, literal(-14)))
        CFI (cfiCond44) V1 load(1, XDATA, add(CFA_XSP16, literal(-13)))
        CFI (cfiCond44) V2 load(1, XDATA, add(CFA_XSP16, literal(-12)))
        CFI (cfiCond44) V3 load(1, XDATA, add(CFA_XSP16, literal(-11)))
        CFI (cfiCond44) V4 load(1, XDATA, add(CFA_XSP16, literal(-10)))
        CFI (cfiCond44) V5 load(1, XDATA, add(CFA_XSP16, literal(-9)))
        CFI (cfiCond44) V6 load(1, XDATA, add(CFA_XSP16, literal(-8)))
        CFI (cfiCond44) V7 load(1, XDATA, add(CFA_XSP16, literal(-7)))
        CFI (cfiCond44) R7 load(1, XDATA, add(CFA_XSP16, literal(-6)))
        CFI (cfiCond44) ?RET_LOW load(1, XDATA, add(CFA_XSP16, literal(-5)))
        CFI (cfiCond44) ?RET_HIGH load(1, XDATA, add(CFA_XSP16, literal(-4)))
        CFI (cfiCond44) ?BRET_EXT load(1, XDATA, add(CFA_XSP16, literal(-3)))
        CFI (cfiCond44) DPL0 load(1, XDATA, add(CFA_XSP16, literal(-2)))
        CFI (cfiCond44) DPH0 load(1, XDATA, add(CFA_XSP16, literal(-1)))
        CFI (cfiCond44) CFA_SP SP+0
        CFI (cfiCond44) CFA_XSP16 add(XSP16, 19)
        CFI Block cfiCond45 Using cfiCommon0
        CFI (cfiCond45) NoFunction
        CFI (cfiCond45) Conditional ??CrossCallReturnLabel_63
        CFI (cfiCond45) R6 load(1, XDATA, add(CFA_XSP16, literal(-9)))
        CFI (cfiCond45) VB load(1, XDATA, add(CFA_XSP16, literal(-8)))
        CFI (cfiCond45) V0 load(1, XDATA, add(CFA_XSP16, literal(-7)))
        CFI (cfiCond45) R7 load(1, XDATA, add(CFA_XSP16, literal(-6)))
        CFI (cfiCond45) ?RET_LOW load(1, XDATA, add(CFA_XSP16, literal(-5)))
        CFI (cfiCond45) ?RET_HIGH load(1, XDATA, add(CFA_XSP16, literal(-4)))
        CFI (cfiCond45) ?BRET_EXT load(1, XDATA, add(CFA_XSP16, literal(-3)))
        CFI (cfiCond45) DPL0 load(1, XDATA, add(CFA_XSP16, literal(-2)))
        CFI (cfiCond45) DPH0 load(1, XDATA, add(CFA_XSP16, literal(-1)))
        CFI (cfiCond45) CFA_SP SP+0
        CFI (cfiCond45) CFA_XSP16 add(XSP16, 9)
        CFI Block cfiPicker46 Using cfiCommon1
        CFI (cfiPicker46) NoFunction
        CFI (cfiPicker46) Picker
        INC     DPTR
        CFI EndBlock cfiCond38
        CFI EndBlock cfiCond39
        CFI EndBlock cfiCond40
        CFI EndBlock cfiCond41
        CFI EndBlock cfiCond42
        CFI EndBlock cfiCond43
        CFI EndBlock cfiCond44
        CFI EndBlock cfiCond45
        CFI EndBlock cfiPicker46
        REQUIRE ??Subroutine41_0
        ; // Fall through to label ??Subroutine41_0

        RSEG BANKED_CODE:CODE:NOROOT(0)
??Subroutine41_0:
        CFI Block cfiCond47 Using cfiCommon0
        CFI NoFunction
        CFI Conditional ??CrossCallReturnLabel_55
        CFI R6 load(1, XDATA, add(CFA_XSP16, literal(-18)))
        CFI VB load(1, XDATA, add(CFA_XSP16, literal(-17)))
        CFI V0 load(1, XDATA, add(CFA_XSP16, literal(-16)))
        CFI V1 load(1, XDATA, add(CFA_XSP16, literal(-15)))
        CFI V2 load(1, XDATA, add(CFA_XSP16, literal(-14)))
        CFI V3 load(1, XDATA, add(CFA_XSP16, literal(-13)))
        CFI V4 load(1, XDATA, add(CFA_XSP16, literal(-12)))
        CFI V5 load(1, XDATA, add(CFA_XSP16, literal(-11)))
        CFI V6 load(1, XDATA, add(CFA_XSP16, literal(-10)))
        CFI V7 load(1, XDATA, add(CFA_XSP16, literal(-9)))
        CFI V8 load(1, XDATA, add(CFA_XSP16, literal(-8)))
        CFI V9 load(1, XDATA, add(CFA_XSP16, literal(-7)))
        CFI R7 load(1, XDATA, add(CFA_XSP16, literal(-6)))
        CFI ?RET_LOW load(1, XDATA, add(CFA_XSP16, literal(-5)))
        CFI ?RET_HIGH load(1, XDATA, add(CFA_XSP16, literal(-4)))
        CFI ?BRET_EXT load(1, XDATA, add(CFA_XSP16, literal(-3)))
        CFI DPL0 load(1, XDATA, add(CFA_XSP16, literal(-2)))
        CFI DPH0 load(1, XDATA, add(CFA_XSP16, literal(-1)))
        CFI CFA_SP SP+0
        CFI CFA_XSP16 add(XSP16, 18)
        CFI Block cfiCond48 Using cfiCommon0
        CFI (cfiCond48) NoFunction
        CFI (cfiCond48) Conditional ??CrossCallReturnLabel_56
        CFI (cfiCond48) R6 load(1, XDATA, add(CFA_XSP16, literal(-18)))
        CFI (cfiCond48) VB load(1, XDATA, add(CFA_XSP16, literal(-17)))
        CFI (cfiCond48) V0 load(1, XDATA, add(CFA_XSP16, literal(-16)))
        CFI (cfiCond48) V1 load(1, XDATA, add(CFA_XSP16, literal(-15)))
        CFI (cfiCond48) V2 load(1, XDATA, add(CFA_XSP16, literal(-14)))
        CFI (cfiCond48) V3 load(1, XDATA, add(CFA_XSP16, literal(-13)))
        CFI (cfiCond48) V4 load(1, XDATA, add(CFA_XSP16, literal(-12)))
        CFI (cfiCond48) V5 load(1, XDATA, add(CFA_XSP16, literal(-11)))
        CFI (cfiCond48) V6 load(1, XDATA, add(CFA_XSP16, literal(-10)))
        CFI (cfiCond48) V7 load(1, XDATA, add(CFA_XSP16, literal(-9)))
        CFI (cfiCond48) V8 load(1, XDATA, add(CFA_XSP16, literal(-8)))
        CFI (cfiCond48) V9 load(1, XDATA, add(CFA_XSP16, literal(-7)))
        CFI (cfiCond48) R7 load(1, XDATA, add(CFA_XSP16, literal(-6)))
        CFI (cfiCond48) ?RET_LOW load(1, XDATA, add(CFA_XSP16, literal(-5)))
        CFI (cfiCond48) ?RET_HIGH load(1, XDATA, add(CFA_XSP16, literal(-4)))
        CFI (cfiCond48) ?BRET_EXT load(1, XDATA, add(CFA_XSP16, literal(-3)))
        CFI (cfiCond48) DPL0 load(1, XDATA, add(CFA_XSP16, literal(-2)))
        CFI (cfiCond48) DPH0 load(1, XDATA, add(CFA_XSP16, literal(-1)))
        CFI (cfiCond48) CFA_SP SP+0
        CFI (cfiCond48) CFA_XSP16 add(XSP16, 18)
        CFI Block cfiCond49 Using cfiCommon0
        CFI (cfiCond49) NoFunction
        CFI (cfiCond49) Conditional ??CrossCallReturnLabel_57
        CFI (cfiCond49) R6 load(1, XDATA, add(CFA_XSP16, literal(-11)))
        CFI (cfiCond49) VB load(1, XDATA, add(CFA_XSP16, literal(-10)))
        CFI (cfiCond49) V0 load(1, XDATA, add(CFA_XSP16, literal(-9)))
        CFI (cfiCond49) V1 load(1, XDATA, add(CFA_XSP16, literal(-8)))
        CFI (cfiCond49) V2 load(1, XDATA, add(CFA_XSP16, literal(-7)))
        CFI (cfiCond49) R7 load(1, XDATA, add(CFA_XSP16, literal(-6)))
        CFI (cfiCond49) ?RET_LOW load(1, XDATA, add(CFA_XSP16, literal(-5)))
        CFI (cfiCond49) ?RET_HIGH load(1, XDATA, add(CFA_XSP16, literal(-4)))
        CFI (cfiCond49) ?BRET_EXT load(1, XDATA, add(CFA_XSP16, literal(-3)))
        CFI (cfiCond49) DPL0 load(1, XDATA, add(CFA_XSP16, literal(-2)))
        CFI (cfiCond49) DPH0 load(1, XDATA, add(CFA_XSP16, literal(-1)))
        CFI (cfiCond49) CFA_SP SP+0
        CFI (cfiCond49) CFA_XSP16 add(XSP16, 14)
        CFI Block cfiCond50 Using cfiCommon0
        CFI (cfiCond50) NoFunction
        CFI (cfiCond50) Conditional ??CrossCallReturnLabel_58
        CFI (cfiCond50) R6 load(1, XDATA, add(CFA_XSP16, literal(-18)))
        CFI (cfiCond50) VB load(1, XDATA, add(CFA_XSP16, literal(-17)))
        CFI (cfiCond50) V0 load(1, XDATA, add(CFA_XSP16, literal(-16)))
        CFI (cfiCond50) V1 load(1, XDATA, add(CFA_XSP16, literal(-15)))
        CFI (cfiCond50) V2 load(1, XDATA, add(CFA_XSP16, literal(-14)))
        CFI (cfiCond50) V3 load(1, XDATA, add(CFA_XSP16, literal(-13)))
        CFI (cfiCond50) V4 load(1, XDATA, add(CFA_XSP16, literal(-12)))
        CFI (cfiCond50) V5 load(1, XDATA, add(CFA_XSP16, literal(-11)))
        CFI (cfiCond50) V6 load(1, XDATA, add(CFA_XSP16, literal(-10)))
        CFI (cfiCond50) V7 load(1, XDATA, add(CFA_XSP16, literal(-9)))
        CFI (cfiCond50) V8 load(1, XDATA, add(CFA_XSP16, literal(-8)))
        CFI (cfiCond50) V9 load(1, XDATA, add(CFA_XSP16, literal(-7)))
        CFI (cfiCond50) R7 load(1, XDATA, add(CFA_XSP16, literal(-6)))
        CFI (cfiCond50) ?RET_LOW load(1, XDATA, add(CFA_XSP16, literal(-5)))
        CFI (cfiCond50) ?RET_HIGH load(1, XDATA, add(CFA_XSP16, literal(-4)))
        CFI (cfiCond50) ?BRET_EXT load(1, XDATA, add(CFA_XSP16, literal(-3)))
        CFI (cfiCond50) DPL0 load(1, XDATA, add(CFA_XSP16, literal(-2)))
        CFI (cfiCond50) DPH0 load(1, XDATA, add(CFA_XSP16, literal(-1)))
        CFI (cfiCond50) CFA_SP SP+0
        CFI (cfiCond50) CFA_XSP16 add(XSP16, 18)
        CFI Block cfiCond51 Using cfiCommon0
        CFI (cfiCond51) NoFunction
        CFI (cfiCond51) Conditional ??CrossCallReturnLabel_59
        CFI (cfiCond51) R6 load(1, XDATA, add(CFA_XSP16, literal(-18)))
        CFI (cfiCond51) VB load(1, XDATA, add(CFA_XSP16, literal(-17)))
        CFI (cfiCond51) V0 load(1, XDATA, add(CFA_XSP16, literal(-16)))
        CFI (cfiCond51) V1 load(1, XDATA, add(CFA_XSP16, literal(-15)))
        CFI (cfiCond51) V2 load(1, XDATA, add(CFA_XSP16, literal(-14)))
        CFI (cfiCond51) V3 load(1, XDATA, add(CFA_XSP16, literal(-13)))
        CFI (cfiCond51) V4 load(1, XDATA, add(CFA_XSP16, literal(-12)))
        CFI (cfiCond51) V5 load(1, XDATA, add(CFA_XSP16, literal(-11)))
        CFI (cfiCond51) V6 load(1, XDATA, add(CFA_XSP16, literal(-10)))
        CFI (cfiCond51) V7 load(1, XDATA, add(CFA_XSP16, literal(-9)))
        CFI (cfiCond51) V8 load(1, XDATA, add(CFA_XSP16, literal(-8)))
        CFI (cfiCond51) V9 load(1, XDATA, add(CFA_XSP16, literal(-7)))
        CFI (cfiCond51) R7 load(1, XDATA, add(CFA_XSP16, literal(-6)))
        CFI (cfiCond51) ?RET_LOW load(1, XDATA, add(CFA_XSP16, literal(-5)))
        CFI (cfiCond51) ?RET_HIGH load(1, XDATA, add(CFA_XSP16, literal(-4)))
        CFI (cfiCond51) ?BRET_EXT load(1, XDATA, add(CFA_XSP16, literal(-3)))
        CFI (cfiCond51) DPL0 load(1, XDATA, add(CFA_XSP16, literal(-2)))
        CFI (cfiCond51) DPH0 load(1, XDATA, add(CFA_XSP16, literal(-1)))
        CFI (cfiCond51) CFA_SP SP+0
        CFI (cfiCond51) CFA_XSP16 add(XSP16, 18)
        CFI Block cfiCond52 Using cfiCommon0
        CFI (cfiCond52) NoFunction
        CFI (cfiCond52) Conditional ??CrossCallReturnLabel_60
        CFI (cfiCond52) R6 load(1, XDATA, add(CFA_XSP16, literal(-10)))
        CFI (cfiCond52) VB load(1, XDATA, add(CFA_XSP16, literal(-9)))
        CFI (cfiCond52) V0 load(1, XDATA, add(CFA_XSP16, literal(-8)))
        CFI (cfiCond52) V1 load(1, XDATA, add(CFA_XSP16, literal(-7)))
        CFI (cfiCond52) R7 load(1, XDATA, add(CFA_XSP16, literal(-6)))
        CFI (cfiCond52) ?RET_LOW load(1, XDATA, add(CFA_XSP16, literal(-5)))
        CFI (cfiCond52) ?RET_HIGH load(1, XDATA, add(CFA_XSP16, literal(-4)))
        CFI (cfiCond52) ?BRET_EXT load(1, XDATA, add(CFA_XSP16, literal(-3)))
        CFI (cfiCond52) DPL0 load(1, XDATA, add(CFA_XSP16, literal(-2)))
        CFI (cfiCond52) DPH0 load(1, XDATA, add(CFA_XSP16, literal(-1)))
        CFI (cfiCond52) CFA_SP SP+0
        CFI (cfiCond52) CFA_XSP16 add(XSP16, 10)
        CFI Block cfiCond53 Using cfiCommon0
        CFI (cfiCond53) NoFunction
        CFI (cfiCond53) Conditional ??CrossCallReturnLabel_61
        CFI (cfiCond53) R6 load(1, XDATA, add(CFA_XSP16, literal(-16)))
        CFI (cfiCond53) VB load(1, XDATA, add(CFA_XSP16, literal(-15)))
        CFI (cfiCond53) V0 load(1, XDATA, add(CFA_XSP16, literal(-14)))
        CFI (cfiCond53) V1 load(1, XDATA, add(CFA_XSP16, literal(-13)))
        CFI (cfiCond53) V2 load(1, XDATA, add(CFA_XSP16, literal(-12)))
        CFI (cfiCond53) V3 load(1, XDATA, add(CFA_XSP16, literal(-11)))
        CFI (cfiCond53) V4 load(1, XDATA, add(CFA_XSP16, literal(-10)))
        CFI (cfiCond53) V5 load(1, XDATA, add(CFA_XSP16, literal(-9)))
        CFI (cfiCond53) V6 load(1, XDATA, add(CFA_XSP16, literal(-8)))
        CFI (cfiCond53) V7 load(1, XDATA, add(CFA_XSP16, literal(-7)))
        CFI (cfiCond53) R7 load(1, XDATA, add(CFA_XSP16, literal(-6)))
        CFI (cfiCond53) ?RET_LOW load(1, XDATA, add(CFA_XSP16, literal(-5)))
        CFI (cfiCond53) ?RET_HIGH load(1, XDATA, add(CFA_XSP16, literal(-4)))
        CFI (cfiCond53) ?BRET_EXT load(1, XDATA, add(CFA_XSP16, literal(-3)))
        CFI (cfiCond53) DPL0 load(1, XDATA, add(CFA_XSP16, literal(-2)))
        CFI (cfiCond53) DPH0 load(1, XDATA, add(CFA_XSP16, literal(-1)))
        CFI (cfiCond53) CFA_SP SP+0
        CFI (cfiCond53) CFA_XSP16 add(XSP16, 19)
        CFI Block cfiCond54 Using cfiCommon0
        CFI (cfiCond54) NoFunction
        CFI (cfiCond54) Conditional ??CrossCallReturnLabel_62
        CFI (cfiCond54) R6 load(1, XDATA, add(CFA_XSP16, literal(-16)))
        CFI (cfiCond54) VB load(1, XDATA, add(CFA_XSP16, literal(-15)))
        CFI (cfiCond54) V0 load(1, XDATA, add(CFA_XSP16, literal(-14)))
        CFI (cfiCond54) V1 load(1, XDATA, add(CFA_XSP16, literal(-13)))
        CFI (cfiCond54) V2 load(1, XDATA, add(CFA_XSP16, literal(-12)))
        CFI (cfiCond54) V3 load(1, XDATA, add(CFA_XSP16, literal(-11)))
        CFI (cfiCond54) V4 load(1, XDATA, add(CFA_XSP16, literal(-10)))
        CFI (cfiCond54) V5 load(1, XDATA, add(CFA_XSP16, literal(-9)))
        CFI (cfiCond54) V6 load(1, XDATA, add(CFA_XSP16, literal(-8)))
        CFI (cfiCond54) V7 load(1, XDATA, add(CFA_XSP16, literal(-7)))
        CFI (cfiCond54) R7 load(1, XDATA, add(CFA_XSP16, literal(-6)))
        CFI (cfiCond54) ?RET_LOW load(1, XDATA, add(CFA_XSP16, literal(-5)))
        CFI (cfiCond54) ?RET_HIGH load(1, XDATA, add(CFA_XSP16, literal(-4)))
        CFI (cfiCond54) ?BRET_EXT load(1, XDATA, add(CFA_XSP16, literal(-3)))
        CFI (cfiCond54) DPL0 load(1, XDATA, add(CFA_XSP16, literal(-2)))
        CFI (cfiCond54) DPH0 load(1, XDATA, add(CFA_XSP16, literal(-1)))
        CFI (cfiCond54) CFA_SP SP+0
        CFI (cfiCond54) CFA_XSP16 add(XSP16, 19)
        CFI Block cfiCond55 Using cfiCommon0
        CFI (cfiCond55) NoFunction
        CFI (cfiCond55) Conditional ??CrossCallReturnLabel_63
        CFI (cfiCond55) R6 load(1, XDATA, add(CFA_XSP16, literal(-9)))
        CFI (cfiCond55) VB load(1, XDATA, add(CFA_XSP16, literal(-8)))
        CFI (cfiCond55) V0 load(1, XDATA, add(CFA_XSP16, literal(-7)))
        CFI (cfiCond55) R7 load(1, XDATA, add(CFA_XSP16, literal(-6)))
        CFI (cfiCond55) ?RET_LOW load(1, XDATA, add(CFA_XSP16, literal(-5)))
        CFI (cfiCond55) ?RET_HIGH load(1, XDATA, add(CFA_XSP16, literal(-4)))
        CFI (cfiCond55) ?BRET_EXT load(1, XDATA, add(CFA_XSP16, literal(-3)))
        CFI (cfiCond55) DPL0 load(1, XDATA, add(CFA_XSP16, literal(-2)))
        CFI (cfiCond55) DPH0 load(1, XDATA, add(CFA_XSP16, literal(-1)))
        CFI (cfiCond55) CFA_SP SP+0
        CFI (cfiCond55) CFA_XSP16 add(XSP16, 9)
        CFI Block cfiPicker56 Using cfiCommon1
        CFI (cfiPicker56) NoFunction
        CFI (cfiPicker56) Picker
        MOVX    A,@DPTR
        MOV     R0,A
        INC     DPTR
        MOVX    A,@DPTR
        MOV     R1,A
        MOV     A,R0
        ORL     A,R1
        RET
        CFI EndBlock cfiCond47
        CFI EndBlock cfiCond48
        CFI EndBlock cfiCond49
        CFI EndBlock cfiCond50
        CFI EndBlock cfiCond51
        CFI EndBlock cfiCond52
        CFI EndBlock cfiCond53
        CFI EndBlock cfiCond54
        CFI EndBlock cfiCond55
        CFI EndBlock cfiPicker56
//  141 

        RSEG BANKED_CODE:CODE:NOROOT(0)
//  142 static void createEndPoint(struct ep_info_t *epInfo, uint8 *task_id, uint8 ep)
createEndPoint:
        CFI Block cfiBlock57 Using cfiCommon0
        CFI Function createEndPoint
        CODE
//  143 {
        FUNCALL createEndPoint, afRegister
        LOCFRAME ISTACK, 0, STACK
        LOCFRAME PSTACK, 0, STACK
        LOCFRAME XSTACK, 10, STACK
        LOCFRAME IOVERLAY, 0, STATIC
        LOCFRAME DOVERLAY, 0, STATIC
        ARGFRAME ISTACK, 0, STACK
        ARGFRAME PSTACK, 0, STACK
        ARGFRAME XSTACK, 10, STACK
        ARGFRAME IOVERLAY, 0, STATIC
        ARGFRAME DOVERLAY, 0, STATIC
        MOV     A,#-0xa
        LCALL   ?BANKED_ENTER_XDATA
        CFI DPH0 load(1, XDATA, add(CFA_XSP16, literal(-1)))
        CFI DPL0 load(1, XDATA, add(CFA_XSP16, literal(-2)))
        CFI ?BRET_EXT load(1, XDATA, add(CFA_XSP16, literal(-3)))
        CFI ?RET_HIGH load(1, XDATA, add(CFA_XSP16, literal(-4)))
        CFI ?RET_LOW load(1, XDATA, add(CFA_XSP16, literal(-5)))
        CFI R7 load(1, XDATA, add(CFA_XSP16, literal(-6)))
        CFI V1 load(1, XDATA, add(CFA_XSP16, literal(-7)))
        CFI V0 load(1, XDATA, add(CFA_XSP16, literal(-8)))
        CFI VB load(1, XDATA, add(CFA_XSP16, literal(-9)))
        CFI R6 load(1, XDATA, add(CFA_XSP16, literal(-10)))
        CFI CFA_SP SP+0
        CFI CFA_XSP16 add(XSP16, 10)
        ; Saved register size: 10
        ; Auto size: 0
        MOV     A,R1
        MOV     R6,A
//  144     static cId_t commonClusterId = SAPP_PERIODIC_CLUSTERID;
//  145     // Fill out the endpoint description.
//  146     epInfo->task_id = *task_id;
        MOV     DPL,R4
        MOV     DPH,R5
        MOVX    A,@DPTR
        PUSH    A
        CFI CFA_SP SP+-1
        MOV     A,R2
        ADD     A,#0xc
        LCALL   ?Subroutine20 & 0xFFFF
??CrossCallReturnLabel_101:
        POP     A
        CFI CFA_SP SP+0
        MOVX    @DPTR,A
//  147     epInfo->ep = ep;
        MOV     A,R2
        ADD     A,#0xb
        LCALL   ?Subroutine20 & 0xFFFF
??CrossCallReturnLabel_102:
        MOV     A,R1
        LCALL   ?Subroutine21 & 0xFFFF
//  148     epInfo->timerTick = epInfo->function.cycle;
??CrossCallReturnLabel_24:
        PUSH    A
        CFI CFA_SP SP+-1
        MOV     A,R2
        ADD     A,#0xd
        LCALL   ?Subroutine20 & 0xFFFF
??CrossCallReturnLabel_103:
        POP     A
        CFI CFA_SP SP+0
        MOVX    @DPTR,A
//  149     epInfo->userTimer = 0;
        LCALL   ?Subroutine17 & 0xFFFF
//  150 
//  151     epInfo->simpleDesc.EndPoint = ep;
??CrossCallReturnLabel_77:
        MOV     A,R2
        ADD     A,#0x15
        MOV     ?V0 + 0,A
        MOV     A,R3
        ADDC    A,#0x0
        MOV     ?V0 + 1,A
        MOV     A,R6
        MOV     DPL,?V0 + 0
        MOV     DPH,?V0 + 1
        MOVX    @DPTR,A
//  152     epInfo->simpleDesc.AppProfId = SAPP_PROFID;
        MOV     A,R2
        ADD     A,#0x16
        LCALL   ?Subroutine20 & 0xFFFF
??CrossCallReturnLabel_104:
        MOV     A,#0x8
        MOVX    @DPTR,A
        INC     DPTR
        MOV     A,#0xf
        MOVX    @DPTR,A
//  153     epInfo->simpleDesc.AppDeviceId = SAPP_DEVICEID;
        MOV     A,R2
        ADD     A,#0x18
        LCALL   ?Subroutine20 & 0xFFFF
??CrossCallReturnLabel_105:
        MOV     A,#0x1
        MOVX    @DPTR,A
        INC     DPTR
        CLR     A
        MOVX    @DPTR,A
//  154     epInfo->simpleDesc.AppDevVer = SAPP_DEVICE_VERSION;
//  155     epInfo->simpleDesc.Reserved = 0;
        MOV     A,R2
        ADD     A,#0x1a
        LCALL   ??Subroutine45_0 & 0xFFFF
//  156     epInfo->simpleDesc.AppNumInClusters = 1;
??CrossCallReturnLabel_75:
        MOV     A,R2
        ADD     A,#0x1b
        LCALL   ?Subroutine19 & 0xFFFF
//  157     epInfo->simpleDesc.pAppInClusterList = &commonClusterId;
??CrossCallReturnLabel_21:
        ADD     A,#0x1c
        LCALL   ?Subroutine18 & 0xFFFF
//  158     epInfo->simpleDesc.AppNumOutClusters = 1;
??CrossCallReturnLabel_19:
        ADD     A,#0x1e
        LCALL   ?Subroutine19 & 0xFFFF
//  159     epInfo->simpleDesc.pAppOutClusterList = &commonClusterId;
??CrossCallReturnLabel_22:
        ADD     A,#0x1f
        LCALL   ?Subroutine18 & 0xFFFF
//  160 
//  161     epInfo->SampleApp_epDesc.endPoint = ep;
??CrossCallReturnLabel_20:
        ADD     A,#0xf
        MOV     R0,A
        MOV     A,R3
        ADDC    A,#0x0
        MOV     R1,A
        MOV     A,R6
        MOV     DPL,R0
        MOV     DPH,R1
        MOVX    @DPTR,A
//  162     epInfo->SampleApp_epDesc.task_id = task_id;
        MOV     A,R2
        ADD     A,#0x10
        LCALL   ?Subroutine20 & 0xFFFF
??CrossCallReturnLabel_106:
        MOV     A,R4
        MOVX    @DPTR,A
        INC     DPTR
        MOV     A,R5
        MOVX    @DPTR,A
//  163     epInfo->SampleApp_epDesc.simpleDesc = &epInfo->simpleDesc;
        MOV     A,R2
        ADD     A,#0x12
        LCALL   ?Subroutine20 & 0xFFFF
??CrossCallReturnLabel_107:
        MOV     A,?V0 + 0
        MOVX    @DPTR,A
        INC     DPTR
        MOV     A,?V0 + 1
        MOVX    @DPTR,A
//  164     epInfo->SampleApp_epDesc.latencyReq = noLatencyReqs;
        MOV     A,R2
        ADD     A,#0x14
        LCALL   ??Subroutine45_0 & 0xFFFF
//  165 
//  166     // Register the endpoint description with the AF
//  167     afRegister(&epInfo->SampleApp_epDesc);
??CrossCallReturnLabel_76:
        ; Setup parameters for call to function afRegister
        MOV     A,R0
        MOV     R2,A
        MOV     A,R1
        MOV     R3,A
        LCALL   ??afRegister?relay
//  168 }
        LJMP    ?Subroutine1 & 0xFFFF
        CFI EndBlock cfiBlock57

        RSEG BANKED_CODE:CODE:NOROOT(0)
?Subroutine21:
        CFI Block cfiCond58 Using cfiCommon0
        CFI NoFunction
        CFI Conditional ??CrossCallReturnLabel_23
        CFI R6 load(1, XDATA, add(CFA_XSP16, literal(-10)))
        CFI VB load(1, XDATA, add(CFA_XSP16, literal(-9)))
        CFI V0 load(1, XDATA, add(CFA_XSP16, literal(-8)))
        CFI V1 load(1, XDATA, add(CFA_XSP16, literal(-7)))
        CFI R7 load(1, XDATA, add(CFA_XSP16, literal(-6)))
        CFI ?RET_LOW load(1, XDATA, add(CFA_XSP16, literal(-5)))
        CFI ?RET_HIGH load(1, XDATA, add(CFA_XSP16, literal(-4)))
        CFI ?BRET_EXT load(1, XDATA, add(CFA_XSP16, literal(-3)))
        CFI DPL0 load(1, XDATA, add(CFA_XSP16, literal(-2)))
        CFI DPH0 load(1, XDATA, add(CFA_XSP16, literal(-1)))
        CFI CFA_SP SP+0
        CFI CFA_XSP16 add(XSP16, 10)
        CFI Block cfiCond59 Using cfiCommon0
        CFI (cfiCond59) NoFunction
        CFI (cfiCond59) Conditional ??CrossCallReturnLabel_24
        CFI (cfiCond59) R6 load(1, XDATA, add(CFA_XSP16, literal(-10)))
        CFI (cfiCond59) VB load(1, XDATA, add(CFA_XSP16, literal(-9)))
        CFI (cfiCond59) V0 load(1, XDATA, add(CFA_XSP16, literal(-8)))
        CFI (cfiCond59) V1 load(1, XDATA, add(CFA_XSP16, literal(-7)))
        CFI (cfiCond59) R7 load(1, XDATA, add(CFA_XSP16, literal(-6)))
        CFI (cfiCond59) ?RET_LOW load(1, XDATA, add(CFA_XSP16, literal(-5)))
        CFI (cfiCond59) ?RET_HIGH load(1, XDATA, add(CFA_XSP16, literal(-4)))
        CFI (cfiCond59) ?BRET_EXT load(1, XDATA, add(CFA_XSP16, literal(-3)))
        CFI (cfiCond59) DPL0 load(1, XDATA, add(CFA_XSP16, literal(-2)))
        CFI (cfiCond59) DPH0 load(1, XDATA, add(CFA_XSP16, literal(-1)))
        CFI (cfiCond59) CFA_SP SP+0
        CFI (cfiCond59) CFA_XSP16 add(XSP16, 10)
        CFI Block cfiPicker60 Using cfiCommon1
        CFI (cfiPicker60) NoFunction
        CFI (cfiPicker60) Picker
        LCALL   ?Subroutine33 & 0xFFFF
??CrossCallReturnLabel_48:
        INC     DPTR
        MOVX    A,@DPTR
        RET
        CFI EndBlock cfiCond58
        CFI EndBlock cfiCond59
        CFI EndBlock cfiPicker60

        RSEG BANKED_CODE:CODE:NOROOT(0)
?Subroutine33:
        CFI Block cfiCond61 Using cfiCommon0
        CFI NoFunction
        CFI Conditional ??CrossCallReturnLabel_47
        CFI R6 load(1, XDATA, add(CFA_XSP16, literal(-10)))
        CFI VB load(1, XDATA, add(CFA_XSP16, literal(-9)))
        CFI V0 load(1, XDATA, add(CFA_XSP16, literal(-8)))
        CFI V1 load(1, XDATA, add(CFA_XSP16, literal(-7)))
        CFI R7 load(1, XDATA, add(CFA_XSP16, literal(-6)))
        CFI ?RET_LOW load(1, XDATA, add(CFA_XSP16, literal(-5)))
        CFI ?RET_HIGH load(1, XDATA, add(CFA_XSP16, literal(-4)))
        CFI ?BRET_EXT load(1, XDATA, add(CFA_XSP16, literal(-3)))
        CFI DPL0 load(1, XDATA, add(CFA_XSP16, literal(-2)))
        CFI DPH0 load(1, XDATA, add(CFA_XSP16, literal(-1)))
        CFI CFA_SP SP+0
        CFI CFA_XSP16 add(XSP16, 10)
        CFI Block cfiCond62 Using cfiCommon0
        CFI (cfiCond62) NoFunction
        CFI (cfiCond62) Conditional ??CrossCallReturnLabel_48, ??CrossCallReturnLabel_23
        CFI (cfiCond62) R6 load(1, XDATA, add(CFA_XSP16, literal(-10)))
        CFI (cfiCond62) VB load(1, XDATA, add(CFA_XSP16, literal(-9)))
        CFI (cfiCond62) V0 load(1, XDATA, add(CFA_XSP16, literal(-8)))
        CFI (cfiCond62) V1 load(1, XDATA, add(CFA_XSP16, literal(-7)))
        CFI (cfiCond62) R7 load(1, XDATA, add(CFA_XSP16, literal(-6)))
        CFI (cfiCond62) ?RET_LOW load(1, XDATA, add(CFA_XSP16, literal(-5)))
        CFI (cfiCond62) ?RET_HIGH load(1, XDATA, add(CFA_XSP16, literal(-4)))
        CFI (cfiCond62) ?BRET_EXT load(1, XDATA, add(CFA_XSP16, literal(-3)))
        CFI (cfiCond62) DPL0 load(1, XDATA, add(CFA_XSP16, literal(-2)))
        CFI (cfiCond62) DPH0 load(1, XDATA, add(CFA_XSP16, literal(-1)))
        CFI (cfiCond62) CFA_SP SP+0
        CFI (cfiCond62) CFA_XSP16 add(XSP16, 10)
        CFI Block cfiCond63 Using cfiCommon0
        CFI (cfiCond63) NoFunction
        CFI (cfiCond63) Conditional ??CrossCallReturnLabel_48, ??CrossCallReturnLabel_24
        CFI (cfiCond63) R6 load(1, XDATA, add(CFA_XSP16, literal(-10)))
        CFI (cfiCond63) VB load(1, XDATA, add(CFA_XSP16, literal(-9)))
        CFI (cfiCond63) V0 load(1, XDATA, add(CFA_XSP16, literal(-8)))
        CFI (cfiCond63) V1 load(1, XDATA, add(CFA_XSP16, literal(-7)))
        CFI (cfiCond63) R7 load(1, XDATA, add(CFA_XSP16, literal(-6)))
        CFI (cfiCond63) ?RET_LOW load(1, XDATA, add(CFA_XSP16, literal(-5)))
        CFI (cfiCond63) ?RET_HIGH load(1, XDATA, add(CFA_XSP16, literal(-4)))
        CFI (cfiCond63) ?BRET_EXT load(1, XDATA, add(CFA_XSP16, literal(-3)))
        CFI (cfiCond63) DPL0 load(1, XDATA, add(CFA_XSP16, literal(-2)))
        CFI (cfiCond63) DPH0 load(1, XDATA, add(CFA_XSP16, literal(-1)))
        CFI (cfiCond63) CFA_SP SP+0
        CFI (cfiCond63) CFA_XSP16 add(XSP16, 10)
        CFI Block cfiPicker64 Using cfiCommon1
        CFI (cfiPicker64) NoFunction
        CFI (cfiPicker64) Picker
        MOVX    @DPTR,A
        MOV     DPL,R2
        MOV     DPH,R3
        INC     DPTR
        INC     DPTR
        INC     DPTR
        INC     DPTR
        INC     DPTR
        INC     DPTR
        INC     DPTR
        INC     DPTR
        INC     DPTR
        RET
        CFI EndBlock cfiCond61
        CFI EndBlock cfiCond62
        CFI EndBlock cfiCond63
        CFI EndBlock cfiPicker64

        RSEG BANKED_CODE:CODE:NOROOT(0)
?Subroutine19:
        CFI Block cfiCond65 Using cfiCommon0
        CFI NoFunction
        CFI Conditional ??CrossCallReturnLabel_21
        CFI R6 load(1, XDATA, add(CFA_XSP16, literal(-10)))
        CFI VB load(1, XDATA, add(CFA_XSP16, literal(-9)))
        CFI V0 load(1, XDATA, add(CFA_XSP16, literal(-8)))
        CFI V1 load(1, XDATA, add(CFA_XSP16, literal(-7)))
        CFI R7 load(1, XDATA, add(CFA_XSP16, literal(-6)))
        CFI ?RET_LOW load(1, XDATA, add(CFA_XSP16, literal(-5)))
        CFI ?RET_HIGH load(1, XDATA, add(CFA_XSP16, literal(-4)))
        CFI ?BRET_EXT load(1, XDATA, add(CFA_XSP16, literal(-3)))
        CFI DPL0 load(1, XDATA, add(CFA_XSP16, literal(-2)))
        CFI DPH0 load(1, XDATA, add(CFA_XSP16, literal(-1)))
        CFI CFA_SP SP+0
        CFI CFA_XSP16 add(XSP16, 10)
        CFI Block cfiCond66 Using cfiCommon0
        CFI (cfiCond66) NoFunction
        CFI (cfiCond66) Conditional ??CrossCallReturnLabel_22
        CFI (cfiCond66) R6 load(1, XDATA, add(CFA_XSP16, literal(-10)))
        CFI (cfiCond66) VB load(1, XDATA, add(CFA_XSP16, literal(-9)))
        CFI (cfiCond66) V0 load(1, XDATA, add(CFA_XSP16, literal(-8)))
        CFI (cfiCond66) V1 load(1, XDATA, add(CFA_XSP16, literal(-7)))
        CFI (cfiCond66) R7 load(1, XDATA, add(CFA_XSP16, literal(-6)))
        CFI (cfiCond66) ?RET_LOW load(1, XDATA, add(CFA_XSP16, literal(-5)))
        CFI (cfiCond66) ?RET_HIGH load(1, XDATA, add(CFA_XSP16, literal(-4)))
        CFI (cfiCond66) ?BRET_EXT load(1, XDATA, add(CFA_XSP16, literal(-3)))
        CFI (cfiCond66) DPL0 load(1, XDATA, add(CFA_XSP16, literal(-2)))
        CFI (cfiCond66) DPH0 load(1, XDATA, add(CFA_XSP16, literal(-1)))
        CFI (cfiCond66) CFA_SP SP+0
        CFI (cfiCond66) CFA_XSP16 add(XSP16, 10)
        CFI Block cfiPicker67 Using cfiCommon1
        CFI (cfiPicker67) NoFunction
        CFI (cfiPicker67) Picker
        MOV     DPL,A
        MOV     A,R3
        ADDC    A,#0x0
        MOV     DPH,A
        MOV     A,#0x1
        MOVX    @DPTR,A
        MOV     A,R2
        RET
        CFI EndBlock cfiCond65
        CFI EndBlock cfiCond66
        CFI EndBlock cfiPicker67

        RSEG BANKED_CODE:CODE:NOROOT(0)
?Subroutine18:
        CFI Block cfiCond68 Using cfiCommon0
        CFI NoFunction
        CFI Conditional ??CrossCallReturnLabel_19
        CFI R6 load(1, XDATA, add(CFA_XSP16, literal(-10)))
        CFI VB load(1, XDATA, add(CFA_XSP16, literal(-9)))
        CFI V0 load(1, XDATA, add(CFA_XSP16, literal(-8)))
        CFI V1 load(1, XDATA, add(CFA_XSP16, literal(-7)))
        CFI R7 load(1, XDATA, add(CFA_XSP16, literal(-6)))
        CFI ?RET_LOW load(1, XDATA, add(CFA_XSP16, literal(-5)))
        CFI ?RET_HIGH load(1, XDATA, add(CFA_XSP16, literal(-4)))
        CFI ?BRET_EXT load(1, XDATA, add(CFA_XSP16, literal(-3)))
        CFI DPL0 load(1, XDATA, add(CFA_XSP16, literal(-2)))
        CFI DPH0 load(1, XDATA, add(CFA_XSP16, literal(-1)))
        CFI CFA_SP SP+0
        CFI CFA_XSP16 add(XSP16, 10)
        CFI Block cfiCond69 Using cfiCommon0
        CFI (cfiCond69) NoFunction
        CFI (cfiCond69) Conditional ??CrossCallReturnLabel_20
        CFI (cfiCond69) R6 load(1, XDATA, add(CFA_XSP16, literal(-10)))
        CFI (cfiCond69) VB load(1, XDATA, add(CFA_XSP16, literal(-9)))
        CFI (cfiCond69) V0 load(1, XDATA, add(CFA_XSP16, literal(-8)))
        CFI (cfiCond69) V1 load(1, XDATA, add(CFA_XSP16, literal(-7)))
        CFI (cfiCond69) R7 load(1, XDATA, add(CFA_XSP16, literal(-6)))
        CFI (cfiCond69) ?RET_LOW load(1, XDATA, add(CFA_XSP16, literal(-5)))
        CFI (cfiCond69) ?RET_HIGH load(1, XDATA, add(CFA_XSP16, literal(-4)))
        CFI (cfiCond69) ?BRET_EXT load(1, XDATA, add(CFA_XSP16, literal(-3)))
        CFI (cfiCond69) DPL0 load(1, XDATA, add(CFA_XSP16, literal(-2)))
        CFI (cfiCond69) DPH0 load(1, XDATA, add(CFA_XSP16, literal(-1)))
        CFI (cfiCond69) CFA_SP SP+0
        CFI (cfiCond69) CFA_XSP16 add(XSP16, 10)
        CFI Block cfiPicker70 Using cfiCommon1
        CFI (cfiPicker70) NoFunction
        CFI (cfiPicker70) Picker
        MOV     DPL,A
        MOV     A,R3
        ADDC    A,#0x0
        MOV     DPH,A
        MOV     A,#??commonClusterId & 0xff
        MOVX    @DPTR,A
        INC     DPTR
        MOV     A,#(??commonClusterId >> 8) & 0xff
        MOVX    @DPTR,A
        MOV     A,R2
        RET
        CFI EndBlock cfiCond68
        CFI EndBlock cfiCond69
        CFI EndBlock cfiPicker70
//  169 

        RSEG BANKED_CODE:CODE:NOROOT(0)
//  170 static uint16 controlEpProcess(uint8 task_id, uint16 events)
controlEpProcess:
        CFI Block cfiBlock71 Using cfiCommon0
        CFI Function controlEpProcess
        CODE
//  171 {
        FUNCALL controlEpProcess, osal_msg_receive
        LOCFRAME ISTACK, 0, STACK
        LOCFRAME PSTACK, 0, STACK
        LOCFRAME XSTACK, 19, STACK
        LOCFRAME IOVERLAY, 0, STATIC
        LOCFRAME DOVERLAY, 0, STATIC
        ARGFRAME ISTACK, 0, STACK
        ARGFRAME PSTACK, 0, STACK
        ARGFRAME XSTACK, 19, STACK
        ARGFRAME IOVERLAY, 0, STATIC
        ARGFRAME DOVERLAY, 0, STATIC
        FUNCALL controlEpProcess, NLME_GetExtAddr
        LOCFRAME ISTACK, 0, STACK
        LOCFRAME PSTACK, 0, STACK
        LOCFRAME XSTACK, 21, STACK
        LOCFRAME IOVERLAY, 0, STATIC
        LOCFRAME DOVERLAY, 0, STATIC
        ARGFRAME ISTACK, 0, STACK
        ARGFRAME PSTACK, 0, STACK
        ARGFRAME XSTACK, 21, STACK
        ARGFRAME IOVERLAY, 0, STATIC
        ARGFRAME DOVERLAY, 0, STATIC
        FUNCALL controlEpProcess, memcpy
        LOCFRAME ISTACK, 0, STACK
        LOCFRAME PSTACK, 0, STACK
        LOCFRAME XSTACK, 21, STACK
        LOCFRAME IOVERLAY, 0, STATIC
        LOCFRAME DOVERLAY, 0, STATIC
        ARGFRAME ISTACK, 0, STACK
        ARGFRAME PSTACK, 0, STACK
        ARGFRAME XSTACK, 21, STACK
        ARGFRAME IOVERLAY, 0, STATIC
        ARGFRAME DOVERLAY, 0, STATIC
        FUNCALL controlEpProcess, ClrScreen
        LOCFRAME ISTACK, 0, STACK
        LOCFRAME PSTACK, 0, STACK
        LOCFRAME XSTACK, 19, STACK
        LOCFRAME IOVERLAY, 0, STATIC
        LOCFRAME DOVERLAY, 0, STATIC
        ARGFRAME ISTACK, 0, STACK
        ARGFRAME PSTACK, 0, STACK
        ARGFRAME XSTACK, 19, STACK
        ARGFRAME IOVERLAY, 0, STATIC
        ARGFRAME DOVERLAY, 0, STATIC
        FUNCALL controlEpProcess, PutString_cn
        LOCFRAME ISTACK, 0, STACK
        LOCFRAME PSTACK, 0, STACK
        LOCFRAME XSTACK, 19, STACK
        LOCFRAME IOVERLAY, 0, STATIC
        LOCFRAME DOVERLAY, 0, STATIC
        ARGFRAME ISTACK, 0, STACK
        ARGFRAME PSTACK, 0, STACK
        ARGFRAME XSTACK, 19, STACK
        ARGFRAME IOVERLAY, 0, STATIC
        ARGFRAME DOVERLAY, 0, STATIC
        FUNCALL controlEpProcess, HalLcdWriteStringValue
        LOCFRAME ISTACK, 0, STACK
        LOCFRAME PSTACK, 0, STACK
        LOCFRAME XSTACK, 20, STACK
        LOCFRAME IOVERLAY, 0, STATIC
        LOCFRAME DOVERLAY, 0, STATIC
        ARGFRAME ISTACK, 0, STACK
        ARGFRAME PSTACK, 0, STACK
        ARGFRAME XSTACK, 20, STACK
        ARGFRAME IOVERLAY, 0, STATIC
        ARGFRAME DOVERLAY, 0, STATIC
        FUNCALL controlEpProcess, NLME_GetShortAddr
        LOCFRAME ISTACK, 0, STACK
        LOCFRAME PSTACK, 0, STACK
        LOCFRAME XSTACK, 20, STACK
        LOCFRAME IOVERLAY, 0, STATIC
        LOCFRAME DOVERLAY, 0, STATIC
        ARGFRAME ISTACK, 0, STACK
        ARGFRAME PSTACK, 0, STACK
        ARGFRAME XSTACK, 20, STACK
        ARGFRAME IOVERLAY, 0, STATIC
        ARGFRAME DOVERLAY, 0, STATIC
        FUNCALL controlEpProcess, HalLcdWriteStringValue
        LOCFRAME ISTACK, 0, STACK
        LOCFRAME PSTACK, 0, STACK
        LOCFRAME XSTACK, 20, STACK
        LOCFRAME IOVERLAY, 0, STATIC
        LOCFRAME DOVERLAY, 0, STATIC
        ARGFRAME ISTACK, 0, STACK
        ARGFRAME PSTACK, 0, STACK
        ARGFRAME XSTACK, 20, STACK
        ARGFRAME IOVERLAY, 0, STATIC
        ARGFRAME DOVERLAY, 0, STATIC
        FUNCALL controlEpProcess, NLME_GetExtAddr
        LOCFRAME ISTACK, 0, STACK
        LOCFRAME PSTACK, 0, STACK
        LOCFRAME XSTACK, 19, STACK
        LOCFRAME IOVERLAY, 0, STATIC
        LOCFRAME DOVERLAY, 0, STATIC
        ARGFRAME ISTACK, 0, STACK
        ARGFRAME PSTACK, 0, STACK
        ARGFRAME XSTACK, 19, STACK
        ARGFRAME IOVERLAY, 0, STATIC
        ARGFRAME DOVERLAY, 0, STATIC
        FUNCALL controlEpProcess, PutAbyte
        LOCFRAME ISTACK, 0, STACK
        LOCFRAME PSTACK, 0, STACK
        LOCFRAME XSTACK, 19, STACK
        LOCFRAME IOVERLAY, 0, STATIC
        LOCFRAME DOVERLAY, 0, STATIC
        ARGFRAME ISTACK, 0, STACK
        ARGFRAME PSTACK, 0, STACK
        ARGFRAME XSTACK, 19, STACK
        ARGFRAME IOVERLAY, 0, STATIC
        ARGFRAME DOVERLAY, 0, STATIC
        FUNCALL controlEpProcess, TimeDelay
        LOCFRAME ISTACK, 0, STACK
        LOCFRAME PSTACK, 0, STACK
        LOCFRAME XSTACK, 19, STACK
        LOCFRAME IOVERLAY, 0, STATIC
        LOCFRAME DOVERLAY, 0, STATIC
        ARGFRAME ISTACK, 0, STACK
        ARGFRAME PSTACK, 0, STACK
        ARGFRAME XSTACK, 19, STACK
        ARGFRAME IOVERLAY, 0, STATIC
        ARGFRAME DOVERLAY, 0, STATIC
        FUNCALL controlEpProcess, ClrScreen
        LOCFRAME ISTACK, 0, STACK
        LOCFRAME PSTACK, 0, STACK
        LOCFRAME XSTACK, 19, STACK
        LOCFRAME IOVERLAY, 0, STATIC
        LOCFRAME DOVERLAY, 0, STATIC
        ARGFRAME ISTACK, 0, STACK
        ARGFRAME PSTACK, 0, STACK
        ARGFRAME XSTACK, 19, STACK
        ARGFRAME IOVERLAY, 0, STATIC
        ARGFRAME DOVERLAY, 0, STATIC
        FUNCALL controlEpProcess, PutString_cn
        LOCFRAME ISTACK, 0, STACK
        LOCFRAME PSTACK, 0, STACK
        LOCFRAME XSTACK, 19, STACK
        LOCFRAME IOVERLAY, 0, STATIC
        LOCFRAME DOVERLAY, 0, STATIC
        ARGFRAME ISTACK, 0, STACK
        ARGFRAME PSTACK, 0, STACK
        ARGFRAME XSTACK, 19, STACK
        ARGFRAME IOVERLAY, 0, STATIC
        ARGFRAME DOVERLAY, 0, STATIC
        FUNCALL controlEpProcess, PutString_cn
        LOCFRAME ISTACK, 0, STACK
        LOCFRAME PSTACK, 0, STACK
        LOCFRAME XSTACK, 19, STACK
        LOCFRAME IOVERLAY, 0, STATIC
        LOCFRAME DOVERLAY, 0, STATIC
        ARGFRAME ISTACK, 0, STACK
        ARGFRAME PSTACK, 0, STACK
        ARGFRAME XSTACK, 19, STACK
        ARGFRAME IOVERLAY, 0, STATIC
        ARGFRAME DOVERLAY, 0, STATIC
        FUNCALL controlEpProcess, PutString_cn
        LOCFRAME ISTACK, 0, STACK
        LOCFRAME PSTACK, 0, STACK
        LOCFRAME XSTACK, 19, STACK
        LOCFRAME IOVERLAY, 0, STATIC
        LOCFRAME DOVERLAY, 0, STATIC
        ARGFRAME ISTACK, 0, STACK
        ARGFRAME PSTACK, 0, STACK
        ARGFRAME XSTACK, 19, STACK
        ARGFRAME IOVERLAY, 0, STATIC
        ARGFRAME DOVERLAY, 0, STATIC
        FUNCALL controlEpProcess, PutString_cn
        LOCFRAME ISTACK, 0, STACK
        LOCFRAME PSTACK, 0, STACK
        LOCFRAME XSTACK, 19, STACK
        LOCFRAME IOVERLAY, 0, STATIC
        LOCFRAME DOVERLAY, 0, STATIC
        ARGFRAME ISTACK, 0, STACK
        ARGFRAME PSTACK, 0, STACK
        ARGFRAME XSTACK, 19, STACK
        ARGFRAME IOVERLAY, 0, STATIC
        ARGFRAME DOVERLAY, 0, STATIC
        FUNCALL controlEpProcess, SendData
        LOCFRAME ISTACK, 0, STACK
        LOCFRAME PSTACK, 0, STACK
        LOCFRAME XSTACK, 21, STACK
        LOCFRAME IOVERLAY, 0, STATIC
        LOCFRAME DOVERLAY, 0, STATIC
        ARGFRAME ISTACK, 0, STACK
        ARGFRAME PSTACK, 0, STACK
        ARGFRAME XSTACK, 21, STACK
        ARGFRAME IOVERLAY, 0, STATIC
        ARGFRAME DOVERLAY, 0, STATIC
        FUNCALL controlEpProcess, HalLedBlink
        LOCFRAME ISTACK, 0, STACK
        LOCFRAME PSTACK, 0, STACK
        LOCFRAME XSTACK, 19, STACK
        LOCFRAME IOVERLAY, 0, STATIC
        LOCFRAME DOVERLAY, 0, STATIC
        ARGFRAME ISTACK, 0, STACK
        ARGFRAME PSTACK, 0, STACK
        ARGFRAME XSTACK, 19, STACK
        ARGFRAME IOVERLAY, 0, STATIC
        ARGFRAME DOVERLAY, 0, STATIC
        FUNCALL controlEpProcess, osal_msg_deallocate
        LOCFRAME ISTACK, 0, STACK
        LOCFRAME PSTACK, 0, STACK
        LOCFRAME XSTACK, 19, STACK
        LOCFRAME IOVERLAY, 0, STATIC
        LOCFRAME DOVERLAY, 0, STATIC
        ARGFRAME ISTACK, 0, STACK
        ARGFRAME PSTACK, 0, STACK
        ARGFRAME XSTACK, 19, STACK
        ARGFRAME IOVERLAY, 0, STATIC
        ARGFRAME DOVERLAY, 0, STATIC
        FUNCALL controlEpProcess, osal_msg_receive
        LOCFRAME ISTACK, 0, STACK
        LOCFRAME PSTACK, 0, STACK
        LOCFRAME XSTACK, 19, STACK
        LOCFRAME IOVERLAY, 0, STATIC
        LOCFRAME DOVERLAY, 0, STATIC
        ARGFRAME ISTACK, 0, STACK
        ARGFRAME PSTACK, 0, STACK
        ARGFRAME XSTACK, 19, STACK
        ARGFRAME IOVERLAY, 0, STATIC
        ARGFRAME DOVERLAY, 0, STATIC
        FUNCALL controlEpProcess, uartMsgProcesser
        LOCFRAME ISTACK, 0, STACK
        LOCFRAME PSTACK, 0, STACK
        LOCFRAME XSTACK, 19, STACK
        LOCFRAME IOVERLAY, 0, STATIC
        LOCFRAME DOVERLAY, 0, STATIC
        ARGFRAME ISTACK, 0, STACK
        ARGFRAME PSTACK, 0, STACK
        ARGFRAME XSTACK, 19, STACK
        ARGFRAME IOVERLAY, 0, STATIC
        ARGFRAME DOVERLAY, 0, STATIC
        FUNCALL controlEpProcess, HalLedBlink
        LOCFRAME ISTACK, 0, STACK
        LOCFRAME PSTACK, 0, STACK
        LOCFRAME XSTACK, 19, STACK
        LOCFRAME IOVERLAY, 0, STATIC
        LOCFRAME DOVERLAY, 0, STATIC
        ARGFRAME ISTACK, 0, STACK
        ARGFRAME PSTACK, 0, STACK
        ARGFRAME XSTACK, 19, STACK
        ARGFRAME IOVERLAY, 0, STATIC
        ARGFRAME DOVERLAY, 0, STATIC
        FUNCALL controlEpProcess, SendData
        LOCFRAME ISTACK, 0, STACK
        LOCFRAME PSTACK, 0, STACK
        LOCFRAME XSTACK, 21, STACK
        LOCFRAME IOVERLAY, 0, STATIC
        LOCFRAME DOVERLAY, 0, STATIC
        ARGFRAME ISTACK, 0, STACK
        ARGFRAME PSTACK, 0, STACK
        ARGFRAME XSTACK, 21, STACK
        ARGFRAME IOVERLAY, 0, STATIC
        ARGFRAME DOVERLAY, 0, STATIC
        FUNCALL controlEpProcess, SendData
        LOCFRAME ISTACK, 0, STACK
        LOCFRAME PSTACK, 0, STACK
        LOCFRAME XSTACK, 21, STACK
        LOCFRAME IOVERLAY, 0, STATIC
        LOCFRAME DOVERLAY, 0, STATIC
        ARGFRAME ISTACK, 0, STACK
        ARGFRAME PSTACK, 0, STACK
        ARGFRAME XSTACK, 21, STACK
        ARGFRAME IOVERLAY, 0, STATIC
        ARGFRAME DOVERLAY, 0, STATIC
        FUNCALL controlEpProcess, SendData
        LOCFRAME ISTACK, 0, STACK
        LOCFRAME PSTACK, 0, STACK
        LOCFRAME XSTACK, 21, STACK
        LOCFRAME IOVERLAY, 0, STATIC
        LOCFRAME DOVERLAY, 0, STATIC
        ARGFRAME ISTACK, 0, STACK
        ARGFRAME PSTACK, 0, STACK
        ARGFRAME XSTACK, 21, STACK
        ARGFRAME IOVERLAY, 0, STATIC
        ARGFRAME DOVERLAY, 0, STATIC
        FUNCALL controlEpProcess, HalLedBlink
        LOCFRAME ISTACK, 0, STACK
        LOCFRAME PSTACK, 0, STACK
        LOCFRAME XSTACK, 19, STACK
        LOCFRAME IOVERLAY, 0, STATIC
        LOCFRAME DOVERLAY, 0, STATIC
        ARGFRAME ISTACK, 0, STACK
        ARGFRAME PSTACK, 0, STACK
        ARGFRAME XSTACK, 19, STACK
        ARGFRAME IOVERLAY, 0, STATIC
        ARGFRAME DOVERLAY, 0, STATIC
        FUNCALL controlEpProcess, osal_start_timerEx
        LOCFRAME ISTACK, 0, STACK
        LOCFRAME PSTACK, 0, STACK
        LOCFRAME XSTACK, 19, STACK
        LOCFRAME IOVERLAY, 0, STATIC
        LOCFRAME DOVERLAY, 0, STATIC
        ARGFRAME ISTACK, 0, STACK
        ARGFRAME PSTACK, 0, STACK
        ARGFRAME XSTACK, 19, STACK
        ARGFRAME IOVERLAY, 0, STATIC
        ARGFRAME DOVERLAY, 0, STATIC
        FUNCALL controlEpProcess, osal_stop_timerEx
        LOCFRAME ISTACK, 0, STACK
        LOCFRAME PSTACK, 0, STACK
        LOCFRAME XSTACK, 19, STACK
        LOCFRAME IOVERLAY, 0, STATIC
        LOCFRAME DOVERLAY, 0, STATIC
        ARGFRAME ISTACK, 0, STACK
        ARGFRAME PSTACK, 0, STACK
        ARGFRAME XSTACK, 19, STACK
        ARGFRAME IOVERLAY, 0, STATIC
        ARGFRAME DOVERLAY, 0, STATIC
        MOV     A,#-0x10
        LCALL   ?BANKED_ENTER_XDATA
        CFI DPH0 load(1, XDATA, add(CFA_XSP16, literal(-1)))
        CFI DPL0 load(1, XDATA, add(CFA_XSP16, literal(-2)))
        CFI ?BRET_EXT load(1, XDATA, add(CFA_XSP16, literal(-3)))
        CFI ?RET_HIGH load(1, XDATA, add(CFA_XSP16, literal(-4)))
        CFI ?RET_LOW load(1, XDATA, add(CFA_XSP16, literal(-5)))
        CFI R7 load(1, XDATA, add(CFA_XSP16, literal(-6)))
        CFI V7 load(1, XDATA, add(CFA_XSP16, literal(-7)))
        CFI V6 load(1, XDATA, add(CFA_XSP16, literal(-8)))
        CFI V5 load(1, XDATA, add(CFA_XSP16, literal(-9)))
        CFI V4 load(1, XDATA, add(CFA_XSP16, literal(-10)))
        CFI V3 load(1, XDATA, add(CFA_XSP16, literal(-11)))
        CFI V2 load(1, XDATA, add(CFA_XSP16, literal(-12)))
        CFI V1 load(1, XDATA, add(CFA_XSP16, literal(-13)))
        CFI V0 load(1, XDATA, add(CFA_XSP16, literal(-14)))
        CFI VB load(1, XDATA, add(CFA_XSP16, literal(-15)))
        CFI R6 load(1, XDATA, add(CFA_XSP16, literal(-16)))
        CFI CFA_SP SP+0
        CFI CFA_XSP16 add(XSP16, 16)
        ; Saved register size: 16
        ; Auto size: 3
        MOV     A,#-0x3
        LCALL   ?ALLOC_XSTACK8
        CFI CFA_XSP16 add(XSP16, 19)
        MOV     ?V0 + 4,R1
        MOV     ?V0 + 2,R2
        MOV     ?V0 + 3,R3
//  172     afIncomingMSGPacket_t *MSGpkt;
//  173     //系统消息事件。
//  174     if ( events & SYS_EVENT_MSG )
        MOV     A,R3
        ANL     A,#0x80
        JNZ     $+5
        LJMP    ??controlEpProcess_0 & 0xFFFF
//  175     {
//  176         MSGpkt = (afIncomingMSGPacket_t *)osal_msg_receive(task_id);
        ; Setup parameters for call to function osal_msg_receive
        LJMP    ??controlEpProcess_1 & 0xFFFF
//  177         while ( MSGpkt )
//  178         {                
//  179             switch ( MSGpkt->hdr.event )
//  180             {         
//  181 //#if defined(ZDO_COORDINATOR) 
//  182 #if defined(ZDO_COORDINATOR) || defined(PEER_ROUTER) || defined(PEER_COORD)              
//  183             case CMD_SERIAL_MSG:
//  184 //              SampleApp_UartMessage((uint8 *)MSGpkt);                                          
//  185                 uartMsgProcesser((uint8 *)MSGpkt);
//  186                 HalLedBlink( HAL_LED_1, 2, 50, 90 );
//  187                 break;
//  188 #endif
//  189             // Received when a messages is received (OTA) for this endpoint
//  190             case AF_INCOMING_MSG_CMD:
//  191             {           
//  192                 #if defined(PEER_ROUTER) || defined(PEER_COORD)
//  193                     HalUARTWrite(HAL_UART_PORT_0, &(MSGpkt->cmd.Data[0]), 2);
//  194                     break;
//  195                 #endif
//  196                 // TODO: QueryProfile or QueryTopo
//  197                 switch(MSGpkt->clusterId)
//  198                 {
//  199                 case SAPP_PERIODIC_CLUSTERID:
//  200                     switch(MSGpkt->cmd.Data[0])
//  201                     {
//  202                     case 0x01:
//  203                         // CtrlQueryProfile
//  204                         // 获取到数据包的来源地址来当做发送数据的目标
//  205                         SendData(CONTROL_ENDPOINT, funcTableBuffer->ft_data, MSGpkt->srcAddr.addr.shortAddr, MSGpkt->srcAddr.endPoint, sizeof(FUNCTABLE) + funcCount * sizeof(FUNCINFO));
//  206                         break;
//  207                     case 0x02:
//  208                         // CtrlQueryTopo
//  209                         // 获取到数据包的来源地址来当做发送数据的目标
//  210                         SendData(CONTROL_ENDPOINT, (unsigned char *)&topoBuffer, MSGpkt->srcAddr.addr.shortAddr, MSGpkt->srcAddr.endPoint, sizeof(TOPOINFO));                        
//  211                         break;
//  212                     case 0x03:
//  213                         // CtrlQuerySpecialFunction
//  214                         // cmd.Data[0] = 3, cmd.Data[1] = funcCode, cmd.Data[2] = funcID
//  215                         {
//  216                             uint8 i;
//  217                             for(i = 0; i < funcTableBuffer->ft_count; i++)
//  218                             {
//  219                                 if((funcTableBuffer->ft_list[i].type == MSGpkt->cmd.Data[1])
//  220                                    && (funcTableBuffer->ft_list[i].id == MSGpkt->cmd.Data[2]))
//  221                                 {
//  222                                     // 0x03, EndPoint, rCycle
//  223                                     uint8 specialFunc[3] = { 0x03, i + 1, funcTableBuffer->ft_list[i].cycle };
//  224                                     SendData(CONTROL_ENDPOINT, specialFunc, MSGpkt->srcAddr.addr.shortAddr, MSGpkt->srcAddr.endPoint, sizeof(specialFunc));
//  225                                     break;
//  226                                 }
//  227                             }
//  228                         }
//  229                         break;
//  230                     default:
//  231                         {
//  232                             int i;
//  233                             for(i = 0; i < funcCount; i++)
//  234                             {
//  235                                 struct ep_info_t *ep = &funcList[i];
//  236                                 if(ep->res_available)   (*ep->res_available)(ep, ResControlPkg, MSGpkt);
//  237                             }
//  238                         }
//  239                         break;
//  240                     }               
//  241                     HalLedBlink( HAL_LED_1, 1, 50, 250 );
//  242                     break;
//  243                 }
//  244                 break;
//  245             }
//  246             // Received whenever the device changes state in the network
//  247             case ZDO_STATE_CHANGE:
//  248             {
//  249                 devStates_t st = (devStates_t)(MSGpkt->hdr.status);
??controlEpProcess_2:
        INC     DPTR
        MOVX    A,@DPTR
        MOV     R0,A
//  250                 if ( (st == DEV_ZB_COORD)
//  251                         || (st == DEV_ROUTER)
//  252                         || (st == DEV_END_DEVICE) )
        MOV     A,#0x9
        XRL     A,R0
        JZ      ??controlEpProcess_3
        MOV     A,#0x7
        XRL     A,R0
        JZ      ??controlEpProcess_3
        MOV     A,#0x6
        XRL     A,R0
        JZ      $+5
        LJMP    ??controlEpProcess_4 & 0xFFFF
//  253                 {
//  254 //                  topoBuffer->type = 0x02;
//  255                     memcpy(topoBuffer.IEEE, NLME_GetExtAddr(), 8);
??controlEpProcess_3:
        ; Setup parameters for call to function memcpy
        MOV     ?V0 + 6,#0x8
        MOV     ?V0 + 7,#0x0
        MOV     R0,#?V0 + 6
        LCALL   ?PUSH_XSTACK_I_TWO
        CFI CFA_XSP16 add(XSP16, 21)
        ; Setup parameters for call to function NLME_GetExtAddr
        LCALL   ??NLME_GetExtAddr?relay
        MOV     A,R2
        MOV     R4,A
        MOV     A,R3
        MOV     R5,A
        MOV     R2,#(topoBuffer + 1) & 0xff
        MOV     R3,#((topoBuffer + 1) >> 8) & 0xff
        LCALL   ??memcpy?relay
        MOV     A,#0x2
        LCALL   ?DEALLOC_XSTACK8
        CFI CFA_XSP16 add(XSP16, 19)
//  256 #if !defined(ZDO_COORDINATOR)
//  257                     topoBuffer.PAddr = NLME_GetCoordShortAddr();
//  258 #else                                                             
//  259                     topoBuffer.PAddr = 0xFFFF;
        MOV     DPTR,#topoBuffer + 9
        MOV     A,#-0x1
        MOVX    @DPTR,A
        INC     DPTR
        MOVX    @DPTR,A
//  260                     uint8 i,TxPower;
//  261                     uint16 SrcSaddr;
//  262                     uint8 *LongAddr;//物理地址
//  263                     //显示协调器的配置信息
//  264                     ClrScreen();                                               
        ; Setup parameters for call to function ClrScreen
        LCALL   ?Subroutine31 & 0xFFFF
//  265                     PutString_cn(24,0,"网络协调器");
//  266                     TxPower = TXPOWER;
??CrossCallReturnLabel_43:
        MOV     DPTR,#0x6190
        MOVX    A,@DPTR
        MOV     ?V0 + 6,A
//  267                     HalLcdWriteStringValue( "Send Power:",TxPower, 16, HAL_LCD_LINE_2);                                           
        ; Setup parameters for call to function HalLcdWriteStringValue
        MOV     ?V0 + 5,#0x2
        MOV     R0,#?V0 + 5
        LCALL   ?PUSH_XSTACK_I_ONE
        CFI CFA_XSP16 add(XSP16, 20)
        MOV     R1,#0x10
        MOV     R4,?V0 + 6
        MOV     R5,#0x0
        MOV     R2,#`?<Constant "Send Power:">` & 0xff
        MOV     R3,#(`?<Constant "Send Power:">` >> 8) & 0xff
        LCALL   ??HalLcdWriteStringValue?relay
        MOV     A,#0x1
        LCALL   ?DEALLOC_XSTACK8
        CFI CFA_XSP16 add(XSP16, 19)
//  268                     SrcSaddr = NLME_GetShortAddr();
//  269                     HalLcdWriteStringValue( "Short Addr:",SrcSaddr, 16, HAL_LCD_LINE_3);
        ; Setup parameters for call to function HalLcdWriteStringValue
        MOV     ?V0 + 5,#0x3
        MOV     R0,#?V0 + 5
        LCALL   ?PUSH_XSTACK_I_ONE
        CFI CFA_XSP16 add(XSP16, 20)
        ; Setup parameters for call to function NLME_GetShortAddr
        LCALL   ??NLME_GetShortAddr?relay
        MOV     A,R2
        MOV     R4,A
        MOV     A,R3
        MOV     R5,A
        MOV     A,#0x10
        MOV     R1,A
        MOV     R2,#`?<Constant "Short Addr:">` & 0xff
        MOV     R3,#(`?<Constant "Short Addr:">` >> 8) & 0xff
        LCALL   ??HalLcdWriteStringValue?relay
        MOV     A,#0x1
        LCALL   ?DEALLOC_XSTACK8
        CFI CFA_XSP16 add(XSP16, 19)
//  270                     LongAddr = NLME_GetExtAddr();  
        ; Setup parameters for call to function NLME_GetExtAddr
        LCALL   ??NLME_GetExtAddr?relay
        MOV     ?V0 + 6,R2
        MOV     ?V0 + 7,R3
        MOV     R6,?V0 + 6
//  271                     for(i=0;i<8;i++)
        MOV     ?V0 + 5,#0x0
//  272                         PutAbyte(i*16,48,LongAddr[i]);                                                                                                                                                                                                
??controlEpProcess_5:
        ; Setup parameters for call to function PutAbyte
        MOV     ?V0 + 6,?V0 + 5
        MOV     A,R6
        ADD     A,?V0 + 6
        MOV     DPL,A
        MOV     A,?V0 + 7
        LCALL   ??Subroutine47_0 & 0xFFFF
??CrossCallReturnLabel_79:
        MOV     R3,A
        MOV     R2,#0x30
        MOV     A,?V0 + 5
        SWAP    A
        ANL     A,#0xf0
        MOV     R1,A
        LCALL   ??PutAbyte?relay
        INC     ?V0 + 5
        MOV     A,?V0 + 5
        CLR     C
        SUBB    A,#0x8
        JC      ??controlEpProcess_5
//  273                     for(i=0;i<30;i++){
        MOV     R6,#0x1e
//  274                         TimeDelay(60000);
??controlEpProcess_6:
        ; Setup parameters for call to function TimeDelay
        MOV     R2,#0x60
        MOV     R3,#-0x16
        LCALL   ??TimeDelay?relay
//  275                     }
        DEC     R6
        MOV     A,R6
        JNZ     ??controlEpProcess_6
//  276                     ClrScreen();                                                                                               
        ; Setup parameters for call to function ClrScreen
        LCALL   ?Subroutine5 & 0xFFFF
//  277                     PutString_cn(24,0,"网络协调器");	
//  278                     PutString_cn(0,16,"---------------");	                                                
//  279                     PutString_cn(4,32,"网络已成功建立");	
??CrossCallReturnLabel_0:
        ; Setup parameters for call to function PutString_cn
        MOV     R4,#`?<Constant "\\315\\370\\302\\347\\322\\321\\263\\311\\2` & 0xff
        MOV     R5,#(`?<Constant "\\315\\370\\302\\347\\322\\321\\263\\311\\2` >> 8) & 0xff
        MOV     R2,#0x20
        MOV     R1,#0x4
        LCALL   ??PutString_cn?relay
//  280                     PutString_cn(4,48,"可接收节点加入");	
        ; Setup parameters for call to function PutString_cn
        MOV     R4,#`?<Constant "\\277\\311\\275\\323\\312\\325\\275\\332\\2` & 0xff
        MOV     R5,#(`?<Constant "\\277\\311\\275\\323\\312\\325\\275\\332\\2` >> 8) & 0xff
        MOV     R2,#0x30
        MOV     R1,#0x4
        LCALL   ??PutString_cn?relay
//  281                     
//  282 #endif
//  283                     //向协调器发送拓扑信息
//  284                     SendData(CONTROL_ENDPOINT, (unsigned char *)&topoBuffer, 0x0000, TRANSFER_ENDPOINT, sizeof(TOPOINFO));
        ; Setup parameters for call to function SendData
        MOV     ?V0 + 5,#0xb
        MOV     R0,#?V0 + 5
        LCALL   ?PUSH_XSTACK_I_ONE
        CFI CFA_XSP16 add(XSP16, 20)
        MOV     ?V0 + 5,#0x1
        MOV     R0,#?V0 + 5
        LCALL   ?PUSH_XSTACK_I_ONE
        CFI CFA_XSP16 add(XSP16, 21)
        MOV     R4,#0x0
        MOV     R5,#0x0
        MOV     R2,#topoBuffer & 0xff
        MOV     R3,#(topoBuffer >> 8) & 0xff
??controlEpProcess_7:
        MOV     R1,#-0x10
        LCALL   ??SendData?relay
        MOV     A,#0x2
        LCALL   ?DEALLOC_XSTACK8
        CFI CFA_XSP16 add(XSP16, 19)
//  285                     HalLedBlink( HAL_LED_1, 1, 50, 250 );
        ; Setup parameters for call to function HalLedBlink
??controlEpProcess_8:
        MOV     R4,#-0x6
        MOV     R5,#0x0
        MOV     R3,#0x32
        MOV     R2,#0x1
??controlEpProcess_9:
        MOV     R1,#0x1
        LCALL   ??HalLedBlink?relay
//  286                 }
//  287             }
//  288             break;
//  289             default:
//  290                 break;
//  291             }
//  292             // Release the memory
//  293             osal_msg_deallocate( (uint8 *)MSGpkt );
??controlEpProcess_4:
        ; Setup parameters for call to function osal_msg_deallocate
        MOV     R2,?V0 + 0
        MOV     R3,?V0 + 1
        LCALL   ??osal_msg_deallocate?relay
//  294             // Next - if one is available
//  295             MSGpkt = (afIncomingMSGPacket_t *)osal_msg_receive( task_id );
        ; Setup parameters for call to function osal_msg_receive
        MOV     R1,?V0 + 4
??controlEpProcess_1:
        LCALL   ??osal_msg_receive?relay
        MOV     ?V0 + 0,R2
        MOV     ?V0 + 1,R3
        MOV     A,?V0 + 0
        ORL     A,?V0 + 1
        JNZ     $+5
        LJMP    ??controlEpProcess_10 & 0xFFFF
        MOV     DPL,?V0 + 0
        MOV     DPH,?V0 + 1
        MOVX    A,@DPTR
        DEC     A
        JZ      ??controlEpProcess_11
        ADD     A,#-0x19
        JZ      ??controlEpProcess_12
        ADD     A,#0x49
        JNZ     $+5
        LJMP    ??controlEpProcess_2 & 0xFFFF
        SJMP    ??controlEpProcess_4
??controlEpProcess_11:
        ; Setup parameters for call to function uartMsgProcesser
        MOV     R2,?V0 + 0
        MOV     R3,?V0 + 1
        LCALL   ??uartMsgProcesser?relay
        ; Setup parameters for call to function HalLedBlink
        MOV     R4,#0x5a
        MOV     R5,#0x0
        MOV     R3,#0x32
        MOV     R2,#0x2
        SJMP    ??controlEpProcess_9
??controlEpProcess_12:
        INC     DPTR
        INC     DPTR
        INC     DPTR
        INC     DPTR
        MOVX    A,@DPTR
        XRL     A,#0x1
        JNZ     ??controlEpProcess_13
        INC     DPTR
        MOVX    A,@DPTR
??controlEpProcess_13:
        JNZ     ??controlEpProcess_4
        MOV     A,?V0 + 0
        ADD     A,#0x22
        MOV     DPL,A
        MOV     A,?V0 + 1
        LCALL   ??Subroutine51_0 & 0xFFFF
??CrossCallReturnLabel_97:
        LCALL   ??Subroutine43_0 & 0xFFFF
??CrossCallReturnLabel_67:
        MOVX    A,@DPTR
        DEC     A
        JZ      ??controlEpProcess_14
        DEC     A
        JZ      ??controlEpProcess_15
        DEC     A
        JZ      ??controlEpProcess_16
        LJMP    ??controlEpProcess_17 & 0xFFFF
??controlEpProcess_14:
        ; Setup parameters for call to function SendData
        MOV     B,#0x3
        MOV     DPTR,#funcCount
        MOVX    A,@DPTR
        MUL     AB
        ADD     A,#0x2
        MOV     ?V0 + 5,A
        MOV     R0,#?V0 + 5
        LCALL   ?PUSH_XSTACK_I_ONE
        CFI CFA_XSP16 add(XSP16, 20)
        LCALL   ?Subroutine15 & 0xFFFF
??CrossCallReturnLabel_16:
        LCALL   ?PUSH_XSTACK_I_ONE
        CFI CFA_XSP16 add(XSP16, 21)
        LCALL   ?Subroutine12 & 0xFFFF
??CrossCallReturnLabel_94:
        MOV     DPTR,#funcTableBuffer
        MOVX    A,@DPTR
        MOV     R2,A
        INC     DPTR
        MOVX    A,@DPTR
        MOV     R3,A
??controlEpProcess_18:
        LJMP    ??controlEpProcess_7 & 0xFFFF
        CFI CFA_XSP16 add(XSP16, 19)
??controlEpProcess_15:
        ; Setup parameters for call to function SendData
        MOV     ?V0 + 5,#0xb
        MOV     R0,#?V0 + 5
        LCALL   ?PUSH_XSTACK_I_ONE
        CFI CFA_XSP16 add(XSP16, 20)
        LCALL   ?Subroutine15 & 0xFFFF
??CrossCallReturnLabel_17:
        LCALL   ?PUSH_XSTACK_I_ONE
        CFI CFA_XSP16 add(XSP16, 21)
        LCALL   ?Subroutine12 & 0xFFFF
??CrossCallReturnLabel_95:
        MOV     R2,#topoBuffer & 0xff
        MOV     R3,#(topoBuffer >> 8) & 0xff
        SJMP    ??controlEpProcess_18
        CFI CFA_XSP16 add(XSP16, 19)
??controlEpProcess_16:
        MOV     R3,#0x0
        SJMP    ??controlEpProcess_19
??controlEpProcess_20:
        INC     R3
??controlEpProcess_19:
        LCALL   ?Subroutine9 & 0xFFFF
??CrossCallReturnLabel_74:
        INC     DPTR
        MOVX    A,@DPTR
        MOV     R0,A
        MOV     A,R3
        CLR     C
        SUBB    A,R0
        JC      $+5
        LJMP    ??controlEpProcess_8 & 0xFFFF
        MOV     A,R3
        MOV     B,#0x3
        MUL     AB
        MOV     R0,A
        MOV     R1,B
        LCALL   ?Subroutine32 & 0xFFFF
??CrossCallReturnLabel_45:
        LCALL   ?Subroutine8 & 0xFFFF
??CrossCallReturnLabel_6:
        MOVX    A,@DPTR
        XRL     A,R0
        JNZ     ??controlEpProcess_20
        MOV     A,R3
        MOV     B,#0x3
        MUL     AB
        MOV     R0,A
        MOV     R1,B
        MOV     DPTR,#funcTableBuffer
        MOVX    A,@DPTR
        ADD     A,R0
        INC     DPTR
        MOVX    A,@DPTR
        ADDC    A,R1
        MOV     DPL,R2
        MOV     DPH,A
        INC     DPTR
        LCALL   ?Subroutine8 & 0xFFFF
??CrossCallReturnLabel_7:
        INC     DPTR
        MOVX    A,@DPTR
        XRL     A,R0
        JNZ     ??controlEpProcess_20
        MOV     DPL,?XSP + 0
        MOV     DPH,?XSP + 1
        MOV     R4,DPL
        MOV     R5,DPH
        MOV     DPH,#(`?<Constant {3, 0, 0}>` >> 8) & 0xff
        MOV     DPL,#`?<Constant {3, 0, 0}>` & 0xff
        MOV     A,#0x3
        LCALL   ?MOVE_LONG8_XDATA_XDATA
        INC     A
        ADD     A,R3
        PUSH    A
        CFI CFA_SP SP+-1
        MOV     A,#0x1
        LCALL   ?XSTACK_DISP0_8
        POP     A
        CFI CFA_SP SP+0
        MOVX    @DPTR,A
        MOV     A,R3
        MOV     B,#0x3
        MUL     AB
        MOV     R0,A
        MOV     R1,B
        LCALL   ?Subroutine11 & 0xFFFF
??CrossCallReturnLabel_11:
        MOVX    A,@DPTR
        PUSH    A
        CFI CFA_SP SP+-1
        MOV     A,#0x2
        LCALL   ?XSTACK_DISP0_8
        POP     A
        CFI CFA_SP SP+0
        MOVX    @DPTR,A
        ; Setup parameters for call to function SendData
        MOV     ?V0 + 5,#0x3
        MOV     R0,#?V0 + 5
        LCALL   ?PUSH_XSTACK_I_ONE
        CFI CFA_XSP16 add(XSP16, 20)
        LCALL   ?Subroutine15 & 0xFFFF
??CrossCallReturnLabel_18:
        LCALL   ?PUSH_XSTACK_I_ONE
        CFI CFA_XSP16 add(XSP16, 21)
        LCALL   ?Subroutine12 & 0xFFFF
??CrossCallReturnLabel_96:
        MOV     A,#0x2
        LCALL   ?XSTACK_DISP0_8
        MOV     R2,DPL
        MOV     R3,DPH
        LJMP    ??controlEpProcess_7 & 0xFFFF
        CFI CFA_XSP16 add(XSP16, 19)
??controlEpProcess_17:
        MOV     R6,#0x0
        MOV     R7,#0x0
        SJMP    ??CrossCallReturnLabel_35
??controlEpProcess_21:
        LCALL   ?Subroutine23 & 0xFFFF
??CrossCallReturnLabel_27:
        LCALL   ?Subroutine6 & 0xFFFF
??CrossCallReturnLabel_61:
        JZ      ??controlEpProcess_22
        ; Setup parameters for indirect call
        MOV     R4,?V0 + 0
        MOV     R5,?V0 + 1
        MOV     R1,#0x4
        MOV     DPL,R2
        MOV     DPH,R3
        INC     DPTR
        INC     DPTR
        INC     DPTR
        INC     DPTR
        INC     DPTR
        INC     DPTR
        LCALL   ??Subroutine44_0 & 0xFFFF
??CrossCallReturnLabel_65:
        LCALL   ?CALL_IND
??controlEpProcess_22:
        LCALL   ?Subroutine27 & 0xFFFF
??CrossCallReturnLabel_35:
        LCALL   ?Subroutine7 & 0xFFFF
??CrossCallReturnLabel_4:
        JC      ??controlEpProcess_21
        ; Setup parameters for call to function HalLedBlink
        LJMP    ??controlEpProcess_8 & 0xFFFF
//  296         }
//  297         // return unprocessed events
//  298         return (events ^ SYS_EVENT_MSG);  //返回当前任务待处理事件标志。
??controlEpProcess_10:
        MOV     R2,?V0 + 2
        MOV     A,?V0 + 3
        XRL     A,#0x80
        MOV     R3,A
        SJMP    ??controlEpProcess_23
//  299     }
//  300     // 定时器时间到, 遍历所有端点看是否有userTimer
//  301     if(events & SAPP_SEND_PERIODIC_MSG_EVT)
??controlEpProcess_0:
        MOV     A,R2
        MOV     C,0xE0 /* A   */.0
        JNC     ??controlEpProcess_24
//  302     {
//  303         int i;
//  304         uint8 hasUserTimer = 0;
        MOV     ?V0 + 0,#0x0
//  305         for(i = 0; i < funcCount; i++)
        MOV     R6,#0x0
        MOV     R7,#0x0
        SJMP    ??CrossCallReturnLabel_36
//  306         {
//  307             struct ep_info_t *ep = &funcList[i];
??controlEpProcess_25:
        LCALL   ?Subroutine23 & 0xFFFF
//  308             if(ep->userTimer && ep->res_available)
??CrossCallReturnLabel_28:
        LCALL   ?Subroutine16 & 0xFFFF
??CrossCallReturnLabel_85:
        JZ      ??controlEpProcess_26
        LCALL   ?Subroutine6 & 0xFFFF
??CrossCallReturnLabel_62:
        JZ      ??controlEpProcess_26
//  309             {
//  310                 hasUserTimer = 1;
        MOV     ?V0 + 0,#0x1
//  311                 ep->userTimer = ep->userTimer - 1;
        LCALL   ?Subroutine16 & 0xFFFF
??CrossCallReturnLabel_86:
        DEC     A
        MOVX    @DPTR,A
//  312                 if(ep->userTimer <= 1)
        CLR     C
        SUBB    A,#0x2
        JNC     ??controlEpProcess_26
//  313                 {
//  314                     ep->userTimer = 0;
        CLR     A
        MOVX    @DPTR,A
//  315                     (*ep->res_available)(ep, ResUserTimer, NULL);
        ; Setup parameters for indirect call
        MOV     R4,A
        MOV     R5,A
        MOV     R1,#0x3
        MOV     DPL,R2
        MOV     DPH,R3
        INC     DPTR
        INC     DPTR
        INC     DPTR
        INC     DPTR
        INC     DPTR
        INC     DPTR
        LCALL   ??Subroutine43_0 & 0xFFFF
//  316                 }
//  317             }
//  318         }
??CrossCallReturnLabel_68:
        LCALL   ?CALL_IND
??controlEpProcess_26:
        LCALL   ?Subroutine27 & 0xFFFF
??CrossCallReturnLabel_36:
        LCALL   ?Subroutine7 & 0xFFFF
??CrossCallReturnLabel_5:
        JC      ??controlEpProcess_25
//  319         if(hasUserTimer)
        MOV     A,?V0 + 0
        MOV     C,0xE0 /* A   */.0
        JNC     ??controlEpProcess_27
//  320         {
//  321             // 重新启动定时器
//  322             osal_start_timerEx(task_id, SAPP_SEND_PERIODIC_MSG_EVT, 1000);
        ; Setup parameters for call to function osal_start_timerEx
        MOV     R4,#-0x18
        MOV     R5,#0x3
        MOV     R2,#0x1
        MOV     R3,#0x0
        MOV     R1,?V0 + 4
        LCALL   ??osal_start_timerEx?relay
        SJMP    ??controlEpProcess_28
//  323         }
//  324         else
//  325         {
//  326             isUserTimerRunning = 0;
??controlEpProcess_27:
        MOV     DPTR,#isUserTimerRunning
        CLR     A
        MOVX    @DPTR,A
//  327             osal_stop_timerEx(task_id, SAPP_SEND_PERIODIC_MSG_EVT);
        ; Setup parameters for call to function osal_stop_timerEx
        MOV     R2,#0x1
        MOV     R3,A
        MOV     R1,?V0 + 4
        LCALL   ??osal_stop_timerEx?relay
//  328         }
//  329         // return unprocessed events
//  330         return (events ^ SAPP_SEND_PERIODIC_MSG_EVT);
??controlEpProcess_28:
        MOV     A,?V0 + 2
        XRL     A,#0x1
        MOV     R2,A
        MOV     R3,?V0 + 3
        SJMP    ??controlEpProcess_23
//  331     }
//  332     // Discard unknown events
//  333     return 0;
??controlEpProcess_24:
        MOV     R2,#0x0
        MOV     R3,#0x0
??controlEpProcess_23:
        MOV     A,#0x3
        LCALL   ?DEALLOC_XSTACK8
        CFI CFA_XSP16 add(XSP16, 16)
        MOV     R7,#0x8
        LJMP    ?BANKED_LEAVE_XDATA
        CFI EndBlock cfiBlock71
//  334 }

        RSEG BANKED_CODE:CODE:NOROOT(0)
?Subroutine27:
        CFI Block cfiCond72 Using cfiCommon0
        CFI NoFunction
        CFI Conditional ??CrossCallReturnLabel_33
        CFI R6 load(1, XDATA, add(CFA_XSP16, literal(-10)))
        CFI VB load(1, XDATA, add(CFA_XSP16, literal(-9)))
        CFI V0 load(1, XDATA, add(CFA_XSP16, literal(-8)))
        CFI V1 load(1, XDATA, add(CFA_XSP16, literal(-7)))
        CFI R7 load(1, XDATA, add(CFA_XSP16, literal(-6)))
        CFI ?RET_LOW load(1, XDATA, add(CFA_XSP16, literal(-5)))
        CFI ?RET_HIGH load(1, XDATA, add(CFA_XSP16, literal(-4)))
        CFI ?BRET_EXT load(1, XDATA, add(CFA_XSP16, literal(-3)))
        CFI DPL0 load(1, XDATA, add(CFA_XSP16, literal(-2)))
        CFI DPH0 load(1, XDATA, add(CFA_XSP16, literal(-1)))
        CFI CFA_SP SP+0
        CFI CFA_XSP16 add(XSP16, 10)
        CFI Block cfiCond73 Using cfiCommon0
        CFI (cfiCond73) NoFunction
        CFI (cfiCond73) Conditional ??CrossCallReturnLabel_34
        CFI (cfiCond73) R6 load(1, XDATA, add(CFA_XSP16, literal(-10)))
        CFI (cfiCond73) VB load(1, XDATA, add(CFA_XSP16, literal(-9)))
        CFI (cfiCond73) V0 load(1, XDATA, add(CFA_XSP16, literal(-8)))
        CFI (cfiCond73) V1 load(1, XDATA, add(CFA_XSP16, literal(-7)))
        CFI (cfiCond73) R7 load(1, XDATA, add(CFA_XSP16, literal(-6)))
        CFI (cfiCond73) ?RET_LOW load(1, XDATA, add(CFA_XSP16, literal(-5)))
        CFI (cfiCond73) ?RET_HIGH load(1, XDATA, add(CFA_XSP16, literal(-4)))
        CFI (cfiCond73) ?BRET_EXT load(1, XDATA, add(CFA_XSP16, literal(-3)))
        CFI (cfiCond73) DPL0 load(1, XDATA, add(CFA_XSP16, literal(-2)))
        CFI (cfiCond73) DPH0 load(1, XDATA, add(CFA_XSP16, literal(-1)))
        CFI (cfiCond73) CFA_SP SP+0
        CFI (cfiCond73) CFA_XSP16 add(XSP16, 10)
        CFI Block cfiCond74 Using cfiCommon0
        CFI (cfiCond74) NoFunction
        CFI (cfiCond74) Conditional ??CrossCallReturnLabel_35
        CFI (cfiCond74) R6 load(1, XDATA, add(CFA_XSP16, literal(-16)))
        CFI (cfiCond74) VB load(1, XDATA, add(CFA_XSP16, literal(-15)))
        CFI (cfiCond74) V0 load(1, XDATA, add(CFA_XSP16, literal(-14)))
        CFI (cfiCond74) V1 load(1, XDATA, add(CFA_XSP16, literal(-13)))
        CFI (cfiCond74) V2 load(1, XDATA, add(CFA_XSP16, literal(-12)))
        CFI (cfiCond74) V3 load(1, XDATA, add(CFA_XSP16, literal(-11)))
        CFI (cfiCond74) V4 load(1, XDATA, add(CFA_XSP16, literal(-10)))
        CFI (cfiCond74) V5 load(1, XDATA, add(CFA_XSP16, literal(-9)))
        CFI (cfiCond74) V6 load(1, XDATA, add(CFA_XSP16, literal(-8)))
        CFI (cfiCond74) V7 load(1, XDATA, add(CFA_XSP16, literal(-7)))
        CFI (cfiCond74) R7 load(1, XDATA, add(CFA_XSP16, literal(-6)))
        CFI (cfiCond74) ?RET_LOW load(1, XDATA, add(CFA_XSP16, literal(-5)))
        CFI (cfiCond74) ?RET_HIGH load(1, XDATA, add(CFA_XSP16, literal(-4)))
        CFI (cfiCond74) ?BRET_EXT load(1, XDATA, add(CFA_XSP16, literal(-3)))
        CFI (cfiCond74) DPL0 load(1, XDATA, add(CFA_XSP16, literal(-2)))
        CFI (cfiCond74) DPH0 load(1, XDATA, add(CFA_XSP16, literal(-1)))
        CFI (cfiCond74) CFA_SP SP+0
        CFI (cfiCond74) CFA_XSP16 add(XSP16, 19)
        CFI Block cfiCond75 Using cfiCommon0
        CFI (cfiCond75) NoFunction
        CFI (cfiCond75) Conditional ??CrossCallReturnLabel_36
        CFI (cfiCond75) R6 load(1, XDATA, add(CFA_XSP16, literal(-16)))
        CFI (cfiCond75) VB load(1, XDATA, add(CFA_XSP16, literal(-15)))
        CFI (cfiCond75) V0 load(1, XDATA, add(CFA_XSP16, literal(-14)))
        CFI (cfiCond75) V1 load(1, XDATA, add(CFA_XSP16, literal(-13)))
        CFI (cfiCond75) V2 load(1, XDATA, add(CFA_XSP16, literal(-12)))
        CFI (cfiCond75) V3 load(1, XDATA, add(CFA_XSP16, literal(-11)))
        CFI (cfiCond75) V4 load(1, XDATA, add(CFA_XSP16, literal(-10)))
        CFI (cfiCond75) V5 load(1, XDATA, add(CFA_XSP16, literal(-9)))
        CFI (cfiCond75) V6 load(1, XDATA, add(CFA_XSP16, literal(-8)))
        CFI (cfiCond75) V7 load(1, XDATA, add(CFA_XSP16, literal(-7)))
        CFI (cfiCond75) R7 load(1, XDATA, add(CFA_XSP16, literal(-6)))
        CFI (cfiCond75) ?RET_LOW load(1, XDATA, add(CFA_XSP16, literal(-5)))
        CFI (cfiCond75) ?RET_HIGH load(1, XDATA, add(CFA_XSP16, literal(-4)))
        CFI (cfiCond75) ?BRET_EXT load(1, XDATA, add(CFA_XSP16, literal(-3)))
        CFI (cfiCond75) DPL0 load(1, XDATA, add(CFA_XSP16, literal(-2)))
        CFI (cfiCond75) DPH0 load(1, XDATA, add(CFA_XSP16, literal(-1)))
        CFI (cfiCond75) CFA_SP SP+0
        CFI (cfiCond75) CFA_XSP16 add(XSP16, 19)
        CFI Block cfiPicker76 Using cfiCommon1
        CFI (cfiPicker76) NoFunction
        CFI (cfiPicker76) Picker
        MOV     A,R6
        ADD     A,#0x1
        INC     R6
        MOV     A,R7
        ADDC    A,#0x0
        MOV     R7,A
        RET
        CFI EndBlock cfiCond72
        CFI EndBlock cfiCond73
        CFI EndBlock cfiCond74
        CFI EndBlock cfiCond75
        CFI EndBlock cfiPicker76

        RSEG BANKED_CODE:CODE:NOROOT(0)
?Subroutine23:
        CFI Block cfiCond77 Using cfiCommon0
        CFI NoFunction
        CFI Conditional ??CrossCallReturnLabel_27
        CFI R6 load(1, XDATA, add(CFA_XSP16, literal(-16)))
        CFI VB load(1, XDATA, add(CFA_XSP16, literal(-15)))
        CFI V0 load(1, XDATA, add(CFA_XSP16, literal(-14)))
        CFI V1 load(1, XDATA, add(CFA_XSP16, literal(-13)))
        CFI V2 load(1, XDATA, add(CFA_XSP16, literal(-12)))
        CFI V3 load(1, XDATA, add(CFA_XSP16, literal(-11)))
        CFI V4 load(1, XDATA, add(CFA_XSP16, literal(-10)))
        CFI V5 load(1, XDATA, add(CFA_XSP16, literal(-9)))
        CFI V6 load(1, XDATA, add(CFA_XSP16, literal(-8)))
        CFI V7 load(1, XDATA, add(CFA_XSP16, literal(-7)))
        CFI R7 load(1, XDATA, add(CFA_XSP16, literal(-6)))
        CFI ?RET_LOW load(1, XDATA, add(CFA_XSP16, literal(-5)))
        CFI ?RET_HIGH load(1, XDATA, add(CFA_XSP16, literal(-4)))
        CFI ?BRET_EXT load(1, XDATA, add(CFA_XSP16, literal(-3)))
        CFI DPL0 load(1, XDATA, add(CFA_XSP16, literal(-2)))
        CFI DPH0 load(1, XDATA, add(CFA_XSP16, literal(-1)))
        CFI CFA_SP SP+0
        CFI CFA_XSP16 add(XSP16, 19)
        CFI Block cfiCond78 Using cfiCommon0
        CFI (cfiCond78) NoFunction
        CFI (cfiCond78) Conditional ??CrossCallReturnLabel_28
        CFI (cfiCond78) R6 load(1, XDATA, add(CFA_XSP16, literal(-16)))
        CFI (cfiCond78) VB load(1, XDATA, add(CFA_XSP16, literal(-15)))
        CFI (cfiCond78) V0 load(1, XDATA, add(CFA_XSP16, literal(-14)))
        CFI (cfiCond78) V1 load(1, XDATA, add(CFA_XSP16, literal(-13)))
        CFI (cfiCond78) V2 load(1, XDATA, add(CFA_XSP16, literal(-12)))
        CFI (cfiCond78) V3 load(1, XDATA, add(CFA_XSP16, literal(-11)))
        CFI (cfiCond78) V4 load(1, XDATA, add(CFA_XSP16, literal(-10)))
        CFI (cfiCond78) V5 load(1, XDATA, add(CFA_XSP16, literal(-9)))
        CFI (cfiCond78) V6 load(1, XDATA, add(CFA_XSP16, literal(-8)))
        CFI (cfiCond78) V7 load(1, XDATA, add(CFA_XSP16, literal(-7)))
        CFI (cfiCond78) R7 load(1, XDATA, add(CFA_XSP16, literal(-6)))
        CFI (cfiCond78) ?RET_LOW load(1, XDATA, add(CFA_XSP16, literal(-5)))
        CFI (cfiCond78) ?RET_HIGH load(1, XDATA, add(CFA_XSP16, literal(-4)))
        CFI (cfiCond78) ?BRET_EXT load(1, XDATA, add(CFA_XSP16, literal(-3)))
        CFI (cfiCond78) DPL0 load(1, XDATA, add(CFA_XSP16, literal(-2)))
        CFI (cfiCond78) DPH0 load(1, XDATA, add(CFA_XSP16, literal(-1)))
        CFI (cfiCond78) CFA_SP SP+0
        CFI (cfiCond78) CFA_XSP16 add(XSP16, 19)
        CFI Block cfiPicker79 Using cfiCommon1
        CFI (cfiPicker79) NoFunction
        CFI (cfiPicker79) Picker
        MOV     A,R6
        MOV     R0,A
        MOV     A,R7
        MOV     R1,A
        MOV     A,R0
        MOV     B,#0x21
        MUL     AB
        MOV     R0,A
        MOV     R2,B
        MOV     B,#0x21
        MOV     A,R1
        MUL     AB
        ADD     A,R2
        MOV     R1,A
        MOV     A,#funcList & 0xff
        ADD     A,R0
        MOV     R2,A
        MOV     A,#(funcList >> 8) & 0xff
        ADDC    A,R1
        MOV     R3,A
        RET
        CFI EndBlock cfiCond77
        CFI EndBlock cfiCond78
        CFI EndBlock cfiPicker79

        RSEG BANKED_CODE:CODE:NOROOT(0)
?Subroutine15:
        CFI Block cfiCond80 Using cfiCommon0
        CFI NoFunction
        CFI Conditional ??CrossCallReturnLabel_16
        CFI R6 load(1, XDATA, add(CFA_XSP16, literal(-16)))
        CFI VB load(1, XDATA, add(CFA_XSP16, literal(-15)))
        CFI V0 load(1, XDATA, add(CFA_XSP16, literal(-14)))
        CFI V1 load(1, XDATA, add(CFA_XSP16, literal(-13)))
        CFI V2 load(1, XDATA, add(CFA_XSP16, literal(-12)))
        CFI V3 load(1, XDATA, add(CFA_XSP16, literal(-11)))
        CFI V4 load(1, XDATA, add(CFA_XSP16, literal(-10)))
        CFI V5 load(1, XDATA, add(CFA_XSP16, literal(-9)))
        CFI V6 load(1, XDATA, add(CFA_XSP16, literal(-8)))
        CFI V7 load(1, XDATA, add(CFA_XSP16, literal(-7)))
        CFI R7 load(1, XDATA, add(CFA_XSP16, literal(-6)))
        CFI ?RET_LOW load(1, XDATA, add(CFA_XSP16, literal(-5)))
        CFI ?RET_HIGH load(1, XDATA, add(CFA_XSP16, literal(-4)))
        CFI ?BRET_EXT load(1, XDATA, add(CFA_XSP16, literal(-3)))
        CFI DPL0 load(1, XDATA, add(CFA_XSP16, literal(-2)))
        CFI DPH0 load(1, XDATA, add(CFA_XSP16, literal(-1)))
        CFI CFA_SP SP+0
        CFI CFA_XSP16 add(XSP16, 20)
        CFI Block cfiCond81 Using cfiCommon0
        CFI (cfiCond81) NoFunction
        CFI (cfiCond81) Conditional ??CrossCallReturnLabel_17
        CFI (cfiCond81) R6 load(1, XDATA, add(CFA_XSP16, literal(-16)))
        CFI (cfiCond81) VB load(1, XDATA, add(CFA_XSP16, literal(-15)))
        CFI (cfiCond81) V0 load(1, XDATA, add(CFA_XSP16, literal(-14)))
        CFI (cfiCond81) V1 load(1, XDATA, add(CFA_XSP16, literal(-13)))
        CFI (cfiCond81) V2 load(1, XDATA, add(CFA_XSP16, literal(-12)))
        CFI (cfiCond81) V3 load(1, XDATA, add(CFA_XSP16, literal(-11)))
        CFI (cfiCond81) V4 load(1, XDATA, add(CFA_XSP16, literal(-10)))
        CFI (cfiCond81) V5 load(1, XDATA, add(CFA_XSP16, literal(-9)))
        CFI (cfiCond81) V6 load(1, XDATA, add(CFA_XSP16, literal(-8)))
        CFI (cfiCond81) V7 load(1, XDATA, add(CFA_XSP16, literal(-7)))
        CFI (cfiCond81) R7 load(1, XDATA, add(CFA_XSP16, literal(-6)))
        CFI (cfiCond81) ?RET_LOW load(1, XDATA, add(CFA_XSP16, literal(-5)))
        CFI (cfiCond81) ?RET_HIGH load(1, XDATA, add(CFA_XSP16, literal(-4)))
        CFI (cfiCond81) ?BRET_EXT load(1, XDATA, add(CFA_XSP16, literal(-3)))
        CFI (cfiCond81) DPL0 load(1, XDATA, add(CFA_XSP16, literal(-2)))
        CFI (cfiCond81) DPH0 load(1, XDATA, add(CFA_XSP16, literal(-1)))
        CFI (cfiCond81) CFA_SP SP+0
        CFI (cfiCond81) CFA_XSP16 add(XSP16, 20)
        CFI Block cfiCond82 Using cfiCommon0
        CFI (cfiCond82) NoFunction
        CFI (cfiCond82) Conditional ??CrossCallReturnLabel_18
        CFI (cfiCond82) R6 load(1, XDATA, add(CFA_XSP16, literal(-16)))
        CFI (cfiCond82) VB load(1, XDATA, add(CFA_XSP16, literal(-15)))
        CFI (cfiCond82) V0 load(1, XDATA, add(CFA_XSP16, literal(-14)))
        CFI (cfiCond82) V1 load(1, XDATA, add(CFA_XSP16, literal(-13)))
        CFI (cfiCond82) V2 load(1, XDATA, add(CFA_XSP16, literal(-12)))
        CFI (cfiCond82) V3 load(1, XDATA, add(CFA_XSP16, literal(-11)))
        CFI (cfiCond82) V4 load(1, XDATA, add(CFA_XSP16, literal(-10)))
        CFI (cfiCond82) V5 load(1, XDATA, add(CFA_XSP16, literal(-9)))
        CFI (cfiCond82) V6 load(1, XDATA, add(CFA_XSP16, literal(-8)))
        CFI (cfiCond82) V7 load(1, XDATA, add(CFA_XSP16, literal(-7)))
        CFI (cfiCond82) R7 load(1, XDATA, add(CFA_XSP16, literal(-6)))
        CFI (cfiCond82) ?RET_LOW load(1, XDATA, add(CFA_XSP16, literal(-5)))
        CFI (cfiCond82) ?RET_HIGH load(1, XDATA, add(CFA_XSP16, literal(-4)))
        CFI (cfiCond82) ?BRET_EXT load(1, XDATA, add(CFA_XSP16, literal(-3)))
        CFI (cfiCond82) DPL0 load(1, XDATA, add(CFA_XSP16, literal(-2)))
        CFI (cfiCond82) DPH0 load(1, XDATA, add(CFA_XSP16, literal(-1)))
        CFI (cfiCond82) CFA_SP SP+0
        CFI (cfiCond82) CFA_XSP16 add(XSP16, 20)
        CFI Block cfiPicker83 Using cfiCommon1
        CFI (cfiPicker83) NoFunction
        CFI (cfiPicker83) Picker
        MOV     A,?V0 + 0
        ADD     A,#0xf
        LCALL   ?Subroutine34 & 0xFFFF
??CrossCallReturnLabel_89:
        MOV     ?V0 + 5,A
        MOV     R0,#?V0 + 5
        RET
        CFI EndBlock cfiCond80
        CFI EndBlock cfiCond81
        CFI EndBlock cfiCond82
        CFI EndBlock cfiPicker83

        RSEG BANKED_CODE:CODE:NOROOT(0)
?Subroutine34:
        CFI Block cfiCond84 Using cfiCommon0
        CFI NoFunction
        CFI Conditional ??CrossCallReturnLabel_89, ??CrossCallReturnLabel_16
        CFI R6 load(1, XDATA, add(CFA_XSP16, literal(-16)))
        CFI VB load(1, XDATA, add(CFA_XSP16, literal(-15)))
        CFI V0 load(1, XDATA, add(CFA_XSP16, literal(-14)))
        CFI V1 load(1, XDATA, add(CFA_XSP16, literal(-13)))
        CFI V2 load(1, XDATA, add(CFA_XSP16, literal(-12)))
        CFI V3 load(1, XDATA, add(CFA_XSP16, literal(-11)))
        CFI V4 load(1, XDATA, add(CFA_XSP16, literal(-10)))
        CFI V5 load(1, XDATA, add(CFA_XSP16, literal(-9)))
        CFI V6 load(1, XDATA, add(CFA_XSP16, literal(-8)))
        CFI V7 load(1, XDATA, add(CFA_XSP16, literal(-7)))
        CFI R7 load(1, XDATA, add(CFA_XSP16, literal(-6)))
        CFI ?RET_LOW load(1, XDATA, add(CFA_XSP16, literal(-5)))
        CFI ?RET_HIGH load(1, XDATA, add(CFA_XSP16, literal(-4)))
        CFI ?BRET_EXT load(1, XDATA, add(CFA_XSP16, literal(-3)))
        CFI DPL0 load(1, XDATA, add(CFA_XSP16, literal(-2)))
        CFI DPH0 load(1, XDATA, add(CFA_XSP16, literal(-1)))
        CFI CFA_SP SP+0
        CFI CFA_XSP16 add(XSP16, 20)
        CFI Block cfiCond85 Using cfiCommon0
        CFI (cfiCond85) NoFunction
        CFI (cfiCond85) Conditional ??CrossCallReturnLabel_89, ??CrossCallReturnLabel_17
        CFI (cfiCond85) R6 load(1, XDATA, add(CFA_XSP16, literal(-16)))
        CFI (cfiCond85) VB load(1, XDATA, add(CFA_XSP16, literal(-15)))
        CFI (cfiCond85) V0 load(1, XDATA, add(CFA_XSP16, literal(-14)))
        CFI (cfiCond85) V1 load(1, XDATA, add(CFA_XSP16, literal(-13)))
        CFI (cfiCond85) V2 load(1, XDATA, add(CFA_XSP16, literal(-12)))
        CFI (cfiCond85) V3 load(1, XDATA, add(CFA_XSP16, literal(-11)))
        CFI (cfiCond85) V4 load(1, XDATA, add(CFA_XSP16, literal(-10)))
        CFI (cfiCond85) V5 load(1, XDATA, add(CFA_XSP16, literal(-9)))
        CFI (cfiCond85) V6 load(1, XDATA, add(CFA_XSP16, literal(-8)))
        CFI (cfiCond85) V7 load(1, XDATA, add(CFA_XSP16, literal(-7)))
        CFI (cfiCond85) R7 load(1, XDATA, add(CFA_XSP16, literal(-6)))
        CFI (cfiCond85) ?RET_LOW load(1, XDATA, add(CFA_XSP16, literal(-5)))
        CFI (cfiCond85) ?RET_HIGH load(1, XDATA, add(CFA_XSP16, literal(-4)))
        CFI (cfiCond85) ?BRET_EXT load(1, XDATA, add(CFA_XSP16, literal(-3)))
        CFI (cfiCond85) DPL0 load(1, XDATA, add(CFA_XSP16, literal(-2)))
        CFI (cfiCond85) DPH0 load(1, XDATA, add(CFA_XSP16, literal(-1)))
        CFI (cfiCond85) CFA_SP SP+0
        CFI (cfiCond85) CFA_XSP16 add(XSP16, 20)
        CFI Block cfiCond86 Using cfiCommon0
        CFI (cfiCond86) NoFunction
        CFI (cfiCond86) Conditional ??CrossCallReturnLabel_89, ??CrossCallReturnLabel_18
        CFI (cfiCond86) R6 load(1, XDATA, add(CFA_XSP16, literal(-16)))
        CFI (cfiCond86) VB load(1, XDATA, add(CFA_XSP16, literal(-15)))
        CFI (cfiCond86) V0 load(1, XDATA, add(CFA_XSP16, literal(-14)))
        CFI (cfiCond86) V1 load(1, XDATA, add(CFA_XSP16, literal(-13)))
        CFI (cfiCond86) V2 load(1, XDATA, add(CFA_XSP16, literal(-12)))
        CFI (cfiCond86) V3 load(1, XDATA, add(CFA_XSP16, literal(-11)))
        CFI (cfiCond86) V4 load(1, XDATA, add(CFA_XSP16, literal(-10)))
        CFI (cfiCond86) V5 load(1, XDATA, add(CFA_XSP16, literal(-9)))
        CFI (cfiCond86) V6 load(1, XDATA, add(CFA_XSP16, literal(-8)))
        CFI (cfiCond86) V7 load(1, XDATA, add(CFA_XSP16, literal(-7)))
        CFI (cfiCond86) R7 load(1, XDATA, add(CFA_XSP16, literal(-6)))
        CFI (cfiCond86) ?RET_LOW load(1, XDATA, add(CFA_XSP16, literal(-5)))
        CFI (cfiCond86) ?RET_HIGH load(1, XDATA, add(CFA_XSP16, literal(-4)))
        CFI (cfiCond86) ?BRET_EXT load(1, XDATA, add(CFA_XSP16, literal(-3)))
        CFI (cfiCond86) DPL0 load(1, XDATA, add(CFA_XSP16, literal(-2)))
        CFI (cfiCond86) DPH0 load(1, XDATA, add(CFA_XSP16, literal(-1)))
        CFI (cfiCond86) CFA_SP SP+0
        CFI (cfiCond86) CFA_XSP16 add(XSP16, 20)
        CFI Block cfiCond87 Using cfiCommon0
        CFI (cfiCond87) NoFunction
        CFI (cfiCond87) Conditional ??CrossCallReturnLabel_88, ??CrossCallReturnLabel_6
        CFI (cfiCond87) R6 load(1, XDATA, add(CFA_XSP16, literal(-16)))
        CFI (cfiCond87) VB load(1, XDATA, add(CFA_XSP16, literal(-15)))
        CFI (cfiCond87) V0 load(1, XDATA, add(CFA_XSP16, literal(-14)))
        CFI (cfiCond87) V1 load(1, XDATA, add(CFA_XSP16, literal(-13)))
        CFI (cfiCond87) V2 load(1, XDATA, add(CFA_XSP16, literal(-12)))
        CFI (cfiCond87) V3 load(1, XDATA, add(CFA_XSP16, literal(-11)))
        CFI (cfiCond87) V4 load(1, XDATA, add(CFA_XSP16, literal(-10)))
        CFI (cfiCond87) V5 load(1, XDATA, add(CFA_XSP16, literal(-9)))
        CFI (cfiCond87) V6 load(1, XDATA, add(CFA_XSP16, literal(-8)))
        CFI (cfiCond87) V7 load(1, XDATA, add(CFA_XSP16, literal(-7)))
        CFI (cfiCond87) R7 load(1, XDATA, add(CFA_XSP16, literal(-6)))
        CFI (cfiCond87) ?RET_LOW load(1, XDATA, add(CFA_XSP16, literal(-5)))
        CFI (cfiCond87) ?RET_HIGH load(1, XDATA, add(CFA_XSP16, literal(-4)))
        CFI (cfiCond87) ?BRET_EXT load(1, XDATA, add(CFA_XSP16, literal(-3)))
        CFI (cfiCond87) DPL0 load(1, XDATA, add(CFA_XSP16, literal(-2)))
        CFI (cfiCond87) DPH0 load(1, XDATA, add(CFA_XSP16, literal(-1)))
        CFI (cfiCond87) CFA_SP SP+0
        CFI (cfiCond87) CFA_XSP16 add(XSP16, 19)
        CFI Block cfiCond88 Using cfiCommon0
        CFI (cfiCond88) NoFunction
        CFI (cfiCond88) Conditional ??CrossCallReturnLabel_88, ??CrossCallReturnLabel_7
        CFI (cfiCond88) R6 load(1, XDATA, add(CFA_XSP16, literal(-16)))
        CFI (cfiCond88) VB load(1, XDATA, add(CFA_XSP16, literal(-15)))
        CFI (cfiCond88) V0 load(1, XDATA, add(CFA_XSP16, literal(-14)))
        CFI (cfiCond88) V1 load(1, XDATA, add(CFA_XSP16, literal(-13)))
        CFI (cfiCond88) V2 load(1, XDATA, add(CFA_XSP16, literal(-12)))
        CFI (cfiCond88) V3 load(1, XDATA, add(CFA_XSP16, literal(-11)))
        CFI (cfiCond88) V4 load(1, XDATA, add(CFA_XSP16, literal(-10)))
        CFI (cfiCond88) V5 load(1, XDATA, add(CFA_XSP16, literal(-9)))
        CFI (cfiCond88) V6 load(1, XDATA, add(CFA_XSP16, literal(-8)))
        CFI (cfiCond88) V7 load(1, XDATA, add(CFA_XSP16, literal(-7)))
        CFI (cfiCond88) R7 load(1, XDATA, add(CFA_XSP16, literal(-6)))
        CFI (cfiCond88) ?RET_LOW load(1, XDATA, add(CFA_XSP16, literal(-5)))
        CFI (cfiCond88) ?RET_HIGH load(1, XDATA, add(CFA_XSP16, literal(-4)))
        CFI (cfiCond88) ?BRET_EXT load(1, XDATA, add(CFA_XSP16, literal(-3)))
        CFI (cfiCond88) DPL0 load(1, XDATA, add(CFA_XSP16, literal(-2)))
        CFI (cfiCond88) DPH0 load(1, XDATA, add(CFA_XSP16, literal(-1)))
        CFI (cfiCond88) CFA_SP SP+0
        CFI (cfiCond88) CFA_XSP16 add(XSP16, 19)
        CFI Block cfiPicker89 Using cfiCommon1
        CFI (cfiPicker89) NoFunction
        CFI (cfiPicker89) Picker
        MOV     DPL,A
        MOV     A,?V0 + 1
        CFI EndBlock cfiCond84
        CFI EndBlock cfiCond85
        CFI EndBlock cfiCond86
        CFI EndBlock cfiCond87
        CFI EndBlock cfiCond88
        CFI EndBlock cfiPicker89
        REQUIRE ??Subroutine42_0
        ; // Fall through to label ??Subroutine42_0

        RSEG BANKED_CODE:CODE:NOROOT(0)
??Subroutine42_0:
        CFI Block cfiCond90 Using cfiCommon0
        CFI NoFunction
        CFI Conditional ??CrossCallReturnLabel_90, ??CrossCallReturnLabel_85
        CFI R6 load(1, XDATA, add(CFA_XSP16, literal(-16)))
        CFI VB load(1, XDATA, add(CFA_XSP16, literal(-15)))
        CFI V0 load(1, XDATA, add(CFA_XSP16, literal(-14)))
        CFI V1 load(1, XDATA, add(CFA_XSP16, literal(-13)))
        CFI V2 load(1, XDATA, add(CFA_XSP16, literal(-12)))
        CFI V3 load(1, XDATA, add(CFA_XSP16, literal(-11)))
        CFI V4 load(1, XDATA, add(CFA_XSP16, literal(-10)))
        CFI V5 load(1, XDATA, add(CFA_XSP16, literal(-9)))
        CFI V6 load(1, XDATA, add(CFA_XSP16, literal(-8)))
        CFI V7 load(1, XDATA, add(CFA_XSP16, literal(-7)))
        CFI R7 load(1, XDATA, add(CFA_XSP16, literal(-6)))
        CFI ?RET_LOW load(1, XDATA, add(CFA_XSP16, literal(-5)))
        CFI ?RET_HIGH load(1, XDATA, add(CFA_XSP16, literal(-4)))
        CFI ?BRET_EXT load(1, XDATA, add(CFA_XSP16, literal(-3)))
        CFI DPL0 load(1, XDATA, add(CFA_XSP16, literal(-2)))
        CFI DPH0 load(1, XDATA, add(CFA_XSP16, literal(-1)))
        CFI CFA_SP SP+0
        CFI CFA_XSP16 add(XSP16, 19)
        CFI Block cfiCond91 Using cfiCommon0
        CFI (cfiCond91) NoFunction
        CFI (cfiCond91) Conditional ??CrossCallReturnLabel_90, ??CrossCallReturnLabel_86
        CFI (cfiCond91) R6 load(1, XDATA, add(CFA_XSP16, literal(-16)))
        CFI (cfiCond91) VB load(1, XDATA, add(CFA_XSP16, literal(-15)))
        CFI (cfiCond91) V0 load(1, XDATA, add(CFA_XSP16, literal(-14)))
        CFI (cfiCond91) V1 load(1, XDATA, add(CFA_XSP16, literal(-13)))
        CFI (cfiCond91) V2 load(1, XDATA, add(CFA_XSP16, literal(-12)))
        CFI (cfiCond91) V3 load(1, XDATA, add(CFA_XSP16, literal(-11)))
        CFI (cfiCond91) V4 load(1, XDATA, add(CFA_XSP16, literal(-10)))
        CFI (cfiCond91) V5 load(1, XDATA, add(CFA_XSP16, literal(-9)))
        CFI (cfiCond91) V6 load(1, XDATA, add(CFA_XSP16, literal(-8)))
        CFI (cfiCond91) V7 load(1, XDATA, add(CFA_XSP16, literal(-7)))
        CFI (cfiCond91) R7 load(1, XDATA, add(CFA_XSP16, literal(-6)))
        CFI (cfiCond91) ?RET_LOW load(1, XDATA, add(CFA_XSP16, literal(-5)))
        CFI (cfiCond91) ?RET_HIGH load(1, XDATA, add(CFA_XSP16, literal(-4)))
        CFI (cfiCond91) ?BRET_EXT load(1, XDATA, add(CFA_XSP16, literal(-3)))
        CFI (cfiCond91) DPL0 load(1, XDATA, add(CFA_XSP16, literal(-2)))
        CFI (cfiCond91) DPH0 load(1, XDATA, add(CFA_XSP16, literal(-1)))
        CFI (cfiCond91) CFA_SP SP+0
        CFI (cfiCond91) CFA_XSP16 add(XSP16, 19)
        CFI Block cfiCond92 Using cfiCommon0
        CFI (cfiCond92) NoFunction
        CFI (cfiCond92) Conditional ??CrossCallReturnLabel_90, ??CrossCallReturnLabel_84
        CFI (cfiCond92) DPL0 Frame(CFA_SP, 4)
        CFI (cfiCond92) DPH0 Frame(CFA_SP, 5)
        CFI (cfiCond92) CFA_SP SP+-5
        CFI Block cfiCond93 Using cfiCommon0
        CFI (cfiCond93) NoFunction
        CFI (cfiCond93) Conditional ??CrossCallReturnLabel_90, ??CrossCallReturnLabel_79
        CFI (cfiCond93) R6 load(1, XDATA, add(CFA_XSP16, literal(-16)))
        CFI (cfiCond93) VB load(1, XDATA, add(CFA_XSP16, literal(-15)))
        CFI (cfiCond93) V0 load(1, XDATA, add(CFA_XSP16, literal(-14)))
        CFI (cfiCond93) V1 load(1, XDATA, add(CFA_XSP16, literal(-13)))
        CFI (cfiCond93) V2 load(1, XDATA, add(CFA_XSP16, literal(-12)))
        CFI (cfiCond93) V3 load(1, XDATA, add(CFA_XSP16, literal(-11)))
        CFI (cfiCond93) V4 load(1, XDATA, add(CFA_XSP16, literal(-10)))
        CFI (cfiCond93) V5 load(1, XDATA, add(CFA_XSP16, literal(-9)))
        CFI (cfiCond93) V6 load(1, XDATA, add(CFA_XSP16, literal(-8)))
        CFI (cfiCond93) V7 load(1, XDATA, add(CFA_XSP16, literal(-7)))
        CFI (cfiCond93) R7 load(1, XDATA, add(CFA_XSP16, literal(-6)))
        CFI (cfiCond93) ?RET_LOW load(1, XDATA, add(CFA_XSP16, literal(-5)))
        CFI (cfiCond93) ?RET_HIGH load(1, XDATA, add(CFA_XSP16, literal(-4)))
        CFI (cfiCond93) ?BRET_EXT load(1, XDATA, add(CFA_XSP16, literal(-3)))
        CFI (cfiCond93) DPL0 load(1, XDATA, add(CFA_XSP16, literal(-2)))
        CFI (cfiCond93) DPH0 load(1, XDATA, add(CFA_XSP16, literal(-1)))
        CFI (cfiCond93) CFA_SP SP+0
        CFI (cfiCond93) CFA_XSP16 add(XSP16, 19)
        CFI Block cfiCond94 Using cfiCommon0
        CFI (cfiCond94) NoFunction
        CFI (cfiCond94) Conditional ??CrossCallReturnLabel_90, ??CrossCallReturnLabel_80
        CFI (cfiCond94) R6 load(1, XDATA, add(CFA_XSP16, literal(-18)))
        CFI (cfiCond94) VB load(1, XDATA, add(CFA_XSP16, literal(-17)))
        CFI (cfiCond94) V0 load(1, XDATA, add(CFA_XSP16, literal(-16)))
        CFI (cfiCond94) V1 load(1, XDATA, add(CFA_XSP16, literal(-15)))
        CFI (cfiCond94) V2 load(1, XDATA, add(CFA_XSP16, literal(-14)))
        CFI (cfiCond94) V3 load(1, XDATA, add(CFA_XSP16, literal(-13)))
        CFI (cfiCond94) V4 load(1, XDATA, add(CFA_XSP16, literal(-12)))
        CFI (cfiCond94) V5 load(1, XDATA, add(CFA_XSP16, literal(-11)))
        CFI (cfiCond94) V6 load(1, XDATA, add(CFA_XSP16, literal(-10)))
        CFI (cfiCond94) V7 load(1, XDATA, add(CFA_XSP16, literal(-9)))
        CFI (cfiCond94) V8 load(1, XDATA, add(CFA_XSP16, literal(-8)))
        CFI (cfiCond94) V9 load(1, XDATA, add(CFA_XSP16, literal(-7)))
        CFI (cfiCond94) R7 load(1, XDATA, add(CFA_XSP16, literal(-6)))
        CFI (cfiCond94) ?RET_LOW load(1, XDATA, add(CFA_XSP16, literal(-5)))
        CFI (cfiCond94) ?RET_HIGH load(1, XDATA, add(CFA_XSP16, literal(-4)))
        CFI (cfiCond94) ?BRET_EXT load(1, XDATA, add(CFA_XSP16, literal(-3)))
        CFI (cfiCond94) DPL0 load(1, XDATA, add(CFA_XSP16, literal(-2)))
        CFI (cfiCond94) DPH0 load(1, XDATA, add(CFA_XSP16, literal(-1)))
        CFI (cfiCond94) CFA_SP SP+0
        CFI (cfiCond94) CFA_XSP16 add(XSP16, 18)
        CFI Block cfiCond95 Using cfiCommon0
        CFI (cfiCond95) NoFunction
        CFI (cfiCond95) Conditional ??CrossCallReturnLabel_90, ??CrossCallReturnLabel_81
        CFI (cfiCond95) R6 load(1, XDATA, add(CFA_XSP16, literal(-11)))
        CFI (cfiCond95) VB load(1, XDATA, add(CFA_XSP16, literal(-10)))
        CFI (cfiCond95) V0 load(1, XDATA, add(CFA_XSP16, literal(-9)))
        CFI (cfiCond95) V1 load(1, XDATA, add(CFA_XSP16, literal(-8)))
        CFI (cfiCond95) V2 load(1, XDATA, add(CFA_XSP16, literal(-7)))
        CFI (cfiCond95) R7 load(1, XDATA, add(CFA_XSP16, literal(-6)))
        CFI (cfiCond95) ?RET_LOW load(1, XDATA, add(CFA_XSP16, literal(-5)))
        CFI (cfiCond95) ?RET_HIGH load(1, XDATA, add(CFA_XSP16, literal(-4)))
        CFI (cfiCond95) ?BRET_EXT load(1, XDATA, add(CFA_XSP16, literal(-3)))
        CFI (cfiCond95) DPL0 load(1, XDATA, add(CFA_XSP16, literal(-2)))
        CFI (cfiCond95) DPH0 load(1, XDATA, add(CFA_XSP16, literal(-1)))
        CFI (cfiCond95) CFA_SP SP+0
        CFI (cfiCond95) CFA_XSP16 add(XSP16, 14)
        CFI Block cfiCond96 Using cfiCommon0
        CFI (cfiCond96) NoFunction
        CFI (cfiCond96) Conditional ??CrossCallReturnLabel_90, ??CrossCallReturnLabel_82
        CFI (cfiCond96) R6 load(1, XDATA, add(CFA_XSP16, literal(-11)))
        CFI (cfiCond96) VB load(1, XDATA, add(CFA_XSP16, literal(-10)))
        CFI (cfiCond96) V0 load(1, XDATA, add(CFA_XSP16, literal(-9)))
        CFI (cfiCond96) V1 load(1, XDATA, add(CFA_XSP16, literal(-8)))
        CFI (cfiCond96) V2 load(1, XDATA, add(CFA_XSP16, literal(-7)))
        CFI (cfiCond96) R7 load(1, XDATA, add(CFA_XSP16, literal(-6)))
        CFI (cfiCond96) ?RET_LOW load(1, XDATA, add(CFA_XSP16, literal(-5)))
        CFI (cfiCond96) ?RET_HIGH load(1, XDATA, add(CFA_XSP16, literal(-4)))
        CFI (cfiCond96) ?BRET_EXT load(1, XDATA, add(CFA_XSP16, literal(-3)))
        CFI (cfiCond96) DPL0 load(1, XDATA, add(CFA_XSP16, literal(-2)))
        CFI (cfiCond96) DPH0 load(1, XDATA, add(CFA_XSP16, literal(-1)))
        CFI (cfiCond96) CFA_SP SP+0
        CFI (cfiCond96) CFA_XSP16 add(XSP16, 14)
        CFI Block cfiCond97 Using cfiCommon0
        CFI (cfiCond97) NoFunction
        CFI (cfiCond97) Conditional ??CrossCallReturnLabel_90, ??CrossCallReturnLabel_83
        CFI (cfiCond97) R6 load(1, XDATA, add(CFA_XSP16, literal(-11)))
        CFI (cfiCond97) VB load(1, XDATA, add(CFA_XSP16, literal(-10)))
        CFI (cfiCond97) V0 load(1, XDATA, add(CFA_XSP16, literal(-9)))
        CFI (cfiCond97) V1 load(1, XDATA, add(CFA_XSP16, literal(-8)))
        CFI (cfiCond97) V2 load(1, XDATA, add(CFA_XSP16, literal(-7)))
        CFI (cfiCond97) R7 load(1, XDATA, add(CFA_XSP16, literal(-6)))
        CFI (cfiCond97) ?RET_LOW load(1, XDATA, add(CFA_XSP16, literal(-5)))
        CFI (cfiCond97) ?RET_HIGH load(1, XDATA, add(CFA_XSP16, literal(-4)))
        CFI (cfiCond97) ?BRET_EXT load(1, XDATA, add(CFA_XSP16, literal(-3)))
        CFI (cfiCond97) DPL0 load(1, XDATA, add(CFA_XSP16, literal(-2)))
        CFI (cfiCond97) DPH0 load(1, XDATA, add(CFA_XSP16, literal(-1)))
        CFI (cfiCond97) CFA_SP SP+0
        CFI (cfiCond97) CFA_XSP16 add(XSP16, 16)
        CFI Block cfiCond98 Using cfiCommon0
        CFI (cfiCond98) NoFunction
        CFI (cfiCond98) Conditional ??CrossCallReturnLabel_87, ??CrossCallReturnLabel_14
        CFI (cfiCond98) R6 load(1, XDATA, add(CFA_XSP16, literal(-11)))
        CFI (cfiCond98) VB load(1, XDATA, add(CFA_XSP16, literal(-10)))
        CFI (cfiCond98) V0 load(1, XDATA, add(CFA_XSP16, literal(-9)))
        CFI (cfiCond98) V1 load(1, XDATA, add(CFA_XSP16, literal(-8)))
        CFI (cfiCond98) V2 load(1, XDATA, add(CFA_XSP16, literal(-7)))
        CFI (cfiCond98) R7 load(1, XDATA, add(CFA_XSP16, literal(-6)))
        CFI (cfiCond98) ?RET_LOW load(1, XDATA, add(CFA_XSP16, literal(-5)))
        CFI (cfiCond98) ?RET_HIGH load(1, XDATA, add(CFA_XSP16, literal(-4)))
        CFI (cfiCond98) ?BRET_EXT load(1, XDATA, add(CFA_XSP16, literal(-3)))
        CFI (cfiCond98) DPL0 load(1, XDATA, add(CFA_XSP16, literal(-2)))
        CFI (cfiCond98) DPH0 load(1, XDATA, add(CFA_XSP16, literal(-1)))
        CFI (cfiCond98) CFA_SP SP+0
        CFI (cfiCond98) CFA_XSP16 add(XSP16, 14)
        CFI Block cfiCond99 Using cfiCommon0
        CFI (cfiCond99) NoFunction
        CFI (cfiCond99) Conditional ??CrossCallReturnLabel_87, ??CrossCallReturnLabel_15
        CFI (cfiCond99) R6 load(1, XDATA, add(CFA_XSP16, literal(-11)))
        CFI (cfiCond99) VB load(1, XDATA, add(CFA_XSP16, literal(-10)))
        CFI (cfiCond99) V0 load(1, XDATA, add(CFA_XSP16, literal(-9)))
        CFI (cfiCond99) V1 load(1, XDATA, add(CFA_XSP16, literal(-8)))
        CFI (cfiCond99) V2 load(1, XDATA, add(CFA_XSP16, literal(-7)))
        CFI (cfiCond99) R7 load(1, XDATA, add(CFA_XSP16, literal(-6)))
        CFI (cfiCond99) ?RET_LOW load(1, XDATA, add(CFA_XSP16, literal(-5)))
        CFI (cfiCond99) ?RET_HIGH load(1, XDATA, add(CFA_XSP16, literal(-4)))
        CFI (cfiCond99) ?BRET_EXT load(1, XDATA, add(CFA_XSP16, literal(-3)))
        CFI (cfiCond99) DPL0 load(1, XDATA, add(CFA_XSP16, literal(-2)))
        CFI (cfiCond99) DPH0 load(1, XDATA, add(CFA_XSP16, literal(-1)))
        CFI (cfiCond99) CFA_SP SP+0
        CFI (cfiCond99) CFA_XSP16 add(XSP16, 14)
        CFI Block cfiCond100 Using cfiCommon0
        CFI (cfiCond100) NoFunction
        CFI (cfiCond100) Conditional ??CrossCallReturnLabel_89, ??CrossCallReturnLabel_16
        CFI (cfiCond100) R6 load(1, XDATA, add(CFA_XSP16, literal(-16)))
        CFI (cfiCond100) VB load(1, XDATA, add(CFA_XSP16, literal(-15)))
        CFI (cfiCond100) V0 load(1, XDATA, add(CFA_XSP16, literal(-14)))
        CFI (cfiCond100) V1 load(1, XDATA, add(CFA_XSP16, literal(-13)))
        CFI (cfiCond100) V2 load(1, XDATA, add(CFA_XSP16, literal(-12)))
        CFI (cfiCond100) V3 load(1, XDATA, add(CFA_XSP16, literal(-11)))
        CFI (cfiCond100) V4 load(1, XDATA, add(CFA_XSP16, literal(-10)))
        CFI (cfiCond100) V5 load(1, XDATA, add(CFA_XSP16, literal(-9)))
        CFI (cfiCond100) V6 load(1, XDATA, add(CFA_XSP16, literal(-8)))
        CFI (cfiCond100) V7 load(1, XDATA, add(CFA_XSP16, literal(-7)))
        CFI (cfiCond100) R7 load(1, XDATA, add(CFA_XSP16, literal(-6)))
        CFI (cfiCond100) ?RET_LOW load(1, XDATA, add(CFA_XSP16, literal(-5)))
        CFI (cfiCond100) ?RET_HIGH load(1, XDATA, add(CFA_XSP16, literal(-4)))
        CFI (cfiCond100) ?BRET_EXT load(1, XDATA, add(CFA_XSP16, literal(-3)))
        CFI (cfiCond100) DPL0 load(1, XDATA, add(CFA_XSP16, literal(-2)))
        CFI (cfiCond100) DPH0 load(1, XDATA, add(CFA_XSP16, literal(-1)))
        CFI (cfiCond100) CFA_SP SP+0
        CFI (cfiCond100) CFA_XSP16 add(XSP16, 20)
        CFI Block cfiCond101 Using cfiCommon0
        CFI (cfiCond101) NoFunction
        CFI (cfiCond101) Conditional ??CrossCallReturnLabel_89, ??CrossCallReturnLabel_17
        CFI (cfiCond101) R6 load(1, XDATA, add(CFA_XSP16, literal(-16)))
        CFI (cfiCond101) VB load(1, XDATA, add(CFA_XSP16, literal(-15)))
        CFI (cfiCond101) V0 load(1, XDATA, add(CFA_XSP16, literal(-14)))
        CFI (cfiCond101) V1 load(1, XDATA, add(CFA_XSP16, literal(-13)))
        CFI (cfiCond101) V2 load(1, XDATA, add(CFA_XSP16, literal(-12)))
        CFI (cfiCond101) V3 load(1, XDATA, add(CFA_XSP16, literal(-11)))
        CFI (cfiCond101) V4 load(1, XDATA, add(CFA_XSP16, literal(-10)))
        CFI (cfiCond101) V5 load(1, XDATA, add(CFA_XSP16, literal(-9)))
        CFI (cfiCond101) V6 load(1, XDATA, add(CFA_XSP16, literal(-8)))
        CFI (cfiCond101) V7 load(1, XDATA, add(CFA_XSP16, literal(-7)))
        CFI (cfiCond101) R7 load(1, XDATA, add(CFA_XSP16, literal(-6)))
        CFI (cfiCond101) ?RET_LOW load(1, XDATA, add(CFA_XSP16, literal(-5)))
        CFI (cfiCond101) ?RET_HIGH load(1, XDATA, add(CFA_XSP16, literal(-4)))
        CFI (cfiCond101) ?BRET_EXT load(1, XDATA, add(CFA_XSP16, literal(-3)))
        CFI (cfiCond101) DPL0 load(1, XDATA, add(CFA_XSP16, literal(-2)))
        CFI (cfiCond101) DPH0 load(1, XDATA, add(CFA_XSP16, literal(-1)))
        CFI (cfiCond101) CFA_SP SP+0
        CFI (cfiCond101) CFA_XSP16 add(XSP16, 20)
        CFI Block cfiCond102 Using cfiCommon0
        CFI (cfiCond102) NoFunction
        CFI (cfiCond102) Conditional ??CrossCallReturnLabel_89, ??CrossCallReturnLabel_18
        CFI (cfiCond102) R6 load(1, XDATA, add(CFA_XSP16, literal(-16)))
        CFI (cfiCond102) VB load(1, XDATA, add(CFA_XSP16, literal(-15)))
        CFI (cfiCond102) V0 load(1, XDATA, add(CFA_XSP16, literal(-14)))
        CFI (cfiCond102) V1 load(1, XDATA, add(CFA_XSP16, literal(-13)))
        CFI (cfiCond102) V2 load(1, XDATA, add(CFA_XSP16, literal(-12)))
        CFI (cfiCond102) V3 load(1, XDATA, add(CFA_XSP16, literal(-11)))
        CFI (cfiCond102) V4 load(1, XDATA, add(CFA_XSP16, literal(-10)))
        CFI (cfiCond102) V5 load(1, XDATA, add(CFA_XSP16, literal(-9)))
        CFI (cfiCond102) V6 load(1, XDATA, add(CFA_XSP16, literal(-8)))
        CFI (cfiCond102) V7 load(1, XDATA, add(CFA_XSP16, literal(-7)))
        CFI (cfiCond102) R7 load(1, XDATA, add(CFA_XSP16, literal(-6)))
        CFI (cfiCond102) ?RET_LOW load(1, XDATA, add(CFA_XSP16, literal(-5)))
        CFI (cfiCond102) ?RET_HIGH load(1, XDATA, add(CFA_XSP16, literal(-4)))
        CFI (cfiCond102) ?BRET_EXT load(1, XDATA, add(CFA_XSP16, literal(-3)))
        CFI (cfiCond102) DPL0 load(1, XDATA, add(CFA_XSP16, literal(-2)))
        CFI (cfiCond102) DPH0 load(1, XDATA, add(CFA_XSP16, literal(-1)))
        CFI (cfiCond102) CFA_SP SP+0
        CFI (cfiCond102) CFA_XSP16 add(XSP16, 20)
        CFI Block cfiCond103 Using cfiCommon0
        CFI (cfiCond103) NoFunction
        CFI (cfiCond103) Conditional ??CrossCallReturnLabel_88, ??CrossCallReturnLabel_6
        CFI (cfiCond103) R6 load(1, XDATA, add(CFA_XSP16, literal(-16)))
        CFI (cfiCond103) VB load(1, XDATA, add(CFA_XSP16, literal(-15)))
        CFI (cfiCond103) V0 load(1, XDATA, add(CFA_XSP16, literal(-14)))
        CFI (cfiCond103) V1 load(1, XDATA, add(CFA_XSP16, literal(-13)))
        CFI (cfiCond103) V2 load(1, XDATA, add(CFA_XSP16, literal(-12)))
        CFI (cfiCond103) V3 load(1, XDATA, add(CFA_XSP16, literal(-11)))
        CFI (cfiCond103) V4 load(1, XDATA, add(CFA_XSP16, literal(-10)))
        CFI (cfiCond103) V5 load(1, XDATA, add(CFA_XSP16, literal(-9)))
        CFI (cfiCond103) V6 load(1, XDATA, add(CFA_XSP16, literal(-8)))
        CFI (cfiCond103) V7 load(1, XDATA, add(CFA_XSP16, literal(-7)))
        CFI (cfiCond103) R7 load(1, XDATA, add(CFA_XSP16, literal(-6)))
        CFI (cfiCond103) ?RET_LOW load(1, XDATA, add(CFA_XSP16, literal(-5)))
        CFI (cfiCond103) ?RET_HIGH load(1, XDATA, add(CFA_XSP16, literal(-4)))
        CFI (cfiCond103) ?BRET_EXT load(1, XDATA, add(CFA_XSP16, literal(-3)))
        CFI (cfiCond103) DPL0 load(1, XDATA, add(CFA_XSP16, literal(-2)))
        CFI (cfiCond103) DPH0 load(1, XDATA, add(CFA_XSP16, literal(-1)))
        CFI (cfiCond103) CFA_SP SP+0
        CFI (cfiCond103) CFA_XSP16 add(XSP16, 19)
        CFI Block cfiCond104 Using cfiCommon0
        CFI (cfiCond104) NoFunction
        CFI (cfiCond104) Conditional ??CrossCallReturnLabel_88, ??CrossCallReturnLabel_7
        CFI (cfiCond104) R6 load(1, XDATA, add(CFA_XSP16, literal(-16)))
        CFI (cfiCond104) VB load(1, XDATA, add(CFA_XSP16, literal(-15)))
        CFI (cfiCond104) V0 load(1, XDATA, add(CFA_XSP16, literal(-14)))
        CFI (cfiCond104) V1 load(1, XDATA, add(CFA_XSP16, literal(-13)))
        CFI (cfiCond104) V2 load(1, XDATA, add(CFA_XSP16, literal(-12)))
        CFI (cfiCond104) V3 load(1, XDATA, add(CFA_XSP16, literal(-11)))
        CFI (cfiCond104) V4 load(1, XDATA, add(CFA_XSP16, literal(-10)))
        CFI (cfiCond104) V5 load(1, XDATA, add(CFA_XSP16, literal(-9)))
        CFI (cfiCond104) V6 load(1, XDATA, add(CFA_XSP16, literal(-8)))
        CFI (cfiCond104) V7 load(1, XDATA, add(CFA_XSP16, literal(-7)))
        CFI (cfiCond104) R7 load(1, XDATA, add(CFA_XSP16, literal(-6)))
        CFI (cfiCond104) ?RET_LOW load(1, XDATA, add(CFA_XSP16, literal(-5)))
        CFI (cfiCond104) ?RET_HIGH load(1, XDATA, add(CFA_XSP16, literal(-4)))
        CFI (cfiCond104) ?BRET_EXT load(1, XDATA, add(CFA_XSP16, literal(-3)))
        CFI (cfiCond104) DPL0 load(1, XDATA, add(CFA_XSP16, literal(-2)))
        CFI (cfiCond104) DPH0 load(1, XDATA, add(CFA_XSP16, literal(-1)))
        CFI (cfiCond104) CFA_SP SP+0
        CFI (cfiCond104) CFA_XSP16 add(XSP16, 19)
        CFI Block cfiPicker105 Using cfiCommon1
        CFI (cfiPicker105) NoFunction
        CFI (cfiPicker105) Picker
        ADDC    A,#0x0
        MOV     DPH,A
        MOVX    A,@DPTR
        RET
        CFI EndBlock cfiCond90
        CFI EndBlock cfiCond91
        CFI EndBlock cfiCond92
        CFI EndBlock cfiCond93
        CFI EndBlock cfiCond94
        CFI EndBlock cfiCond95
        CFI EndBlock cfiCond96
        CFI EndBlock cfiCond97
        CFI EndBlock cfiCond98
        CFI EndBlock cfiCond99
        CFI EndBlock cfiCond100
        CFI EndBlock cfiCond101
        CFI EndBlock cfiCond102
        CFI EndBlock cfiCond103
        CFI EndBlock cfiCond104
        CFI EndBlock cfiPicker105

        RSEG BANKED_CODE:CODE:NOROOT(0)
?Subroutine11:
        CFI Block cfiCond106 Using cfiCommon0
        CFI NoFunction
        CFI Conditional ??CrossCallReturnLabel_10
        CFI R6 load(1, XDATA, add(CFA_XSP16, literal(-10)))
        CFI VB load(1, XDATA, add(CFA_XSP16, literal(-9)))
        CFI V0 load(1, XDATA, add(CFA_XSP16, literal(-8)))
        CFI V1 load(1, XDATA, add(CFA_XSP16, literal(-7)))
        CFI R7 load(1, XDATA, add(CFA_XSP16, literal(-6)))
        CFI ?RET_LOW load(1, XDATA, add(CFA_XSP16, literal(-5)))
        CFI ?RET_HIGH load(1, XDATA, add(CFA_XSP16, literal(-4)))
        CFI ?BRET_EXT load(1, XDATA, add(CFA_XSP16, literal(-3)))
        CFI DPL0 load(1, XDATA, add(CFA_XSP16, literal(-2)))
        CFI DPH0 load(1, XDATA, add(CFA_XSP16, literal(-1)))
        CFI CFA_SP SP+-1
        CFI CFA_XSP16 add(XSP16, 10)
        CFI Block cfiCond107 Using cfiCommon0
        CFI (cfiCond107) NoFunction
        CFI (cfiCond107) Conditional ??CrossCallReturnLabel_11
        CFI (cfiCond107) R6 load(1, XDATA, add(CFA_XSP16, literal(-16)))
        CFI (cfiCond107) VB load(1, XDATA, add(CFA_XSP16, literal(-15)))
        CFI (cfiCond107) V0 load(1, XDATA, add(CFA_XSP16, literal(-14)))
        CFI (cfiCond107) V1 load(1, XDATA, add(CFA_XSP16, literal(-13)))
        CFI (cfiCond107) V2 load(1, XDATA, add(CFA_XSP16, literal(-12)))
        CFI (cfiCond107) V3 load(1, XDATA, add(CFA_XSP16, literal(-11)))
        CFI (cfiCond107) V4 load(1, XDATA, add(CFA_XSP16, literal(-10)))
        CFI (cfiCond107) V5 load(1, XDATA, add(CFA_XSP16, literal(-9)))
        CFI (cfiCond107) V6 load(1, XDATA, add(CFA_XSP16, literal(-8)))
        CFI (cfiCond107) V7 load(1, XDATA, add(CFA_XSP16, literal(-7)))
        CFI (cfiCond107) R7 load(1, XDATA, add(CFA_XSP16, literal(-6)))
        CFI (cfiCond107) ?RET_LOW load(1, XDATA, add(CFA_XSP16, literal(-5)))
        CFI (cfiCond107) ?RET_HIGH load(1, XDATA, add(CFA_XSP16, literal(-4)))
        CFI (cfiCond107) ?BRET_EXT load(1, XDATA, add(CFA_XSP16, literal(-3)))
        CFI (cfiCond107) DPL0 load(1, XDATA, add(CFA_XSP16, literal(-2)))
        CFI (cfiCond107) DPH0 load(1, XDATA, add(CFA_XSP16, literal(-1)))
        CFI (cfiCond107) CFA_SP SP+0
        CFI (cfiCond107) CFA_XSP16 add(XSP16, 19)
        CFI Block cfiPicker108 Using cfiCommon1
        CFI (cfiPicker108) NoFunction
        CFI (cfiPicker108) Picker
        LCALL   ?Subroutine32 & 0xFFFF
??CrossCallReturnLabel_46:
        INC     DPTR
        INC     DPTR
        INC     DPTR
        INC     DPTR
        RET
        CFI EndBlock cfiCond106
        CFI EndBlock cfiCond107
        CFI EndBlock cfiPicker108

        RSEG BANKED_CODE:CODE:NOROOT(0)
?Subroutine32:
        CFI Block cfiCond109 Using cfiCommon0
        CFI NoFunction
        CFI Conditional ??CrossCallReturnLabel_45
        CFI R6 load(1, XDATA, add(CFA_XSP16, literal(-16)))
        CFI VB load(1, XDATA, add(CFA_XSP16, literal(-15)))
        CFI V0 load(1, XDATA, add(CFA_XSP16, literal(-14)))
        CFI V1 load(1, XDATA, add(CFA_XSP16, literal(-13)))
        CFI V2 load(1, XDATA, add(CFA_XSP16, literal(-12)))
        CFI V3 load(1, XDATA, add(CFA_XSP16, literal(-11)))
        CFI V4 load(1, XDATA, add(CFA_XSP16, literal(-10)))
        CFI V5 load(1, XDATA, add(CFA_XSP16, literal(-9)))
        CFI V6 load(1, XDATA, add(CFA_XSP16, literal(-8)))
        CFI V7 load(1, XDATA, add(CFA_XSP16, literal(-7)))
        CFI R7 load(1, XDATA, add(CFA_XSP16, literal(-6)))
        CFI ?RET_LOW load(1, XDATA, add(CFA_XSP16, literal(-5)))
        CFI ?RET_HIGH load(1, XDATA, add(CFA_XSP16, literal(-4)))
        CFI ?BRET_EXT load(1, XDATA, add(CFA_XSP16, literal(-3)))
        CFI DPL0 load(1, XDATA, add(CFA_XSP16, literal(-2)))
        CFI DPH0 load(1, XDATA, add(CFA_XSP16, literal(-1)))
        CFI CFA_SP SP+0
        CFI CFA_XSP16 add(XSP16, 19)
        CFI Block cfiCond110 Using cfiCommon0
        CFI (cfiCond110) NoFunction
        CFI (cfiCond110) Conditional ??CrossCallReturnLabel_46, ??CrossCallReturnLabel_10
        CFI (cfiCond110) R6 load(1, XDATA, add(CFA_XSP16, literal(-10)))
        CFI (cfiCond110) VB load(1, XDATA, add(CFA_XSP16, literal(-9)))
        CFI (cfiCond110) V0 load(1, XDATA, add(CFA_XSP16, literal(-8)))
        CFI (cfiCond110) V1 load(1, XDATA, add(CFA_XSP16, literal(-7)))
        CFI (cfiCond110) R7 load(1, XDATA, add(CFA_XSP16, literal(-6)))
        CFI (cfiCond110) ?RET_LOW load(1, XDATA, add(CFA_XSP16, literal(-5)))
        CFI (cfiCond110) ?RET_HIGH load(1, XDATA, add(CFA_XSP16, literal(-4)))
        CFI (cfiCond110) ?BRET_EXT load(1, XDATA, add(CFA_XSP16, literal(-3)))
        CFI (cfiCond110) DPL0 load(1, XDATA, add(CFA_XSP16, literal(-2)))
        CFI (cfiCond110) DPH0 load(1, XDATA, add(CFA_XSP16, literal(-1)))
        CFI (cfiCond110) CFA_SP SP+-1
        CFI (cfiCond110) CFA_XSP16 add(XSP16, 10)
        CFI Block cfiCond111 Using cfiCommon0
        CFI (cfiCond111) NoFunction
        CFI (cfiCond111) Conditional ??CrossCallReturnLabel_46, ??CrossCallReturnLabel_11
        CFI (cfiCond111) R6 load(1, XDATA, add(CFA_XSP16, literal(-16)))
        CFI (cfiCond111) VB load(1, XDATA, add(CFA_XSP16, literal(-15)))
        CFI (cfiCond111) V0 load(1, XDATA, add(CFA_XSP16, literal(-14)))
        CFI (cfiCond111) V1 load(1, XDATA, add(CFA_XSP16, literal(-13)))
        CFI (cfiCond111) V2 load(1, XDATA, add(CFA_XSP16, literal(-12)))
        CFI (cfiCond111) V3 load(1, XDATA, add(CFA_XSP16, literal(-11)))
        CFI (cfiCond111) V4 load(1, XDATA, add(CFA_XSP16, literal(-10)))
        CFI (cfiCond111) V5 load(1, XDATA, add(CFA_XSP16, literal(-9)))
        CFI (cfiCond111) V6 load(1, XDATA, add(CFA_XSP16, literal(-8)))
        CFI (cfiCond111) V7 load(1, XDATA, add(CFA_XSP16, literal(-7)))
        CFI (cfiCond111) R7 load(1, XDATA, add(CFA_XSP16, literal(-6)))
        CFI (cfiCond111) ?RET_LOW load(1, XDATA, add(CFA_XSP16, literal(-5)))
        CFI (cfiCond111) ?RET_HIGH load(1, XDATA, add(CFA_XSP16, literal(-4)))
        CFI (cfiCond111) ?BRET_EXT load(1, XDATA, add(CFA_XSP16, literal(-3)))
        CFI (cfiCond111) DPL0 load(1, XDATA, add(CFA_XSP16, literal(-2)))
        CFI (cfiCond111) DPH0 load(1, XDATA, add(CFA_XSP16, literal(-1)))
        CFI (cfiCond111) CFA_SP SP+0
        CFI (cfiCond111) CFA_XSP16 add(XSP16, 19)
        CFI Block cfiPicker112 Using cfiCommon1
        CFI (cfiPicker112) NoFunction
        CFI (cfiPicker112) Picker
        MOV     DPTR,#funcTableBuffer
        MOVX    A,@DPTR
        ADD     A,R0
        MOV     R2,A
        INC     DPTR
        MOVX    A,@DPTR
        ADDC    A,R1
        MOV     DPL,R2
        MOV     DPH,A
        RET
        CFI EndBlock cfiCond109
        CFI EndBlock cfiCond110
        CFI EndBlock cfiCond111
        CFI EndBlock cfiPicker112

        RSEG BANKED_CODE:CODE:NOROOT(0)
?Subroutine8:
        CFI Block cfiCond113 Using cfiCommon0
        CFI NoFunction
        CFI Conditional ??CrossCallReturnLabel_6
        CFI R6 load(1, XDATA, add(CFA_XSP16, literal(-16)))
        CFI VB load(1, XDATA, add(CFA_XSP16, literal(-15)))
        CFI V0 load(1, XDATA, add(CFA_XSP16, literal(-14)))
        CFI V1 load(1, XDATA, add(CFA_XSP16, literal(-13)))
        CFI V2 load(1, XDATA, add(CFA_XSP16, literal(-12)))
        CFI V3 load(1, XDATA, add(CFA_XSP16, literal(-11)))
        CFI V4 load(1, XDATA, add(CFA_XSP16, literal(-10)))
        CFI V5 load(1, XDATA, add(CFA_XSP16, literal(-9)))
        CFI V6 load(1, XDATA, add(CFA_XSP16, literal(-8)))
        CFI V7 load(1, XDATA, add(CFA_XSP16, literal(-7)))
        CFI R7 load(1, XDATA, add(CFA_XSP16, literal(-6)))
        CFI ?RET_LOW load(1, XDATA, add(CFA_XSP16, literal(-5)))
        CFI ?RET_HIGH load(1, XDATA, add(CFA_XSP16, literal(-4)))
        CFI ?BRET_EXT load(1, XDATA, add(CFA_XSP16, literal(-3)))
        CFI DPL0 load(1, XDATA, add(CFA_XSP16, literal(-2)))
        CFI DPH0 load(1, XDATA, add(CFA_XSP16, literal(-1)))
        CFI CFA_SP SP+0
        CFI CFA_XSP16 add(XSP16, 19)
        CFI Block cfiCond114 Using cfiCommon0
        CFI (cfiCond114) NoFunction
        CFI (cfiCond114) Conditional ??CrossCallReturnLabel_7
        CFI (cfiCond114) R6 load(1, XDATA, add(CFA_XSP16, literal(-16)))
        CFI (cfiCond114) VB load(1, XDATA, add(CFA_XSP16, literal(-15)))
        CFI (cfiCond114) V0 load(1, XDATA, add(CFA_XSP16, literal(-14)))
        CFI (cfiCond114) V1 load(1, XDATA, add(CFA_XSP16, literal(-13)))
        CFI (cfiCond114) V2 load(1, XDATA, add(CFA_XSP16, literal(-12)))
        CFI (cfiCond114) V3 load(1, XDATA, add(CFA_XSP16, literal(-11)))
        CFI (cfiCond114) V4 load(1, XDATA, add(CFA_XSP16, literal(-10)))
        CFI (cfiCond114) V5 load(1, XDATA, add(CFA_XSP16, literal(-9)))
        CFI (cfiCond114) V6 load(1, XDATA, add(CFA_XSP16, literal(-8)))
        CFI (cfiCond114) V7 load(1, XDATA, add(CFA_XSP16, literal(-7)))
        CFI (cfiCond114) R7 load(1, XDATA, add(CFA_XSP16, literal(-6)))
        CFI (cfiCond114) ?RET_LOW load(1, XDATA, add(CFA_XSP16, literal(-5)))
        CFI (cfiCond114) ?RET_HIGH load(1, XDATA, add(CFA_XSP16, literal(-4)))
        CFI (cfiCond114) ?BRET_EXT load(1, XDATA, add(CFA_XSP16, literal(-3)))
        CFI (cfiCond114) DPL0 load(1, XDATA, add(CFA_XSP16, literal(-2)))
        CFI (cfiCond114) DPH0 load(1, XDATA, add(CFA_XSP16, literal(-1)))
        CFI (cfiCond114) CFA_SP SP+0
        CFI (cfiCond114) CFA_XSP16 add(XSP16, 19)
        CFI Block cfiPicker115 Using cfiCommon1
        CFI (cfiPicker115) NoFunction
        CFI (cfiPicker115) Picker
        INC     DPTR
        INC     DPTR
        MOVX    A,@DPTR
        MOV     R0,A
        MOV     A,?V0 + 0
        ADD     A,#0x22
        LCALL   ?Subroutine34 & 0xFFFF
??CrossCallReturnLabel_88:
        MOV     R1,A
        INC     DPTR
        MOVX    A,@DPTR
        MOV     DPH,A
        MOV     DPL,R1
        INC     DPTR
        RET
        CFI EndBlock cfiCond113
        CFI EndBlock cfiCond114
        CFI EndBlock cfiPicker115

        RSEG BANKED_CODE:CODE:NOROOT(0)
?Subroutine7:
        CFI Block cfiCond116 Using cfiCommon0
        CFI NoFunction
        CFI Conditional ??CrossCallReturnLabel_2
        CFI R6 load(1, XDATA, add(CFA_XSP16, literal(-10)))
        CFI VB load(1, XDATA, add(CFA_XSP16, literal(-9)))
        CFI V0 load(1, XDATA, add(CFA_XSP16, literal(-8)))
        CFI V1 load(1, XDATA, add(CFA_XSP16, literal(-7)))
        CFI R7 load(1, XDATA, add(CFA_XSP16, literal(-6)))
        CFI ?RET_LOW load(1, XDATA, add(CFA_XSP16, literal(-5)))
        CFI ?RET_HIGH load(1, XDATA, add(CFA_XSP16, literal(-4)))
        CFI ?BRET_EXT load(1, XDATA, add(CFA_XSP16, literal(-3)))
        CFI DPL0 load(1, XDATA, add(CFA_XSP16, literal(-2)))
        CFI DPH0 load(1, XDATA, add(CFA_XSP16, literal(-1)))
        CFI CFA_SP SP+0
        CFI CFA_XSP16 add(XSP16, 10)
        CFI Block cfiCond117 Using cfiCommon0
        CFI (cfiCond117) NoFunction
        CFI (cfiCond117) Conditional ??CrossCallReturnLabel_3
        CFI (cfiCond117) R6 load(1, XDATA, add(CFA_XSP16, literal(-10)))
        CFI (cfiCond117) VB load(1, XDATA, add(CFA_XSP16, literal(-9)))
        CFI (cfiCond117) V0 load(1, XDATA, add(CFA_XSP16, literal(-8)))
        CFI (cfiCond117) V1 load(1, XDATA, add(CFA_XSP16, literal(-7)))
        CFI (cfiCond117) R7 load(1, XDATA, add(CFA_XSP16, literal(-6)))
        CFI (cfiCond117) ?RET_LOW load(1, XDATA, add(CFA_XSP16, literal(-5)))
        CFI (cfiCond117) ?RET_HIGH load(1, XDATA, add(CFA_XSP16, literal(-4)))
        CFI (cfiCond117) ?BRET_EXT load(1, XDATA, add(CFA_XSP16, literal(-3)))
        CFI (cfiCond117) DPL0 load(1, XDATA, add(CFA_XSP16, literal(-2)))
        CFI (cfiCond117) DPH0 load(1, XDATA, add(CFA_XSP16, literal(-1)))
        CFI (cfiCond117) CFA_SP SP+0
        CFI (cfiCond117) CFA_XSP16 add(XSP16, 10)
        CFI Block cfiCond118 Using cfiCommon0
        CFI (cfiCond118) NoFunction
        CFI (cfiCond118) Conditional ??CrossCallReturnLabel_4
        CFI (cfiCond118) R6 load(1, XDATA, add(CFA_XSP16, literal(-16)))
        CFI (cfiCond118) VB load(1, XDATA, add(CFA_XSP16, literal(-15)))
        CFI (cfiCond118) V0 load(1, XDATA, add(CFA_XSP16, literal(-14)))
        CFI (cfiCond118) V1 load(1, XDATA, add(CFA_XSP16, literal(-13)))
        CFI (cfiCond118) V2 load(1, XDATA, add(CFA_XSP16, literal(-12)))
        CFI (cfiCond118) V3 load(1, XDATA, add(CFA_XSP16, literal(-11)))
        CFI (cfiCond118) V4 load(1, XDATA, add(CFA_XSP16, literal(-10)))
        CFI (cfiCond118) V5 load(1, XDATA, add(CFA_XSP16, literal(-9)))
        CFI (cfiCond118) V6 load(1, XDATA, add(CFA_XSP16, literal(-8)))
        CFI (cfiCond118) V7 load(1, XDATA, add(CFA_XSP16, literal(-7)))
        CFI (cfiCond118) R7 load(1, XDATA, add(CFA_XSP16, literal(-6)))
        CFI (cfiCond118) ?RET_LOW load(1, XDATA, add(CFA_XSP16, literal(-5)))
        CFI (cfiCond118) ?RET_HIGH load(1, XDATA, add(CFA_XSP16, literal(-4)))
        CFI (cfiCond118) ?BRET_EXT load(1, XDATA, add(CFA_XSP16, literal(-3)))
        CFI (cfiCond118) DPL0 load(1, XDATA, add(CFA_XSP16, literal(-2)))
        CFI (cfiCond118) DPH0 load(1, XDATA, add(CFA_XSP16, literal(-1)))
        CFI (cfiCond118) CFA_SP SP+0
        CFI (cfiCond118) CFA_XSP16 add(XSP16, 19)
        CFI Block cfiCond119 Using cfiCommon0
        CFI (cfiCond119) NoFunction
        CFI (cfiCond119) Conditional ??CrossCallReturnLabel_5
        CFI (cfiCond119) R6 load(1, XDATA, add(CFA_XSP16, literal(-16)))
        CFI (cfiCond119) VB load(1, XDATA, add(CFA_XSP16, literal(-15)))
        CFI (cfiCond119) V0 load(1, XDATA, add(CFA_XSP16, literal(-14)))
        CFI (cfiCond119) V1 load(1, XDATA, add(CFA_XSP16, literal(-13)))
        CFI (cfiCond119) V2 load(1, XDATA, add(CFA_XSP16, literal(-12)))
        CFI (cfiCond119) V3 load(1, XDATA, add(CFA_XSP16, literal(-11)))
        CFI (cfiCond119) V4 load(1, XDATA, add(CFA_XSP16, literal(-10)))
        CFI (cfiCond119) V5 load(1, XDATA, add(CFA_XSP16, literal(-9)))
        CFI (cfiCond119) V6 load(1, XDATA, add(CFA_XSP16, literal(-8)))
        CFI (cfiCond119) V7 load(1, XDATA, add(CFA_XSP16, literal(-7)))
        CFI (cfiCond119) R7 load(1, XDATA, add(CFA_XSP16, literal(-6)))
        CFI (cfiCond119) ?RET_LOW load(1, XDATA, add(CFA_XSP16, literal(-5)))
        CFI (cfiCond119) ?RET_HIGH load(1, XDATA, add(CFA_XSP16, literal(-4)))
        CFI (cfiCond119) ?BRET_EXT load(1, XDATA, add(CFA_XSP16, literal(-3)))
        CFI (cfiCond119) DPL0 load(1, XDATA, add(CFA_XSP16, literal(-2)))
        CFI (cfiCond119) DPH0 load(1, XDATA, add(CFA_XSP16, literal(-1)))
        CFI (cfiCond119) CFA_SP SP+0
        CFI (cfiCond119) CFA_XSP16 add(XSP16, 19)
        CFI Block cfiPicker120 Using cfiCommon1
        CFI (cfiPicker120) NoFunction
        CFI (cfiPicker120) Picker
        MOV     DPTR,#funcCount
        MOVX    A,@DPTR
        MOV     R0,A
        CLR     C
        MOV     A,R6
        SUBB    A,R0
        MOV     A,R7
        SUBB    A,#0x0
        MOV     C,0xD0 /* PSW */.2
        XRL     A,PSW
        RLC     A
        RET
        CFI EndBlock cfiCond116
        CFI EndBlock cfiCond117
        CFI EndBlock cfiCond118
        CFI EndBlock cfiCond119
        CFI EndBlock cfiPicker120
//  335 

        RSEG BANKED_CODE:CODE:NOROOT(0)
//  336 static uint16 functionEpProcess(uint8 task_id, uint16 events)  //节点接收数据处理
functionEpProcess:
        CFI Block cfiBlock121 Using cfiCommon0
        CFI Function functionEpProcess
        CODE
//  337 {
        FUNCALL functionEpProcess, osal_msg_receive
        LOCFRAME ISTACK, 0, STACK
        LOCFRAME PSTACK, 0, STACK
        LOCFRAME XSTACK, 18, STACK
        LOCFRAME IOVERLAY, 0, STATIC
        LOCFRAME DOVERLAY, 0, STATIC
        ARGFRAME ISTACK, 0, STACK
        ARGFRAME PSTACK, 0, STACK
        ARGFRAME XSTACK, 18, STACK
        ARGFRAME IOVERLAY, 0, STATIC
        ARGFRAME DOVERLAY, 0, STATIC
        FUNCALL functionEpProcess, osal_stop_timerEx
        LOCFRAME ISTACK, 0, STACK
        LOCFRAME PSTACK, 0, STACK
        LOCFRAME XSTACK, 18, STACK
        LOCFRAME IOVERLAY, 0, STATIC
        LOCFRAME DOVERLAY, 0, STATIC
        ARGFRAME ISTACK, 0, STACK
        ARGFRAME PSTACK, 0, STACK
        ARGFRAME XSTACK, 18, STACK
        ARGFRAME IOVERLAY, 0, STATIC
        ARGFRAME DOVERLAY, 0, STATIC
        FUNCALL functionEpProcess, osal_msg_deallocate
        LOCFRAME ISTACK, 0, STACK
        LOCFRAME PSTACK, 0, STACK
        LOCFRAME XSTACK, 18, STACK
        LOCFRAME IOVERLAY, 0, STATIC
        LOCFRAME DOVERLAY, 0, STATIC
        ARGFRAME ISTACK, 0, STACK
        ARGFRAME PSTACK, 0, STACK
        ARGFRAME XSTACK, 18, STACK
        ARGFRAME IOVERLAY, 0, STATIC
        ARGFRAME DOVERLAY, 0, STATIC
        FUNCALL functionEpProcess, osal_msg_receive
        LOCFRAME ISTACK, 0, STACK
        LOCFRAME PSTACK, 0, STACK
        LOCFRAME XSTACK, 18, STACK
        LOCFRAME IOVERLAY, 0, STATIC
        LOCFRAME DOVERLAY, 0, STATIC
        ARGFRAME ISTACK, 0, STACK
        ARGFRAME PSTACK, 0, STACK
        ARGFRAME XSTACK, 18, STACK
        ARGFRAME IOVERLAY, 0, STATIC
        ARGFRAME DOVERLAY, 0, STATIC
        FUNCALL functionEpProcess, HalLedBlink
        LOCFRAME ISTACK, 0, STACK
        LOCFRAME PSTACK, 0, STACK
        LOCFRAME XSTACK, 18, STACK
        LOCFRAME IOVERLAY, 0, STATIC
        LOCFRAME DOVERLAY, 0, STATIC
        ARGFRAME ISTACK, 0, STACK
        ARGFRAME PSTACK, 0, STACK
        ARGFRAME XSTACK, 18, STACK
        ARGFRAME IOVERLAY, 0, STATIC
        ARGFRAME DOVERLAY, 0, STATIC
        FUNCALL functionEpProcess, SampleApp_MessageMSGCB
        LOCFRAME ISTACK, 0, STACK
        LOCFRAME PSTACK, 0, STACK
        LOCFRAME XSTACK, 18, STACK
        LOCFRAME IOVERLAY, 0, STATIC
        LOCFRAME DOVERLAY, 0, STATIC
        ARGFRAME ISTACK, 0, STACK
        ARGFRAME PSTACK, 0, STACK
        ARGFRAME XSTACK, 18, STACK
        ARGFRAME IOVERLAY, 0, STATIC
        ARGFRAME DOVERLAY, 0, STATIC
        FUNCALL functionEpProcess, osal_start_timerEx
        LOCFRAME ISTACK, 0, STACK
        LOCFRAME PSTACK, 0, STACK
        LOCFRAME XSTACK, 18, STACK
        LOCFRAME IOVERLAY, 0, STATIC
        LOCFRAME DOVERLAY, 0, STATIC
        ARGFRAME ISTACK, 0, STACK
        ARGFRAME PSTACK, 0, STACK
        ARGFRAME XSTACK, 18, STACK
        ARGFRAME IOVERLAY, 0, STATIC
        ARGFRAME DOVERLAY, 0, STATIC
        FUNCALL functionEpProcess, osal_start_timerEx
        LOCFRAME ISTACK, 0, STACK
        LOCFRAME PSTACK, 0, STACK
        LOCFRAME XSTACK, 18, STACK
        LOCFRAME IOVERLAY, 0, STATIC
        LOCFRAME DOVERLAY, 0, STATIC
        ARGFRAME ISTACK, 0, STACK
        ARGFRAME PSTACK, 0, STACK
        ARGFRAME XSTACK, 18, STACK
        ARGFRAME IOVERLAY, 0, STATIC
        ARGFRAME DOVERLAY, 0, STATIC
        MOV     A,#-0x12
        LCALL   ?BANKED_ENTER_XDATA
        CFI DPH0 load(1, XDATA, add(CFA_XSP16, literal(-1)))
        CFI DPL0 load(1, XDATA, add(CFA_XSP16, literal(-2)))
        CFI ?BRET_EXT load(1, XDATA, add(CFA_XSP16, literal(-3)))
        CFI ?RET_HIGH load(1, XDATA, add(CFA_XSP16, literal(-4)))
        CFI ?RET_LOW load(1, XDATA, add(CFA_XSP16, literal(-5)))
        CFI R7 load(1, XDATA, add(CFA_XSP16, literal(-6)))
        CFI V9 load(1, XDATA, add(CFA_XSP16, literal(-7)))
        CFI V8 load(1, XDATA, add(CFA_XSP16, literal(-8)))
        CFI V7 load(1, XDATA, add(CFA_XSP16, literal(-9)))
        CFI V6 load(1, XDATA, add(CFA_XSP16, literal(-10)))
        CFI V5 load(1, XDATA, add(CFA_XSP16, literal(-11)))
        CFI V4 load(1, XDATA, add(CFA_XSP16, literal(-12)))
        CFI V3 load(1, XDATA, add(CFA_XSP16, literal(-13)))
        CFI V2 load(1, XDATA, add(CFA_XSP16, literal(-14)))
        CFI V1 load(1, XDATA, add(CFA_XSP16, literal(-15)))
        CFI V0 load(1, XDATA, add(CFA_XSP16, literal(-16)))
        CFI VB load(1, XDATA, add(CFA_XSP16, literal(-17)))
        CFI R6 load(1, XDATA, add(CFA_XSP16, literal(-18)))
        CFI CFA_SP SP+0
        CFI CFA_XSP16 add(XSP16, 18)
        ; Saved register size: 18
        ; Auto size: 0
        MOV     ?V0 + 0,R1
        MOV     A,R2
        MOV     R6,A
        MOV     A,R3
        MOV     R7,A
//  338     afIncomingMSGPacket_t *MSGpkt;
//  339     if(events & SYS_EVENT_MSG)
        ANL     A,#0x80
        JNZ     $+5
        LJMP    ??functionEpProcess_0 & 0xFFFF
//  340     {
//  341         MSGpkt = (afIncomingMSGPacket_t *)osal_msg_receive( task_id );
        ; Setup parameters for call to function osal_msg_receive
        SJMP    ??functionEpProcess_1
//  342         while ( MSGpkt )
//  343         {
//  344           switch ( MSGpkt->hdr.event )
//  345           {
//  346             // 接收到数据包
//  347           case AF_INCOMING_MSG_CMD: 
//  348             HalLedBlink( HAL_LED_1, 1, 50, 250 );
//  349             //点对点及广播实验                
//  350        /*     {
//  351               switch ( MSGpkt->clusterId )
//  352               {
//  353               case SAPP_PERIODIC_CLUSTERID:
//  354                 if(MSGpkt->endPoint <= funcCount)
//  355                 {
//  356                   struct ep_info_t *ep = &funcList[MSGpkt->endPoint - 1];
//  357                   if(ep->incoming_data)
//  358                     (*ep->incoming_data)(ep, MSGpkt->srcAddr.addr.shortAddr, MSGpkt->srcAddr.endPoint, &MSGpkt->cmd);
//  359                 }
//  360                 break;
//  361               }*/
//  362 #if defined(ZDO_COORDINATOR)
//  363              //HalUARTWrite(HAL_UART_PORT_0, "get3", 4); 
//  364              SampleApp_MessageMSGCB( MSGpkt );
//  365               break;
//  366 #else 
//  367               SampleApp_MessageMSGCB2( MSGpkt );
//  368               break;
//  369 #endif
//  370 
//  371             case ZDO_STATE_CHANGE:
//  372                 {
//  373                     curNwkState = (devStates_t)(MSGpkt->hdr.status);
//  374                     if ( (curNwkState == DEV_ZB_COORD)
//  375                             || (curNwkState == DEV_ROUTER)
//  376                             || (curNwkState == DEV_END_DEVICE) )
//  377                     {
//  378                         int i;
//  379                         int hasTimeOut = 0;
//  380                         for(i = 0; i < funcCount; i++)
//  381                         {
//  382                             struct ep_info_t *ep = &funcList[i];
//  383                             if(ep->nwk_stat_change)
//  384                                 (*ep->nwk_stat_change)(ep);
//  385                             // 重置端点计数器
//  386                             if(ep->time_out && ep->function.cycle)
//  387                             {
//  388                                 ep->timerTick = ep->function.cycle;
//  389                                 hasTimeOut = 1;
//  390                             }
//  391                         }
//  392                         if(hasTimeOut)
//  393                         {
//  394                             // 加入网络成功,启动定时器,为各个端点提供定时
//  395                             osal_start_timerEx(task_id,
//  396                                                SAPP_SEND_PERIODIC_MSG_EVT,
//  397                                                1000);
//  398                         }
//  399                     }
//  400                     else
//  401                         osal_stop_timerEx(task_id, SAPP_SEND_PERIODIC_MSG_EVT);
??functionEpProcess_2:
        ; Setup parameters for call to function osal_stop_timerEx
        MOV     R2,#0x1
        MOV     R3,#0x0
        MOV     R1,?V0 + 0
        LCALL   ??osal_stop_timerEx?relay
//  402                 }
//  403                 break;
//  404             default:
//  405                 break;
//  406             }
//  407             // Release the memory
//  408             osal_msg_deallocate( (uint8 *)MSGpkt );
??functionEpProcess_3:
        ; Setup parameters for call to function osal_msg_deallocate
        MOV     R2,?V0 + 6
        MOV     R3,?V0 + 7
        LCALL   ??osal_msg_deallocate?relay
//  409             // Next - if one is available
//  410             MSGpkt = (afIncomingMSGPacket_t *)osal_msg_receive( task_id );
        ; Setup parameters for call to function osal_msg_receive
        MOV     R1,?V0 + 0
??functionEpProcess_1:
        LCALL   ??osal_msg_receive?relay
        MOV     ?V0 + 6,R2
        MOV     ?V0 + 7,R3
        MOV     A,?V0 + 6
        ORL     A,?V0 + 7
        JNZ     $+5
        LJMP    ??functionEpProcess_4 & 0xFFFF
        MOV     DPL,?V0 + 6
        MOV     DPH,?V0 + 7
        MOVX    A,@DPTR
        ADD     A,#-0x1a
        JZ      ??functionEpProcess_5
        ADD     A,#0x49
        JZ      ??functionEpProcess_6
        SJMP    ??functionEpProcess_3
??functionEpProcess_5:
        ; Setup parameters for call to function HalLedBlink
        MOV     R4,#-0x6
        MOV     R5,#0x0
        MOV     R3,#0x32
        MOV     R2,#0x1
        MOV     R1,#0x1
        LCALL   ??HalLedBlink?relay
        ; Setup parameters for call to function SampleApp_MessageMSGCB
        MOV     R2,?V0 + 6
        MOV     R3,?V0 + 7
        LCALL   ??SampleApp_MessageMSGCB?relay
        SJMP    ??functionEpProcess_3
??functionEpProcess_6:
        INC     DPTR
        MOVX    A,@DPTR
        MOV     DPTR,#curNwkState
        MOVX    @DPTR,A
        XRL     A,#0x9
        JZ      ??functionEpProcess_7
        MOVX    A,@DPTR
        XRL     A,#0x7
        JZ      ??functionEpProcess_7
        MOVX    A,@DPTR
        XRL     A,#0x6
        JNZ     ??functionEpProcess_2
??functionEpProcess_7:
        MOV     ?V0 + 4,#0x0
        MOV     ?V0 + 2,#0x0
        MOV     ?V0 + 3,#0x0
        SJMP    ??CrossCallReturnLabel_37
??functionEpProcess_8:
        MOV     A,?V0 + 2
        MOV     B,#0x21
        MUL     AB
        MOV     R0,A
        MOV     R2,B
        MOV     B,#0x21
        MOV     A,?V0 + 3
        LCALL   ??Subroutine36_0 & 0xFFFF
??CrossCallReturnLabel_51:
        MOV     ?V0 + 8,A
        MOV     A,#(funcList >> 8) & 0xff
        ADDC    A,R1
        MOV     ?V0 + 9,A
        MOV     DPL,?V0 + 8
        MOV     DPH,A
        LCALL   ??Subroutine41_0 & 0xFFFF
??CrossCallReturnLabel_55:
        JZ      ??functionEpProcess_9
        ; Setup parameters for indirect call
        MOV     R2,?V0 + 8
        MOV     R3,?V0 + 9
        MOV     DPL,R2
        MOV     DPH,R3
        LCALL   ??Subroutine44_0 & 0xFFFF
??CrossCallReturnLabel_66:
        LCALL   ?CALL_IND
??functionEpProcess_9:
        MOV     DPL,?V0 + 8
        MOV     DPH,?V0 + 9
        LCALL   ??Subroutine38_0 & 0xFFFF
??CrossCallReturnLabel_58:
        JZ      ??functionEpProcess_10
        MOV     DPL,?V0 + 8
        MOV     DPH,?V0 + 9
        INC     DPTR
        INC     DPTR
        INC     DPTR
        INC     DPTR
        INC     DPTR
        INC     DPTR
        INC     DPTR
        INC     DPTR
        INC     DPTR
        INC     DPTR
        MOVX    A,@DPTR
        JZ      ??functionEpProcess_10
        PUSH    A
        CFI CFA_SP SP+-1
        MOV     A,?V0 + 8
        ADD     A,#0xd
        MOV     DPL,A
        MOV     A,?V0 + 9
        LCALL   ??Subroutine51_0 & 0xFFFF
??CrossCallReturnLabel_98:
        POP     A
        CFI CFA_SP SP+0
        MOVX    @DPTR,A
        MOV     ?V0 + 4,#0x1
??functionEpProcess_10:
        LCALL   ?Subroutine28 & 0xFFFF
??CrossCallReturnLabel_37:
        LCALL   ?Subroutine10 & 0xFFFF
??CrossCallReturnLabel_8:
        JC      ??functionEpProcess_8
        MOV     A,?V0 + 4
        MOV     C,0xE0 /* A   */.0
        JC      $+5
        LJMP    ??functionEpProcess_3 & 0xFFFF
        ; Setup parameters for call to function osal_start_timerEx
        MOV     R4,#-0x18
        MOV     R5,#0x3
        MOV     R2,#0x1
        MOV     R3,#0x0
        MOV     R1,?V0 + 0
        LCALL   ??osal_start_timerEx?relay
        LJMP    ??functionEpProcess_3 & 0xFFFF
//  411         }
//  412         // return unprocessed events
//  413         return (events ^ SYS_EVENT_MSG);
??functionEpProcess_4:
        MOV     A,R6
        MOV     R2,A
        MOV     A,R7
        XRL     A,#0x80
??functionEpProcess_11:
        MOV     R3,A
        LJMP    ??functionEpProcess_12 & 0xFFFF
//  414     }
//  415 
//  416     // 定时器时间到, 遍历所有端点看是否有需要调用time_out
//  417     if(events & SAPP_SEND_PERIODIC_MSG_EVT)
??functionEpProcess_0:
        MOV     A,R6
        MOV     C,0xE0 /* A   */.0
        JC      $+5
        LJMP    ??functionEpProcess_13 & 0xFFFF
//  418     {
//  419         int i;
//  420         for(i = 0; i < funcCount; i++)
        MOV     ?V0 + 2,#0x0
        MOV     ?V0 + 3,#0x0
        SJMP    ??CrossCallReturnLabel_38
//  421         {
//  422             struct ep_info_t *ep = &funcList[i];
??functionEpProcess_14:
        MOV     A,?V0 + 2
        MOV     B,#0x21
        MUL     AB
        MOV     R0,A
        MOV     R2,B
        MOV     B,#0x21
        MOV     A,?V0 + 3
        LCALL   ??Subroutine36_0 & 0xFFFF
??CrossCallReturnLabel_52:
        MOV     ?V0 + 4,A
        MOV     A,#(funcList >> 8) & 0xff
        ADDC    A,R1
        MOV     ?V0 + 5,A
//  423             if(ep->time_out && ep->function.cycle)
        MOV     DPL,?V0 + 4
        MOV     DPH,A
        LCALL   ??Subroutine38_0 & 0xFFFF
??CrossCallReturnLabel_59:
        JZ      ??functionEpProcess_15
        MOV     DPL,?V0 + 4
        MOV     DPH,?V0 + 5
        INC     DPTR
        INC     DPTR
        INC     DPTR
        INC     DPTR
        INC     DPTR
        INC     DPTR
        INC     DPTR
        INC     DPTR
        INC     DPTR
        INC     DPTR
        MOVX    A,@DPTR
        JZ      ??functionEpProcess_15
//  424             {
//  425                 // 端点需要周期执行
//  426                 ep->timerTick = ep->timerTick - 1;
        MOV     A,?V0 + 4
        ADD     A,#0xd
        MOV     DPL,A
        MOV     A,?V0 + 5
        LCALL   ??Subroutine47_0 & 0xFFFF
??CrossCallReturnLabel_80:
        DEC     A
        MOVX    @DPTR,A
//  427                 if(ep->timerTick == 0)
        JNZ     ??functionEpProcess_15
//  428                 {
//  429                   // 定时时间到,执行time_out函数
//  430                   (*ep->time_out)(ep);
        ; Setup parameters for indirect call
        MOV     R2,?V0 + 4
        MOV     R3,?V0 + 5
        MOV     DPL,R2
        MOV     DPH,R3
        INC     DPTR
        INC     DPTR
        INC     DPTR
        INC     DPTR
        LCALL   ??Subroutine43_0 & 0xFFFF
??CrossCallReturnLabel_69:
        LCALL   ?CALL_IND
//  431                   ep->timerTick = ep->function.cycle;
        MOV     DPL,?V0 + 4
        MOV     DPH,?V0 + 5
        INC     DPTR
        INC     DPTR
        INC     DPTR
        INC     DPTR
        INC     DPTR
        INC     DPTR
        INC     DPTR
        INC     DPTR
        INC     DPTR
        INC     DPTR
        MOVX    A,@DPTR
        PUSH    A
        CFI CFA_SP SP+-1
        MOV     A,?V0 + 4
        ADD     A,#0xd
        MOV     DPL,A
        MOV     A,?V0 + 5
        LCALL   ??Subroutine51_0 & 0xFFFF
//  432                 }
//  433             }
//  434 #if 0
//  435             if(ep->userTimer && ep->res_available)
//  436             {
//  437                 ep->userTimer = ep->userTimer - 1;
//  438                 if(ep->userTimer <= 1)
//  439                 {
//  440                     (*ep->res_available)(ep, ResUserTimer, NULL);
//  441                     ep->userTimer = 0;
//  442                 }
//  443             }
//  444 #endif
//  445         }
??CrossCallReturnLabel_99:
        POP     A
        CFI CFA_SP SP+0
        MOVX    @DPTR,A
??functionEpProcess_15:
        LCALL   ?Subroutine28 & 0xFFFF
??CrossCallReturnLabel_38:
        LCALL   ?Subroutine10 & 0xFFFF
??CrossCallReturnLabel_9:
        JC      ??functionEpProcess_14
//  446         // 重新启动定时器
//  447         osal_start_timerEx(task_id, SAPP_SEND_PERIODIC_MSG_EVT, 1000);
        ; Setup parameters for call to function osal_start_timerEx
        MOV     R4,#-0x18
        MOV     R5,#0x3
        MOV     R2,#0x1
        MOV     R3,#0x0
        MOV     R1,?V0 + 0
        LCALL   ??osal_start_timerEx?relay
//  448         // return unprocessed events
//  449         return (events ^ SAPP_SEND_PERIODIC_MSG_EVT);
        MOV     A,R6
        XRL     A,#0x1
        MOV     R2,A
        MOV     A,R7
        LJMP    ??functionEpProcess_11 & 0xFFFF
//  450     }
//  451     // Discard unknown events
//  452     return 0;
??functionEpProcess_13:
        MOV     R2,#0x0
        MOV     R3,#0x0
        CFI EndBlock cfiBlock121
??functionEpProcess_12:
        REQUIRE ?Subroutine2
        ; // Fall through to label ?Subroutine2
//  453 }

        RSEG BANKED_CODE:CODE:NOROOT(0)
?Subroutine2:
        CFI Block cfiBlock122 Using cfiCommon0
        CFI NoFunction
        CFI CFA_SP SP+0
        CFI CFA_XSP16 add(XSP16, 18)
        CFI VB load(1, XDATA, add(CFA_XSP16, literal(-17)))
        CFI DPL0 load(1, XDATA, add(CFA_XSP16, literal(-2)))
        CFI DPH0 load(1, XDATA, add(CFA_XSP16, literal(-1)))
        CFI R6 load(1, XDATA, add(CFA_XSP16, literal(-18)))
        CFI R7 load(1, XDATA, add(CFA_XSP16, literal(-6)))
        CFI V0 load(1, XDATA, add(CFA_XSP16, literal(-16)))
        CFI V1 load(1, XDATA, add(CFA_XSP16, literal(-15)))
        CFI V2 load(1, XDATA, add(CFA_XSP16, literal(-14)))
        CFI V3 load(1, XDATA, add(CFA_XSP16, literal(-13)))
        CFI V4 load(1, XDATA, add(CFA_XSP16, literal(-12)))
        CFI V5 load(1, XDATA, add(CFA_XSP16, literal(-11)))
        CFI V6 load(1, XDATA, add(CFA_XSP16, literal(-10)))
        CFI V7 load(1, XDATA, add(CFA_XSP16, literal(-9)))
        CFI V8 load(1, XDATA, add(CFA_XSP16, literal(-8)))
        CFI V9 load(1, XDATA, add(CFA_XSP16, literal(-7)))
        CFI ?BRET_EXT load(1, XDATA, add(CFA_XSP16, literal(-3)))
        CFI ?RET_HIGH load(1, XDATA, add(CFA_XSP16, literal(-4)))
        CFI ?RET_LOW load(1, XDATA, add(CFA_XSP16, literal(-5)))
        MOV     R7,#0xa
        LJMP    ?BANKED_LEAVE_XDATA
        CFI EndBlock cfiBlock122

        RSEG BANKED_CODE:CODE:NOROOT(0)
?Subroutine28:
        CFI Block cfiCond123 Using cfiCommon0
        CFI NoFunction
        CFI Conditional ??CrossCallReturnLabel_37
        CFI R6 load(1, XDATA, add(CFA_XSP16, literal(-18)))
        CFI VB load(1, XDATA, add(CFA_XSP16, literal(-17)))
        CFI V0 load(1, XDATA, add(CFA_XSP16, literal(-16)))
        CFI V1 load(1, XDATA, add(CFA_XSP16, literal(-15)))
        CFI V2 load(1, XDATA, add(CFA_XSP16, literal(-14)))
        CFI V3 load(1, XDATA, add(CFA_XSP16, literal(-13)))
        CFI V4 load(1, XDATA, add(CFA_XSP16, literal(-12)))
        CFI V5 load(1, XDATA, add(CFA_XSP16, literal(-11)))
        CFI V6 load(1, XDATA, add(CFA_XSP16, literal(-10)))
        CFI V7 load(1, XDATA, add(CFA_XSP16, literal(-9)))
        CFI V8 load(1, XDATA, add(CFA_XSP16, literal(-8)))
        CFI V9 load(1, XDATA, add(CFA_XSP16, literal(-7)))
        CFI R7 load(1, XDATA, add(CFA_XSP16, literal(-6)))
        CFI ?RET_LOW load(1, XDATA, add(CFA_XSP16, literal(-5)))
        CFI ?RET_HIGH load(1, XDATA, add(CFA_XSP16, literal(-4)))
        CFI ?BRET_EXT load(1, XDATA, add(CFA_XSP16, literal(-3)))
        CFI DPL0 load(1, XDATA, add(CFA_XSP16, literal(-2)))
        CFI DPH0 load(1, XDATA, add(CFA_XSP16, literal(-1)))
        CFI CFA_SP SP+0
        CFI CFA_XSP16 add(XSP16, 18)
        CFI Block cfiCond124 Using cfiCommon0
        CFI (cfiCond124) NoFunction
        CFI (cfiCond124) Conditional ??CrossCallReturnLabel_38
        CFI (cfiCond124) R6 load(1, XDATA, add(CFA_XSP16, literal(-18)))
        CFI (cfiCond124) VB load(1, XDATA, add(CFA_XSP16, literal(-17)))
        CFI (cfiCond124) V0 load(1, XDATA, add(CFA_XSP16, literal(-16)))
        CFI (cfiCond124) V1 load(1, XDATA, add(CFA_XSP16, literal(-15)))
        CFI (cfiCond124) V2 load(1, XDATA, add(CFA_XSP16, literal(-14)))
        CFI (cfiCond124) V3 load(1, XDATA, add(CFA_XSP16, literal(-13)))
        CFI (cfiCond124) V4 load(1, XDATA, add(CFA_XSP16, literal(-12)))
        CFI (cfiCond124) V5 load(1, XDATA, add(CFA_XSP16, literal(-11)))
        CFI (cfiCond124) V6 load(1, XDATA, add(CFA_XSP16, literal(-10)))
        CFI (cfiCond124) V7 load(1, XDATA, add(CFA_XSP16, literal(-9)))
        CFI (cfiCond124) V8 load(1, XDATA, add(CFA_XSP16, literal(-8)))
        CFI (cfiCond124) V9 load(1, XDATA, add(CFA_XSP16, literal(-7)))
        CFI (cfiCond124) R7 load(1, XDATA, add(CFA_XSP16, literal(-6)))
        CFI (cfiCond124) ?RET_LOW load(1, XDATA, add(CFA_XSP16, literal(-5)))
        CFI (cfiCond124) ?RET_HIGH load(1, XDATA, add(CFA_XSP16, literal(-4)))
        CFI (cfiCond124) ?BRET_EXT load(1, XDATA, add(CFA_XSP16, literal(-3)))
        CFI (cfiCond124) DPL0 load(1, XDATA, add(CFA_XSP16, literal(-2)))
        CFI (cfiCond124) DPH0 load(1, XDATA, add(CFA_XSP16, literal(-1)))
        CFI (cfiCond124) CFA_SP SP+0
        CFI (cfiCond124) CFA_XSP16 add(XSP16, 18)
        CFI Block cfiPicker125 Using cfiCommon1
        CFI (cfiPicker125) NoFunction
        CFI (cfiPicker125) Picker
        MOV     A,?V0 + 2
        ADD     A,#0x1
        MOV     ?V0 + 2,A
        MOV     A,?V0 + 3
        ADDC    A,#0x0
        MOV     ?V0 + 3,A
        RET
        CFI EndBlock cfiCond123
        CFI EndBlock cfiCond124
        CFI EndBlock cfiPicker125

        RSEG BANKED_CODE:CODE:NOROOT(0)
?Subroutine10:
        CFI Block cfiCond126 Using cfiCommon0
        CFI NoFunction
        CFI Conditional ??CrossCallReturnLabel_8
        CFI R6 load(1, XDATA, add(CFA_XSP16, literal(-18)))
        CFI VB load(1, XDATA, add(CFA_XSP16, literal(-17)))
        CFI V0 load(1, XDATA, add(CFA_XSP16, literal(-16)))
        CFI V1 load(1, XDATA, add(CFA_XSP16, literal(-15)))
        CFI V2 load(1, XDATA, add(CFA_XSP16, literal(-14)))
        CFI V3 load(1, XDATA, add(CFA_XSP16, literal(-13)))
        CFI V4 load(1, XDATA, add(CFA_XSP16, literal(-12)))
        CFI V5 load(1, XDATA, add(CFA_XSP16, literal(-11)))
        CFI V6 load(1, XDATA, add(CFA_XSP16, literal(-10)))
        CFI V7 load(1, XDATA, add(CFA_XSP16, literal(-9)))
        CFI V8 load(1, XDATA, add(CFA_XSP16, literal(-8)))
        CFI V9 load(1, XDATA, add(CFA_XSP16, literal(-7)))
        CFI R7 load(1, XDATA, add(CFA_XSP16, literal(-6)))
        CFI ?RET_LOW load(1, XDATA, add(CFA_XSP16, literal(-5)))
        CFI ?RET_HIGH load(1, XDATA, add(CFA_XSP16, literal(-4)))
        CFI ?BRET_EXT load(1, XDATA, add(CFA_XSP16, literal(-3)))
        CFI DPL0 load(1, XDATA, add(CFA_XSP16, literal(-2)))
        CFI DPH0 load(1, XDATA, add(CFA_XSP16, literal(-1)))
        CFI CFA_SP SP+0
        CFI CFA_XSP16 add(XSP16, 18)
        CFI Block cfiCond127 Using cfiCommon0
        CFI (cfiCond127) NoFunction
        CFI (cfiCond127) Conditional ??CrossCallReturnLabel_9
        CFI (cfiCond127) R6 load(1, XDATA, add(CFA_XSP16, literal(-18)))
        CFI (cfiCond127) VB load(1, XDATA, add(CFA_XSP16, literal(-17)))
        CFI (cfiCond127) V0 load(1, XDATA, add(CFA_XSP16, literal(-16)))
        CFI (cfiCond127) V1 load(1, XDATA, add(CFA_XSP16, literal(-15)))
        CFI (cfiCond127) V2 load(1, XDATA, add(CFA_XSP16, literal(-14)))
        CFI (cfiCond127) V3 load(1, XDATA, add(CFA_XSP16, literal(-13)))
        CFI (cfiCond127) V4 load(1, XDATA, add(CFA_XSP16, literal(-12)))
        CFI (cfiCond127) V5 load(1, XDATA, add(CFA_XSP16, literal(-11)))
        CFI (cfiCond127) V6 load(1, XDATA, add(CFA_XSP16, literal(-10)))
        CFI (cfiCond127) V7 load(1, XDATA, add(CFA_XSP16, literal(-9)))
        CFI (cfiCond127) V8 load(1, XDATA, add(CFA_XSP16, literal(-8)))
        CFI (cfiCond127) V9 load(1, XDATA, add(CFA_XSP16, literal(-7)))
        CFI (cfiCond127) R7 load(1, XDATA, add(CFA_XSP16, literal(-6)))
        CFI (cfiCond127) ?RET_LOW load(1, XDATA, add(CFA_XSP16, literal(-5)))
        CFI (cfiCond127) ?RET_HIGH load(1, XDATA, add(CFA_XSP16, literal(-4)))
        CFI (cfiCond127) ?BRET_EXT load(1, XDATA, add(CFA_XSP16, literal(-3)))
        CFI (cfiCond127) DPL0 load(1, XDATA, add(CFA_XSP16, literal(-2)))
        CFI (cfiCond127) DPH0 load(1, XDATA, add(CFA_XSP16, literal(-1)))
        CFI (cfiCond127) CFA_SP SP+0
        CFI (cfiCond127) CFA_XSP16 add(XSP16, 18)
        CFI Block cfiPicker128 Using cfiCommon1
        CFI (cfiPicker128) NoFunction
        CFI (cfiPicker128) Picker
        MOV     DPTR,#funcCount
        MOVX    A,@DPTR
        MOV     R0,A
        CLR     C
        MOV     A,?V0 + 2
        SUBB    A,R0
        MOV     A,?V0 + 3
        SUBB    A,#0x0
        MOV     C,0xD0 /* PSW */.2
        XRL     A,PSW
        RLC     A
        RET
        CFI EndBlock cfiCond126
        CFI EndBlock cfiCond127
        CFI EndBlock cfiPicker128

        RSEG BANKED_CODE:CODE:NOROOT(0)
?Subroutine9:
        CFI Block cfiCond129 Using cfiCommon0
        CFI NoFunction
        CFI Conditional ??CrossCallReturnLabel_72
        CFI R6 load(1, XDATA, add(CFA_XSP16, literal(-10)))
        CFI VB load(1, XDATA, add(CFA_XSP16, literal(-9)))
        CFI V0 load(1, XDATA, add(CFA_XSP16, literal(-8)))
        CFI V1 load(1, XDATA, add(CFA_XSP16, literal(-7)))
        CFI R7 load(1, XDATA, add(CFA_XSP16, literal(-6)))
        CFI ?RET_LOW load(1, XDATA, add(CFA_XSP16, literal(-5)))
        CFI ?RET_HIGH load(1, XDATA, add(CFA_XSP16, literal(-4)))
        CFI ?BRET_EXT load(1, XDATA, add(CFA_XSP16, literal(-3)))
        CFI DPL0 load(1, XDATA, add(CFA_XSP16, literal(-2)))
        CFI DPH0 load(1, XDATA, add(CFA_XSP16, literal(-1)))
        CFI CFA_SP SP+0
        CFI CFA_XSP16 add(XSP16, 10)
        CFI Block cfiCond130 Using cfiCommon0
        CFI (cfiCond130) NoFunction
        CFI (cfiCond130) Conditional ??CrossCallReturnLabel_73
        CFI (cfiCond130) R6 load(1, XDATA, add(CFA_XSP16, literal(-10)))
        CFI (cfiCond130) VB load(1, XDATA, add(CFA_XSP16, literal(-9)))
        CFI (cfiCond130) V0 load(1, XDATA, add(CFA_XSP16, literal(-8)))
        CFI (cfiCond130) V1 load(1, XDATA, add(CFA_XSP16, literal(-7)))
        CFI (cfiCond130) R7 load(1, XDATA, add(CFA_XSP16, literal(-6)))
        CFI (cfiCond130) ?RET_LOW load(1, XDATA, add(CFA_XSP16, literal(-5)))
        CFI (cfiCond130) ?RET_HIGH load(1, XDATA, add(CFA_XSP16, literal(-4)))
        CFI (cfiCond130) ?BRET_EXT load(1, XDATA, add(CFA_XSP16, literal(-3)))
        CFI (cfiCond130) DPL0 load(1, XDATA, add(CFA_XSP16, literal(-2)))
        CFI (cfiCond130) DPH0 load(1, XDATA, add(CFA_XSP16, literal(-1)))
        CFI (cfiCond130) CFA_SP SP+-1
        CFI (cfiCond130) CFA_XSP16 add(XSP16, 10)
        CFI Block cfiCond131 Using cfiCommon0
        CFI (cfiCond131) NoFunction
        CFI (cfiCond131) Conditional ??CrossCallReturnLabel_74
        CFI (cfiCond131) R6 load(1, XDATA, add(CFA_XSP16, literal(-16)))
        CFI (cfiCond131) VB load(1, XDATA, add(CFA_XSP16, literal(-15)))
        CFI (cfiCond131) V0 load(1, XDATA, add(CFA_XSP16, literal(-14)))
        CFI (cfiCond131) V1 load(1, XDATA, add(CFA_XSP16, literal(-13)))
        CFI (cfiCond131) V2 load(1, XDATA, add(CFA_XSP16, literal(-12)))
        CFI (cfiCond131) V3 load(1, XDATA, add(CFA_XSP16, literal(-11)))
        CFI (cfiCond131) V4 load(1, XDATA, add(CFA_XSP16, literal(-10)))
        CFI (cfiCond131) V5 load(1, XDATA, add(CFA_XSP16, literal(-9)))
        CFI (cfiCond131) V6 load(1, XDATA, add(CFA_XSP16, literal(-8)))
        CFI (cfiCond131) V7 load(1, XDATA, add(CFA_XSP16, literal(-7)))
        CFI (cfiCond131) R7 load(1, XDATA, add(CFA_XSP16, literal(-6)))
        CFI (cfiCond131) ?RET_LOW load(1, XDATA, add(CFA_XSP16, literal(-5)))
        CFI (cfiCond131) ?RET_HIGH load(1, XDATA, add(CFA_XSP16, literal(-4)))
        CFI (cfiCond131) ?BRET_EXT load(1, XDATA, add(CFA_XSP16, literal(-3)))
        CFI (cfiCond131) DPL0 load(1, XDATA, add(CFA_XSP16, literal(-2)))
        CFI (cfiCond131) DPH0 load(1, XDATA, add(CFA_XSP16, literal(-1)))
        CFI (cfiCond131) CFA_SP SP+0
        CFI (cfiCond131) CFA_XSP16 add(XSP16, 19)
        CFI Block cfiPicker132 Using cfiCommon1
        CFI (cfiPicker132) NoFunction
        CFI (cfiPicker132) Picker
        MOV     DPTR,#funcTableBuffer
        CFI EndBlock cfiCond129
        CFI EndBlock cfiCond130
        CFI EndBlock cfiCond131
        CFI EndBlock cfiPicker132
        REQUIRE ??Subroutine43_0
        ; // Fall through to label ??Subroutine43_0

        RSEG BANKED_CODE:CODE:NOROOT(0)
??Subroutine43_0:
        CFI Block cfiCond133 Using cfiCommon0
        CFI NoFunction
        CFI Conditional ??CrossCallReturnLabel_67
        CFI R6 load(1, XDATA, add(CFA_XSP16, literal(-16)))
        CFI VB load(1, XDATA, add(CFA_XSP16, literal(-15)))
        CFI V0 load(1, XDATA, add(CFA_XSP16, literal(-14)))
        CFI V1 load(1, XDATA, add(CFA_XSP16, literal(-13)))
        CFI V2 load(1, XDATA, add(CFA_XSP16, literal(-12)))
        CFI V3 load(1, XDATA, add(CFA_XSP16, literal(-11)))
        CFI V4 load(1, XDATA, add(CFA_XSP16, literal(-10)))
        CFI V5 load(1, XDATA, add(CFA_XSP16, literal(-9)))
        CFI V6 load(1, XDATA, add(CFA_XSP16, literal(-8)))
        CFI V7 load(1, XDATA, add(CFA_XSP16, literal(-7)))
        CFI R7 load(1, XDATA, add(CFA_XSP16, literal(-6)))
        CFI ?RET_LOW load(1, XDATA, add(CFA_XSP16, literal(-5)))
        CFI ?RET_HIGH load(1, XDATA, add(CFA_XSP16, literal(-4)))
        CFI ?BRET_EXT load(1, XDATA, add(CFA_XSP16, literal(-3)))
        CFI DPL0 load(1, XDATA, add(CFA_XSP16, literal(-2)))
        CFI DPH0 load(1, XDATA, add(CFA_XSP16, literal(-1)))
        CFI CFA_SP SP+0
        CFI CFA_XSP16 add(XSP16, 19)
        CFI Block cfiCond134 Using cfiCommon0
        CFI (cfiCond134) NoFunction
        CFI (cfiCond134) Conditional ??CrossCallReturnLabel_68
        CFI (cfiCond134) R6 load(1, XDATA, add(CFA_XSP16, literal(-16)))
        CFI (cfiCond134) VB load(1, XDATA, add(CFA_XSP16, literal(-15)))
        CFI (cfiCond134) V0 load(1, XDATA, add(CFA_XSP16, literal(-14)))
        CFI (cfiCond134) V1 load(1, XDATA, add(CFA_XSP16, literal(-13)))
        CFI (cfiCond134) V2 load(1, XDATA, add(CFA_XSP16, literal(-12)))
        CFI (cfiCond134) V3 load(1, XDATA, add(CFA_XSP16, literal(-11)))
        CFI (cfiCond134) V4 load(1, XDATA, add(CFA_XSP16, literal(-10)))
        CFI (cfiCond134) V5 load(1, XDATA, add(CFA_XSP16, literal(-9)))
        CFI (cfiCond134) V6 load(1, XDATA, add(CFA_XSP16, literal(-8)))
        CFI (cfiCond134) V7 load(1, XDATA, add(CFA_XSP16, literal(-7)))
        CFI (cfiCond134) R7 load(1, XDATA, add(CFA_XSP16, literal(-6)))
        CFI (cfiCond134) ?RET_LOW load(1, XDATA, add(CFA_XSP16, literal(-5)))
        CFI (cfiCond134) ?RET_HIGH load(1, XDATA, add(CFA_XSP16, literal(-4)))
        CFI (cfiCond134) ?BRET_EXT load(1, XDATA, add(CFA_XSP16, literal(-3)))
        CFI (cfiCond134) DPL0 load(1, XDATA, add(CFA_XSP16, literal(-2)))
        CFI (cfiCond134) DPH0 load(1, XDATA, add(CFA_XSP16, literal(-1)))
        CFI (cfiCond134) CFA_SP SP+0
        CFI (cfiCond134) CFA_XSP16 add(XSP16, 19)
        CFI Block cfiCond135 Using cfiCommon0
        CFI (cfiCond135) NoFunction
        CFI (cfiCond135) Conditional ??CrossCallReturnLabel_69
        CFI (cfiCond135) R6 load(1, XDATA, add(CFA_XSP16, literal(-18)))
        CFI (cfiCond135) VB load(1, XDATA, add(CFA_XSP16, literal(-17)))
        CFI (cfiCond135) V0 load(1, XDATA, add(CFA_XSP16, literal(-16)))
        CFI (cfiCond135) V1 load(1, XDATA, add(CFA_XSP16, literal(-15)))
        CFI (cfiCond135) V2 load(1, XDATA, add(CFA_XSP16, literal(-14)))
        CFI (cfiCond135) V3 load(1, XDATA, add(CFA_XSP16, literal(-13)))
        CFI (cfiCond135) V4 load(1, XDATA, add(CFA_XSP16, literal(-12)))
        CFI (cfiCond135) V5 load(1, XDATA, add(CFA_XSP16, literal(-11)))
        CFI (cfiCond135) V6 load(1, XDATA, add(CFA_XSP16, literal(-10)))
        CFI (cfiCond135) V7 load(1, XDATA, add(CFA_XSP16, literal(-9)))
        CFI (cfiCond135) V8 load(1, XDATA, add(CFA_XSP16, literal(-8)))
        CFI (cfiCond135) V9 load(1, XDATA, add(CFA_XSP16, literal(-7)))
        CFI (cfiCond135) R7 load(1, XDATA, add(CFA_XSP16, literal(-6)))
        CFI (cfiCond135) ?RET_LOW load(1, XDATA, add(CFA_XSP16, literal(-5)))
        CFI (cfiCond135) ?RET_HIGH load(1, XDATA, add(CFA_XSP16, literal(-4)))
        CFI (cfiCond135) ?BRET_EXT load(1, XDATA, add(CFA_XSP16, literal(-3)))
        CFI (cfiCond135) DPL0 load(1, XDATA, add(CFA_XSP16, literal(-2)))
        CFI (cfiCond135) DPH0 load(1, XDATA, add(CFA_XSP16, literal(-1)))
        CFI (cfiCond135) CFA_SP SP+0
        CFI (cfiCond135) CFA_XSP16 add(XSP16, 18)
        CFI Block cfiCond136 Using cfiCommon0
        CFI (cfiCond136) NoFunction
        CFI (cfiCond136) Conditional ??CrossCallReturnLabel_70
        CFI (cfiCond136) R6 load(1, XDATA, add(CFA_XSP16, literal(-11)))
        CFI (cfiCond136) VB load(1, XDATA, add(CFA_XSP16, literal(-10)))
        CFI (cfiCond136) V0 load(1, XDATA, add(CFA_XSP16, literal(-9)))
        CFI (cfiCond136) V1 load(1, XDATA, add(CFA_XSP16, literal(-8)))
        CFI (cfiCond136) V2 load(1, XDATA, add(CFA_XSP16, literal(-7)))
        CFI (cfiCond136) R7 load(1, XDATA, add(CFA_XSP16, literal(-6)))
        CFI (cfiCond136) ?RET_LOW load(1, XDATA, add(CFA_XSP16, literal(-5)))
        CFI (cfiCond136) ?RET_HIGH load(1, XDATA, add(CFA_XSP16, literal(-4)))
        CFI (cfiCond136) ?BRET_EXT load(1, XDATA, add(CFA_XSP16, literal(-3)))
        CFI (cfiCond136) DPL0 load(1, XDATA, add(CFA_XSP16, literal(-2)))
        CFI (cfiCond136) DPH0 load(1, XDATA, add(CFA_XSP16, literal(-1)))
        CFI (cfiCond136) CFA_SP SP+0
        CFI (cfiCond136) CFA_XSP16 add(XSP16, 16)
        CFI Block cfiCond137 Using cfiCommon0
        CFI (cfiCond137) NoFunction
        CFI (cfiCond137) Conditional ??CrossCallReturnLabel_71
        CFI (cfiCond137) R6 load(1, XDATA, add(CFA_XSP16, literal(-11)))
        CFI (cfiCond137) VB load(1, XDATA, add(CFA_XSP16, literal(-10)))
        CFI (cfiCond137) V0 load(1, XDATA, add(CFA_XSP16, literal(-9)))
        CFI (cfiCond137) V1 load(1, XDATA, add(CFA_XSP16, literal(-8)))
        CFI (cfiCond137) V2 load(1, XDATA, add(CFA_XSP16, literal(-7)))
        CFI (cfiCond137) R7 load(1, XDATA, add(CFA_XSP16, literal(-6)))
        CFI (cfiCond137) ?RET_LOW load(1, XDATA, add(CFA_XSP16, literal(-5)))
        CFI (cfiCond137) ?RET_HIGH load(1, XDATA, add(CFA_XSP16, literal(-4)))
        CFI (cfiCond137) ?BRET_EXT load(1, XDATA, add(CFA_XSP16, literal(-3)))
        CFI (cfiCond137) DPL0 load(1, XDATA, add(CFA_XSP16, literal(-2)))
        CFI (cfiCond137) DPH0 load(1, XDATA, add(CFA_XSP16, literal(-1)))
        CFI (cfiCond137) CFA_SP SP+0
        CFI (cfiCond137) CFA_XSP16 add(XSP16, 14)
        CFI Block cfiCond138 Using cfiCommon0
        CFI (cfiCond138) NoFunction
        CFI (cfiCond138) Conditional ??CrossCallReturnLabel_72
        CFI (cfiCond138) R6 load(1, XDATA, add(CFA_XSP16, literal(-10)))
        CFI (cfiCond138) VB load(1, XDATA, add(CFA_XSP16, literal(-9)))
        CFI (cfiCond138) V0 load(1, XDATA, add(CFA_XSP16, literal(-8)))
        CFI (cfiCond138) V1 load(1, XDATA, add(CFA_XSP16, literal(-7)))
        CFI (cfiCond138) R7 load(1, XDATA, add(CFA_XSP16, literal(-6)))
        CFI (cfiCond138) ?RET_LOW load(1, XDATA, add(CFA_XSP16, literal(-5)))
        CFI (cfiCond138) ?RET_HIGH load(1, XDATA, add(CFA_XSP16, literal(-4)))
        CFI (cfiCond138) ?BRET_EXT load(1, XDATA, add(CFA_XSP16, literal(-3)))
        CFI (cfiCond138) DPL0 load(1, XDATA, add(CFA_XSP16, literal(-2)))
        CFI (cfiCond138) DPH0 load(1, XDATA, add(CFA_XSP16, literal(-1)))
        CFI (cfiCond138) CFA_SP SP+0
        CFI (cfiCond138) CFA_XSP16 add(XSP16, 10)
        CFI Block cfiCond139 Using cfiCommon0
        CFI (cfiCond139) NoFunction
        CFI (cfiCond139) Conditional ??CrossCallReturnLabel_73
        CFI (cfiCond139) R6 load(1, XDATA, add(CFA_XSP16, literal(-10)))
        CFI (cfiCond139) VB load(1, XDATA, add(CFA_XSP16, literal(-9)))
        CFI (cfiCond139) V0 load(1, XDATA, add(CFA_XSP16, literal(-8)))
        CFI (cfiCond139) V1 load(1, XDATA, add(CFA_XSP16, literal(-7)))
        CFI (cfiCond139) R7 load(1, XDATA, add(CFA_XSP16, literal(-6)))
        CFI (cfiCond139) ?RET_LOW load(1, XDATA, add(CFA_XSP16, literal(-5)))
        CFI (cfiCond139) ?RET_HIGH load(1, XDATA, add(CFA_XSP16, literal(-4)))
        CFI (cfiCond139) ?BRET_EXT load(1, XDATA, add(CFA_XSP16, literal(-3)))
        CFI (cfiCond139) DPL0 load(1, XDATA, add(CFA_XSP16, literal(-2)))
        CFI (cfiCond139) DPH0 load(1, XDATA, add(CFA_XSP16, literal(-1)))
        CFI (cfiCond139) CFA_SP SP+-1
        CFI (cfiCond139) CFA_XSP16 add(XSP16, 10)
        CFI Block cfiCond140 Using cfiCommon0
        CFI (cfiCond140) NoFunction
        CFI (cfiCond140) Conditional ??CrossCallReturnLabel_74
        CFI (cfiCond140) R6 load(1, XDATA, add(CFA_XSP16, literal(-16)))
        CFI (cfiCond140) VB load(1, XDATA, add(CFA_XSP16, literal(-15)))
        CFI (cfiCond140) V0 load(1, XDATA, add(CFA_XSP16, literal(-14)))
        CFI (cfiCond140) V1 load(1, XDATA, add(CFA_XSP16, literal(-13)))
        CFI (cfiCond140) V2 load(1, XDATA, add(CFA_XSP16, literal(-12)))
        CFI (cfiCond140) V3 load(1, XDATA, add(CFA_XSP16, literal(-11)))
        CFI (cfiCond140) V4 load(1, XDATA, add(CFA_XSP16, literal(-10)))
        CFI (cfiCond140) V5 load(1, XDATA, add(CFA_XSP16, literal(-9)))
        CFI (cfiCond140) V6 load(1, XDATA, add(CFA_XSP16, literal(-8)))
        CFI (cfiCond140) V7 load(1, XDATA, add(CFA_XSP16, literal(-7)))
        CFI (cfiCond140) R7 load(1, XDATA, add(CFA_XSP16, literal(-6)))
        CFI (cfiCond140) ?RET_LOW load(1, XDATA, add(CFA_XSP16, literal(-5)))
        CFI (cfiCond140) ?RET_HIGH load(1, XDATA, add(CFA_XSP16, literal(-4)))
        CFI (cfiCond140) ?BRET_EXT load(1, XDATA, add(CFA_XSP16, literal(-3)))
        CFI (cfiCond140) DPL0 load(1, XDATA, add(CFA_XSP16, literal(-2)))
        CFI (cfiCond140) DPH0 load(1, XDATA, add(CFA_XSP16, literal(-1)))
        CFI (cfiCond140) CFA_SP SP+0
        CFI (cfiCond140) CFA_XSP16 add(XSP16, 19)
        CFI Block cfiPicker141 Using cfiCommon1
        CFI (cfiPicker141) NoFunction
        CFI (cfiPicker141) Picker
        MOVX    A,@DPTR
        MOV     R0,A
        CFI EndBlock cfiCond133
        CFI EndBlock cfiCond134
        CFI EndBlock cfiCond135
        CFI EndBlock cfiCond136
        CFI EndBlock cfiCond137
        CFI EndBlock cfiCond138
        CFI EndBlock cfiCond139
        CFI EndBlock cfiCond140
        CFI EndBlock cfiPicker141
        REQUIRE ??Subroutine44_0
        ; // Fall through to label ??Subroutine44_0

        RSEG BANKED_CODE:CODE:NOROOT(0)
??Subroutine44_0:
        CFI Block cfiCond142 Using cfiCommon0
        CFI NoFunction
        CFI Conditional ??CrossCallReturnLabel_64
        CFI R6 load(1, XDATA, add(CFA_XSP16, literal(-10)))
        CFI VB load(1, XDATA, add(CFA_XSP16, literal(-9)))
        CFI V0 load(1, XDATA, add(CFA_XSP16, literal(-8)))
        CFI V1 load(1, XDATA, add(CFA_XSP16, literal(-7)))
        CFI R7 load(1, XDATA, add(CFA_XSP16, literal(-6)))
        CFI ?RET_LOW load(1, XDATA, add(CFA_XSP16, literal(-5)))
        CFI ?RET_HIGH load(1, XDATA, add(CFA_XSP16, literal(-4)))
        CFI ?BRET_EXT load(1, XDATA, add(CFA_XSP16, literal(-3)))
        CFI DPL0 load(1, XDATA, add(CFA_XSP16, literal(-2)))
        CFI DPH0 load(1, XDATA, add(CFA_XSP16, literal(-1)))
        CFI CFA_SP SP+0
        CFI CFA_XSP16 add(XSP16, 10)
        CFI Block cfiCond143 Using cfiCommon0
        CFI (cfiCond143) NoFunction
        CFI (cfiCond143) Conditional ??CrossCallReturnLabel_65
        CFI (cfiCond143) R6 load(1, XDATA, add(CFA_XSP16, literal(-16)))
        CFI (cfiCond143) VB load(1, XDATA, add(CFA_XSP16, literal(-15)))
        CFI (cfiCond143) V0 load(1, XDATA, add(CFA_XSP16, literal(-14)))
        CFI (cfiCond143) V1 load(1, XDATA, add(CFA_XSP16, literal(-13)))
        CFI (cfiCond143) V2 load(1, XDATA, add(CFA_XSP16, literal(-12)))
        CFI (cfiCond143) V3 load(1, XDATA, add(CFA_XSP16, literal(-11)))
        CFI (cfiCond143) V4 load(1, XDATA, add(CFA_XSP16, literal(-10)))
        CFI (cfiCond143) V5 load(1, XDATA, add(CFA_XSP16, literal(-9)))
        CFI (cfiCond143) V6 load(1, XDATA, add(CFA_XSP16, literal(-8)))
        CFI (cfiCond143) V7 load(1, XDATA, add(CFA_XSP16, literal(-7)))
        CFI (cfiCond143) R7 load(1, XDATA, add(CFA_XSP16, literal(-6)))
        CFI (cfiCond143) ?RET_LOW load(1, XDATA, add(CFA_XSP16, literal(-5)))
        CFI (cfiCond143) ?RET_HIGH load(1, XDATA, add(CFA_XSP16, literal(-4)))
        CFI (cfiCond143) ?BRET_EXT load(1, XDATA, add(CFA_XSP16, literal(-3)))
        CFI (cfiCond143) DPL0 load(1, XDATA, add(CFA_XSP16, literal(-2)))
        CFI (cfiCond143) DPH0 load(1, XDATA, add(CFA_XSP16, literal(-1)))
        CFI (cfiCond143) CFA_SP SP+0
        CFI (cfiCond143) CFA_XSP16 add(XSP16, 19)
        CFI Block cfiCond144 Using cfiCommon0
        CFI (cfiCond144) NoFunction
        CFI (cfiCond144) Conditional ??CrossCallReturnLabel_66
        CFI (cfiCond144) R6 load(1, XDATA, add(CFA_XSP16, literal(-18)))
        CFI (cfiCond144) VB load(1, XDATA, add(CFA_XSP16, literal(-17)))
        CFI (cfiCond144) V0 load(1, XDATA, add(CFA_XSP16, literal(-16)))
        CFI (cfiCond144) V1 load(1, XDATA, add(CFA_XSP16, literal(-15)))
        CFI (cfiCond144) V2 load(1, XDATA, add(CFA_XSP16, literal(-14)))
        CFI (cfiCond144) V3 load(1, XDATA, add(CFA_XSP16, literal(-13)))
        CFI (cfiCond144) V4 load(1, XDATA, add(CFA_XSP16, literal(-12)))
        CFI (cfiCond144) V5 load(1, XDATA, add(CFA_XSP16, literal(-11)))
        CFI (cfiCond144) V6 load(1, XDATA, add(CFA_XSP16, literal(-10)))
        CFI (cfiCond144) V7 load(1, XDATA, add(CFA_XSP16, literal(-9)))
        CFI (cfiCond144) V8 load(1, XDATA, add(CFA_XSP16, literal(-8)))
        CFI (cfiCond144) V9 load(1, XDATA, add(CFA_XSP16, literal(-7)))
        CFI (cfiCond144) R7 load(1, XDATA, add(CFA_XSP16, literal(-6)))
        CFI (cfiCond144) ?RET_LOW load(1, XDATA, add(CFA_XSP16, literal(-5)))
        CFI (cfiCond144) ?RET_HIGH load(1, XDATA, add(CFA_XSP16, literal(-4)))
        CFI (cfiCond144) ?BRET_EXT load(1, XDATA, add(CFA_XSP16, literal(-3)))
        CFI (cfiCond144) DPL0 load(1, XDATA, add(CFA_XSP16, literal(-2)))
        CFI (cfiCond144) DPH0 load(1, XDATA, add(CFA_XSP16, literal(-1)))
        CFI (cfiCond144) CFA_SP SP+0
        CFI (cfiCond144) CFA_XSP16 add(XSP16, 18)
        CFI Block cfiCond145 Using cfiCommon0
        CFI (cfiCond145) NoFunction
        CFI (cfiCond145) Conditional ??CrossCallReturnLabel_67
        CFI (cfiCond145) R6 load(1, XDATA, add(CFA_XSP16, literal(-16)))
        CFI (cfiCond145) VB load(1, XDATA, add(CFA_XSP16, literal(-15)))
        CFI (cfiCond145) V0 load(1, XDATA, add(CFA_XSP16, literal(-14)))
        CFI (cfiCond145) V1 load(1, XDATA, add(CFA_XSP16, literal(-13)))
        CFI (cfiCond145) V2 load(1, XDATA, add(CFA_XSP16, literal(-12)))
        CFI (cfiCond145) V3 load(1, XDATA, add(CFA_XSP16, literal(-11)))
        CFI (cfiCond145) V4 load(1, XDATA, add(CFA_XSP16, literal(-10)))
        CFI (cfiCond145) V5 load(1, XDATA, add(CFA_XSP16, literal(-9)))
        CFI (cfiCond145) V6 load(1, XDATA, add(CFA_XSP16, literal(-8)))
        CFI (cfiCond145) V7 load(1, XDATA, add(CFA_XSP16, literal(-7)))
        CFI (cfiCond145) R7 load(1, XDATA, add(CFA_XSP16, literal(-6)))
        CFI (cfiCond145) ?RET_LOW load(1, XDATA, add(CFA_XSP16, literal(-5)))
        CFI (cfiCond145) ?RET_HIGH load(1, XDATA, add(CFA_XSP16, literal(-4)))
        CFI (cfiCond145) ?BRET_EXT load(1, XDATA, add(CFA_XSP16, literal(-3)))
        CFI (cfiCond145) DPL0 load(1, XDATA, add(CFA_XSP16, literal(-2)))
        CFI (cfiCond145) DPH0 load(1, XDATA, add(CFA_XSP16, literal(-1)))
        CFI (cfiCond145) CFA_SP SP+0
        CFI (cfiCond145) CFA_XSP16 add(XSP16, 19)
        CFI Block cfiCond146 Using cfiCommon0
        CFI (cfiCond146) NoFunction
        CFI (cfiCond146) Conditional ??CrossCallReturnLabel_68
        CFI (cfiCond146) R6 load(1, XDATA, add(CFA_XSP16, literal(-16)))
        CFI (cfiCond146) VB load(1, XDATA, add(CFA_XSP16, literal(-15)))
        CFI (cfiCond146) V0 load(1, XDATA, add(CFA_XSP16, literal(-14)))
        CFI (cfiCond146) V1 load(1, XDATA, add(CFA_XSP16, literal(-13)))
        CFI (cfiCond146) V2 load(1, XDATA, add(CFA_XSP16, literal(-12)))
        CFI (cfiCond146) V3 load(1, XDATA, add(CFA_XSP16, literal(-11)))
        CFI (cfiCond146) V4 load(1, XDATA, add(CFA_XSP16, literal(-10)))
        CFI (cfiCond146) V5 load(1, XDATA, add(CFA_XSP16, literal(-9)))
        CFI (cfiCond146) V6 load(1, XDATA, add(CFA_XSP16, literal(-8)))
        CFI (cfiCond146) V7 load(1, XDATA, add(CFA_XSP16, literal(-7)))
        CFI (cfiCond146) R7 load(1, XDATA, add(CFA_XSP16, literal(-6)))
        CFI (cfiCond146) ?RET_LOW load(1, XDATA, add(CFA_XSP16, literal(-5)))
        CFI (cfiCond146) ?RET_HIGH load(1, XDATA, add(CFA_XSP16, literal(-4)))
        CFI (cfiCond146) ?BRET_EXT load(1, XDATA, add(CFA_XSP16, literal(-3)))
        CFI (cfiCond146) DPL0 load(1, XDATA, add(CFA_XSP16, literal(-2)))
        CFI (cfiCond146) DPH0 load(1, XDATA, add(CFA_XSP16, literal(-1)))
        CFI (cfiCond146) CFA_SP SP+0
        CFI (cfiCond146) CFA_XSP16 add(XSP16, 19)
        CFI Block cfiCond147 Using cfiCommon0
        CFI (cfiCond147) NoFunction
        CFI (cfiCond147) Conditional ??CrossCallReturnLabel_69
        CFI (cfiCond147) R6 load(1, XDATA, add(CFA_XSP16, literal(-18)))
        CFI (cfiCond147) VB load(1, XDATA, add(CFA_XSP16, literal(-17)))
        CFI (cfiCond147) V0 load(1, XDATA, add(CFA_XSP16, literal(-16)))
        CFI (cfiCond147) V1 load(1, XDATA, add(CFA_XSP16, literal(-15)))
        CFI (cfiCond147) V2 load(1, XDATA, add(CFA_XSP16, literal(-14)))
        CFI (cfiCond147) V3 load(1, XDATA, add(CFA_XSP16, literal(-13)))
        CFI (cfiCond147) V4 load(1, XDATA, add(CFA_XSP16, literal(-12)))
        CFI (cfiCond147) V5 load(1, XDATA, add(CFA_XSP16, literal(-11)))
        CFI (cfiCond147) V6 load(1, XDATA, add(CFA_XSP16, literal(-10)))
        CFI (cfiCond147) V7 load(1, XDATA, add(CFA_XSP16, literal(-9)))
        CFI (cfiCond147) V8 load(1, XDATA, add(CFA_XSP16, literal(-8)))
        CFI (cfiCond147) V9 load(1, XDATA, add(CFA_XSP16, literal(-7)))
        CFI (cfiCond147) R7 load(1, XDATA, add(CFA_XSP16, literal(-6)))
        CFI (cfiCond147) ?RET_LOW load(1, XDATA, add(CFA_XSP16, literal(-5)))
        CFI (cfiCond147) ?RET_HIGH load(1, XDATA, add(CFA_XSP16, literal(-4)))
        CFI (cfiCond147) ?BRET_EXT load(1, XDATA, add(CFA_XSP16, literal(-3)))
        CFI (cfiCond147) DPL0 load(1, XDATA, add(CFA_XSP16, literal(-2)))
        CFI (cfiCond147) DPH0 load(1, XDATA, add(CFA_XSP16, literal(-1)))
        CFI (cfiCond147) CFA_SP SP+0
        CFI (cfiCond147) CFA_XSP16 add(XSP16, 18)
        CFI Block cfiCond148 Using cfiCommon0
        CFI (cfiCond148) NoFunction
        CFI (cfiCond148) Conditional ??CrossCallReturnLabel_70
        CFI (cfiCond148) R6 load(1, XDATA, add(CFA_XSP16, literal(-11)))
        CFI (cfiCond148) VB load(1, XDATA, add(CFA_XSP16, literal(-10)))
        CFI (cfiCond148) V0 load(1, XDATA, add(CFA_XSP16, literal(-9)))
        CFI (cfiCond148) V1 load(1, XDATA, add(CFA_XSP16, literal(-8)))
        CFI (cfiCond148) V2 load(1, XDATA, add(CFA_XSP16, literal(-7)))
        CFI (cfiCond148) R7 load(1, XDATA, add(CFA_XSP16, literal(-6)))
        CFI (cfiCond148) ?RET_LOW load(1, XDATA, add(CFA_XSP16, literal(-5)))
        CFI (cfiCond148) ?RET_HIGH load(1, XDATA, add(CFA_XSP16, literal(-4)))
        CFI (cfiCond148) ?BRET_EXT load(1, XDATA, add(CFA_XSP16, literal(-3)))
        CFI (cfiCond148) DPL0 load(1, XDATA, add(CFA_XSP16, literal(-2)))
        CFI (cfiCond148) DPH0 load(1, XDATA, add(CFA_XSP16, literal(-1)))
        CFI (cfiCond148) CFA_SP SP+0
        CFI (cfiCond148) CFA_XSP16 add(XSP16, 16)
        CFI Block cfiCond149 Using cfiCommon0
        CFI (cfiCond149) NoFunction
        CFI (cfiCond149) Conditional ??CrossCallReturnLabel_71
        CFI (cfiCond149) R6 load(1, XDATA, add(CFA_XSP16, literal(-11)))
        CFI (cfiCond149) VB load(1, XDATA, add(CFA_XSP16, literal(-10)))
        CFI (cfiCond149) V0 load(1, XDATA, add(CFA_XSP16, literal(-9)))
        CFI (cfiCond149) V1 load(1, XDATA, add(CFA_XSP16, literal(-8)))
        CFI (cfiCond149) V2 load(1, XDATA, add(CFA_XSP16, literal(-7)))
        CFI (cfiCond149) R7 load(1, XDATA, add(CFA_XSP16, literal(-6)))
        CFI (cfiCond149) ?RET_LOW load(1, XDATA, add(CFA_XSP16, literal(-5)))
        CFI (cfiCond149) ?RET_HIGH load(1, XDATA, add(CFA_XSP16, literal(-4)))
        CFI (cfiCond149) ?BRET_EXT load(1, XDATA, add(CFA_XSP16, literal(-3)))
        CFI (cfiCond149) DPL0 load(1, XDATA, add(CFA_XSP16, literal(-2)))
        CFI (cfiCond149) DPH0 load(1, XDATA, add(CFA_XSP16, literal(-1)))
        CFI (cfiCond149) CFA_SP SP+0
        CFI (cfiCond149) CFA_XSP16 add(XSP16, 14)
        CFI Block cfiCond150 Using cfiCommon0
        CFI (cfiCond150) NoFunction
        CFI (cfiCond150) Conditional ??CrossCallReturnLabel_72
        CFI (cfiCond150) R6 load(1, XDATA, add(CFA_XSP16, literal(-10)))
        CFI (cfiCond150) VB load(1, XDATA, add(CFA_XSP16, literal(-9)))
        CFI (cfiCond150) V0 load(1, XDATA, add(CFA_XSP16, literal(-8)))
        CFI (cfiCond150) V1 load(1, XDATA, add(CFA_XSP16, literal(-7)))
        CFI (cfiCond150) R7 load(1, XDATA, add(CFA_XSP16, literal(-6)))
        CFI (cfiCond150) ?RET_LOW load(1, XDATA, add(CFA_XSP16, literal(-5)))
        CFI (cfiCond150) ?RET_HIGH load(1, XDATA, add(CFA_XSP16, literal(-4)))
        CFI (cfiCond150) ?BRET_EXT load(1, XDATA, add(CFA_XSP16, literal(-3)))
        CFI (cfiCond150) DPL0 load(1, XDATA, add(CFA_XSP16, literal(-2)))
        CFI (cfiCond150) DPH0 load(1, XDATA, add(CFA_XSP16, literal(-1)))
        CFI (cfiCond150) CFA_SP SP+0
        CFI (cfiCond150) CFA_XSP16 add(XSP16, 10)
        CFI Block cfiCond151 Using cfiCommon0
        CFI (cfiCond151) NoFunction
        CFI (cfiCond151) Conditional ??CrossCallReturnLabel_73
        CFI (cfiCond151) R6 load(1, XDATA, add(CFA_XSP16, literal(-10)))
        CFI (cfiCond151) VB load(1, XDATA, add(CFA_XSP16, literal(-9)))
        CFI (cfiCond151) V0 load(1, XDATA, add(CFA_XSP16, literal(-8)))
        CFI (cfiCond151) V1 load(1, XDATA, add(CFA_XSP16, literal(-7)))
        CFI (cfiCond151) R7 load(1, XDATA, add(CFA_XSP16, literal(-6)))
        CFI (cfiCond151) ?RET_LOW load(1, XDATA, add(CFA_XSP16, literal(-5)))
        CFI (cfiCond151) ?RET_HIGH load(1, XDATA, add(CFA_XSP16, literal(-4)))
        CFI (cfiCond151) ?BRET_EXT load(1, XDATA, add(CFA_XSP16, literal(-3)))
        CFI (cfiCond151) DPL0 load(1, XDATA, add(CFA_XSP16, literal(-2)))
        CFI (cfiCond151) DPH0 load(1, XDATA, add(CFA_XSP16, literal(-1)))
        CFI (cfiCond151) CFA_SP SP+-1
        CFI (cfiCond151) CFA_XSP16 add(XSP16, 10)
        CFI Block cfiCond152 Using cfiCommon0
        CFI (cfiCond152) NoFunction
        CFI (cfiCond152) Conditional ??CrossCallReturnLabel_74
        CFI (cfiCond152) R6 load(1, XDATA, add(CFA_XSP16, literal(-16)))
        CFI (cfiCond152) VB load(1, XDATA, add(CFA_XSP16, literal(-15)))
        CFI (cfiCond152) V0 load(1, XDATA, add(CFA_XSP16, literal(-14)))
        CFI (cfiCond152) V1 load(1, XDATA, add(CFA_XSP16, literal(-13)))
        CFI (cfiCond152) V2 load(1, XDATA, add(CFA_XSP16, literal(-12)))
        CFI (cfiCond152) V3 load(1, XDATA, add(CFA_XSP16, literal(-11)))
        CFI (cfiCond152) V4 load(1, XDATA, add(CFA_XSP16, literal(-10)))
        CFI (cfiCond152) V5 load(1, XDATA, add(CFA_XSP16, literal(-9)))
        CFI (cfiCond152) V6 load(1, XDATA, add(CFA_XSP16, literal(-8)))
        CFI (cfiCond152) V7 load(1, XDATA, add(CFA_XSP16, literal(-7)))
        CFI (cfiCond152) R7 load(1, XDATA, add(CFA_XSP16, literal(-6)))
        CFI (cfiCond152) ?RET_LOW load(1, XDATA, add(CFA_XSP16, literal(-5)))
        CFI (cfiCond152) ?RET_HIGH load(1, XDATA, add(CFA_XSP16, literal(-4)))
        CFI (cfiCond152) ?BRET_EXT load(1, XDATA, add(CFA_XSP16, literal(-3)))
        CFI (cfiCond152) DPL0 load(1, XDATA, add(CFA_XSP16, literal(-2)))
        CFI (cfiCond152) DPH0 load(1, XDATA, add(CFA_XSP16, literal(-1)))
        CFI (cfiCond152) CFA_SP SP+0
        CFI (cfiCond152) CFA_XSP16 add(XSP16, 19)
        CFI Block cfiPicker153 Using cfiCommon1
        CFI (cfiPicker153) NoFunction
        CFI (cfiPicker153) Picker
        INC     DPTR
        MOVX    A,@DPTR
        MOV     DPH,A
        MOV     DPL,R0
        RET
        CFI EndBlock cfiCond142
        CFI EndBlock cfiCond143
        CFI EndBlock cfiCond144
        CFI EndBlock cfiCond145
        CFI EndBlock cfiCond146
        CFI EndBlock cfiCond147
        CFI EndBlock cfiCond148
        CFI EndBlock cfiCond149
        CFI EndBlock cfiCond150
        CFI EndBlock cfiCond151
        CFI EndBlock cfiCond152
        CFI EndBlock cfiPicker153
//  454 
//  455 //#if defined(ZDO_COORDINATOR)
//  456 #if defined(ZDO_COORDINATOR) || defined(PEER_ROUTER) || defined(PEER_COORD)
//  457 #if defined(ZDO_COORDINATOR)

        RSEG XDATA_Z:XDATA:NOROOT(0)
        DATA8
//  458     uint8 SendBuf[10];
SendBuf:
        DS 10
        REQUIRE __INIT_XDATA_Z
//  459 #endif

        RSEG BANKED_CODE:CODE:NOROOT(0)
//  460 static uint8 uartMsgProcesser(uint8 *msg)
uartMsgProcesser:
        CFI Block cfiBlock154 Using cfiCommon0
        CFI Function uartMsgProcesser
        CODE
//  461 {
        FUNCALL uartMsgProcesser, SendData
        LOCFRAME ISTACK, 0, STACK
        LOCFRAME PSTACK, 0, STACK
        LOCFRAME XSTACK, 11, STACK
        LOCFRAME IOVERLAY, 0, STATIC
        LOCFRAME DOVERLAY, 0, STATIC
        ARGFRAME ISTACK, 0, STACK
        ARGFRAME PSTACK, 0, STACK
        ARGFRAME XSTACK, 11, STACK
        ARGFRAME IOVERLAY, 0, STATIC
        ARGFRAME DOVERLAY, 0, STATIC
        FUNCALL uartMsgProcesser, HalLedSet
        LOCFRAME ISTACK, 0, STACK
        LOCFRAME PSTACK, 0, STACK
        LOCFRAME XSTACK, 9, STACK
        LOCFRAME IOVERLAY, 0, STATIC
        LOCFRAME DOVERLAY, 0, STATIC
        ARGFRAME ISTACK, 0, STACK
        ARGFRAME PSTACK, 0, STACK
        ARGFRAME XSTACK, 9, STACK
        ARGFRAME IOVERLAY, 0, STATIC
        ARGFRAME DOVERLAY, 0, STATIC
        FUNCALL uartMsgProcesser, HalLedSet
        LOCFRAME ISTACK, 0, STACK
        LOCFRAME PSTACK, 0, STACK
        LOCFRAME XSTACK, 9, STACK
        LOCFRAME IOVERLAY, 0, STATIC
        LOCFRAME DOVERLAY, 0, STATIC
        ARGFRAME ISTACK, 0, STACK
        ARGFRAME PSTACK, 0, STACK
        ARGFRAME XSTACK, 9, STACK
        ARGFRAME IOVERLAY, 0, STATIC
        ARGFRAME DOVERLAY, 0, STATIC
        FUNCALL uartMsgProcesser, Delay100us
        LOCFRAME ISTACK, 0, STACK
        LOCFRAME PSTACK, 0, STACK
        LOCFRAME XSTACK, 9, STACK
        LOCFRAME IOVERLAY, 0, STATIC
        LOCFRAME DOVERLAY, 0, STATIC
        ARGFRAME ISTACK, 0, STACK
        ARGFRAME PSTACK, 0, STACK
        ARGFRAME XSTACK, 9, STACK
        ARGFRAME IOVERLAY, 0, STATIC
        ARGFRAME DOVERLAY, 0, STATIC
        FUNCALL uartMsgProcesser, HalLedSet
        LOCFRAME ISTACK, 0, STACK
        LOCFRAME PSTACK, 0, STACK
        LOCFRAME XSTACK, 9, STACK
        LOCFRAME IOVERLAY, 0, STATIC
        LOCFRAME DOVERLAY, 0, STATIC
        ARGFRAME ISTACK, 0, STACK
        ARGFRAME PSTACK, 0, STACK
        ARGFRAME XSTACK, 9, STACK
        ARGFRAME IOVERLAY, 0, STATIC
        ARGFRAME DOVERLAY, 0, STATIC
        FUNCALL uartMsgProcesser, HalLedSet
        LOCFRAME ISTACK, 0, STACK
        LOCFRAME PSTACK, 0, STACK
        LOCFRAME XSTACK, 9, STACK
        LOCFRAME IOVERLAY, 0, STATIC
        LOCFRAME DOVERLAY, 0, STATIC
        ARGFRAME ISTACK, 0, STACK
        ARGFRAME PSTACK, 0, STACK
        ARGFRAME XSTACK, 9, STACK
        ARGFRAME IOVERLAY, 0, STATIC
        ARGFRAME DOVERLAY, 0, STATIC
        FUNCALL uartMsgProcesser, Delay100us
        LOCFRAME ISTACK, 0, STACK
        LOCFRAME PSTACK, 0, STACK
        LOCFRAME XSTACK, 9, STACK
        LOCFRAME IOVERLAY, 0, STATIC
        LOCFRAME DOVERLAY, 0, STATIC
        ARGFRAME ISTACK, 0, STACK
        ARGFRAME PSTACK, 0, STACK
        ARGFRAME XSTACK, 9, STACK
        ARGFRAME IOVERLAY, 0, STATIC
        ARGFRAME DOVERLAY, 0, STATIC
        FUNCALL uartMsgProcesser, HalLedSet
        LOCFRAME ISTACK, 0, STACK
        LOCFRAME PSTACK, 0, STACK
        LOCFRAME XSTACK, 9, STACK
        LOCFRAME IOVERLAY, 0, STATIC
        LOCFRAME DOVERLAY, 0, STATIC
        ARGFRAME ISTACK, 0, STACK
        ARGFRAME PSTACK, 0, STACK
        ARGFRAME XSTACK, 9, STACK
        ARGFRAME IOVERLAY, 0, STATIC
        ARGFRAME DOVERLAY, 0, STATIC
        FUNCALL uartMsgProcesser, HalLedSet
        LOCFRAME ISTACK, 0, STACK
        LOCFRAME PSTACK, 0, STACK
        LOCFRAME XSTACK, 9, STACK
        LOCFRAME IOVERLAY, 0, STATIC
        LOCFRAME DOVERLAY, 0, STATIC
        ARGFRAME ISTACK, 0, STACK
        ARGFRAME PSTACK, 0, STACK
        ARGFRAME XSTACK, 9, STACK
        ARGFRAME IOVERLAY, 0, STATIC
        ARGFRAME DOVERLAY, 0, STATIC
        FUNCALL uartMsgProcesser, HalUARTWrite
        LOCFRAME ISTACK, 0, STACK
        LOCFRAME PSTACK, 0, STACK
        LOCFRAME XSTACK, 9, STACK
        LOCFRAME IOVERLAY, 0, STATIC
        LOCFRAME DOVERLAY, 0, STATIC
        ARGFRAME ISTACK, 0, STACK
        ARGFRAME PSTACK, 0, STACK
        ARGFRAME XSTACK, 9, STACK
        ARGFRAME IOVERLAY, 0, STATIC
        ARGFRAME DOVERLAY, 0, STATIC
        MOV     A,#-0x9
        LCALL   ?BANKED_ENTER_XDATA
        CFI DPH0 load(1, XDATA, add(CFA_XSP16, literal(-1)))
        CFI DPL0 load(1, XDATA, add(CFA_XSP16, literal(-2)))
        CFI ?BRET_EXT load(1, XDATA, add(CFA_XSP16, literal(-3)))
        CFI ?RET_HIGH load(1, XDATA, add(CFA_XSP16, literal(-4)))
        CFI ?RET_LOW load(1, XDATA, add(CFA_XSP16, literal(-5)))
        CFI R7 load(1, XDATA, add(CFA_XSP16, literal(-6)))
        CFI V0 load(1, XDATA, add(CFA_XSP16, literal(-7)))
        CFI VB load(1, XDATA, add(CFA_XSP16, literal(-8)))
        CFI R6 load(1, XDATA, add(CFA_XSP16, literal(-9)))
        CFI CFA_SP SP+0
        CFI CFA_XSP16 add(XSP16, 9)
        ; Saved register size: 9
        ; Auto size: 0
//  462     mtOSALSerialData_t *pMsg = (mtOSALSerialData_t *)msg;
//  463     mtUserSerialMsg_t *pMsgBody = (mtUserSerialMsg_t *)pMsg->msg;
        MOV     DPL,R2
        MOV     DPH,R3
        INC     DPTR
        INC     DPTR
        MOVX    A,@DPTR
        MOV     R0,A
        INC     DPTR
        MOVX    A,@DPTR
        MOV     R1,A
        MOV     A,R0
        MOV     R2,A
        MOV     A,R1
        MOV     R3,A
//  464     if ( (curNwkState != DEV_ZB_COORD)
//  465             && (curNwkState != DEV_ROUTER)
//  466             && (curNwkState != DEV_END_DEVICE) )
        MOV     DPTR,#curNwkState
        MOVX    A,@DPTR
        XRL     A,#0x9
        JZ      ??uartMsgProcesser_0
        MOVX    A,@DPTR
        XRL     A,#0x7
        JZ      ??uartMsgProcesser_0
        MOVX    A,@DPTR
        XRL     A,#0x6
        JZ      ??uartMsgProcesser_0
//  467         return 1;   
??uartMsgProcesser_1:
        MOV     R1,#0x1
        LJMP    ?Subroutine3 & 0xFFFF
//  468 #if defined(PEER_COORD)
//  469     SendData(CONTROL_ENDPOINT, &msg[4],SrcShortAddr, TRANSFER_ENDPOINT,8);    
//  470     return 1;
//  471 #endif
//  472 
//  473 #if defined(PEER_ROUTER)
//  474     SendData(CONTROL_ENDPOINT, &msg[4],0x0000, TRANSFER_ENDPOINT,8);
//  475     return 1;
//  476 #endif        
//  477     switch(pMsgBody->cmd)
??uartMsgProcesser_0:
        MOV     DPL,R2
        MOV     DPH,R3
        INC     DPTR
        INC     DPTR
        INC     DPTR
        MOVX    A,@DPTR
        XRL     A,#0xb9
        JNZ     ??uartMsgProcesser_2
        INC     DPTR
        MOVX    A,@DPTR
        XRL     A,#0x46
??uartMsgProcesser_2:
        JNZ     ??uartMsgProcesser_1
//  478     {
//  479         case 0x46B9:
//  480         {                  
//  481             switch(pMsgBody->cmdEndPoint)
        MOV     DPL,R2
        MOV     DPH,R3
        INC     DPTR
        INC     DPTR
        INC     DPTR
        INC     DPTR
        INC     DPTR
        MOVX    A,@DPTR
        ADD     A,#0x11
        JZ      ??uartMsgProcesser_3
        DEC     A
        JZ      ??uartMsgProcesser_4
        DEC     A
        JNZ     ??uartMsgProcesser_1
//  482             {
//  483             case 0xF1:
//  484                 {                                 
//  485                     // 转发数据                    
//  486                     /*SendData(TRANSFER_ENDPOINT, pMsgBody->data,
//  487                              pMsgBody->addr, pMsgBody->endPoint,
//  488                              pMsgBody->len - 6);
//  489                     */
//  490                     SendData(TRANSFER_ENDPOINT, pMsgBody->data,
//  491                              0XFFFF, pMsgBody->endPoint,
//  492                              pMsgBody->len - 6);
        ; Setup parameters for call to function SendData
        MOV     DPL,R2
        MOV     DPH,R3
        INC     DPTR
        INC     DPTR
        MOVX    A,@DPTR
        ADD     A,#-0x6
        MOV     ?V0 + 0,A
        MOV     R0,#?V0 + 0
        LCALL   ?PUSH_XSTACK_I_ONE
        CFI CFA_XSP16 add(XSP16, 10)
        MOV     DPL,R2
        MOV     DPH,R3
        INC     DPTR
        INC     DPTR
        INC     DPTR
        INC     DPTR
        INC     DPTR
        INC     DPTR
        INC     DPTR
        INC     DPTR
        MOVX    A,@DPTR
        MOV     ?V0 + 0,A
        MOV     R0,#?V0 + 0
        LCALL   ?PUSH_XSTACK_I_ONE
        CFI CFA_XSP16 add(XSP16, 11)
        MOV     R4,#-0x1
        MOV     R5,#-0x1
        MOV     A,R2
        ADD     A,#0x9
        MOV     R2,A
        MOV     A,R3
        ADDC    A,#0x0
        MOV     R3,A
        MOV     R1,#0x1
        LCALL   ??SendData?relay
        MOV     A,#0x2
        LCALL   ?DEALLOC_XSTACK8
        CFI CFA_XSP16 add(XSP16, 9)
//  493                 }
//  494                 break;
        SJMP    ??uartMsgProcesser_1
//  495 #if defined(ZDO_COORDINATOR)                
//  496             case 0xF0:
//  497                 HalLedSet ( HAL_LED_1, HAL_LED_MODE_ON );
??uartMsgProcesser_4:
        ; Setup parameters for call to function HalLedSet
        LCALL   ?Subroutine29 & 0xFFFF
//  498                 HalLedSet ( HAL_LED_2, HAL_LED_MODE_ON );
//  499                 Delay100us(5000);                
??CrossCallReturnLabel_39:
        ; Setup parameters for call to function Delay100us
        MOV     R2,#-0x78
        MOV     R3,#0x13
        LCALL   ??Delay100us?relay
//  500                 HalLedSet ( HAL_LED_1, HAL_LED_MODE_OFF );
        ; Setup parameters for call to function HalLedSet
        MOV     R2,#0x0
        MOV     R1,#0x1
        LCALL   ??HalLedSet?relay
//  501                 HalLedSet ( HAL_LED_2, HAL_LED_MODE_OFF );
        ; Setup parameters for call to function HalLedSet
        MOV     R2,#0x0
        MOV     R1,#0x2
        LCALL   ??HalLedSet?relay
//  502                 Delay100us(5000);                
        ; Setup parameters for call to function Delay100us
        MOV     R2,#-0x78
        MOV     R3,#0x13
        LCALL   ??Delay100us?relay
//  503                 HalLedSet ( HAL_LED_1, HAL_LED_MODE_ON );
        ; Setup parameters for call to function HalLedSet
        LCALL   ?Subroutine29 & 0xFFFF
//  504                 HalLedSet ( HAL_LED_2, HAL_LED_MODE_ON );                
//  505                 SystemReset();  
??CrossCallReturnLabel_40:
        CLR     0xa8.7
        CLR     0xa8.7
        MOV     0xc9,#-0x55
        MOV     0xc9,#0x5b
??uartMsgProcesser_5:
        SJMP    ??uartMsgProcesser_5
//  506                 break;
//  507             case 0xEF:   
//  508                 SendBuf[0]=0x2;
??uartMsgProcesser_3:
        MOV     DPTR,#SendBuf
        MOV     A,#0x2
        MOVX    @DPTR,A
//  509                 SendBuf[1]=0x7;
        INC     DPTR
        MOV     A,#0x7
        MOVX    @DPTR,A
//  510                 SendBuf[2]=0xB9;
        INC     DPTR
        MOV     A,#-0x47
        MOVX    @DPTR,A
//  511                 SendBuf[3]=0x46;
        INC     DPTR
        MOV     A,#0x46
        MOVX    @DPTR,A
//  512                 SendBuf[4]=0xEF;
        INC     DPTR
        MOV     A,#-0x11
        MOVX    @DPTR,A
//  513                 SendBuf[5]=0x0;
        INC     DPTR
        CLR     A
        MOVX    @DPTR,A
//  514                 SendBuf[6]=0x0;
        INC     DPTR
        MOVX    @DPTR,A
//  515                 SendBuf[7]=0x0;
        INC     DPTR
        MOVX    @DPTR,A
//  516                 SendBuf[8]=0x0;
        INC     DPTR
        MOVX    @DPTR,A
//  517                 SendBuf[9]=0x17;
        INC     DPTR
        MOV     A,#0x17
        MOVX    @DPTR,A
//  518                 HalUARTWrite(HAL_UART_PORT_0, &SendBuf[0], 10);    
        ; Setup parameters for call to function HalUARTWrite
        MOV     R4,#0xa
        MOV     R5,#0x0
        MOV     R2,#SendBuf & 0xff
        MOV     R3,#(SendBuf >> 8) & 0xff
        MOV     R1,#0x0
        LCALL   ??HalUARTWrite?relay
//  519                 break;
        LJMP    ??uartMsgProcesser_1 & 0xFFFF
        CFI EndBlock cfiBlock154
        REQUIRE _A_IEN0
        REQUIRE WDCTL
//  520 #endif                
//  521             }            
//  522         }
//  523         break;
//  524     }
//  525     return 1;
//  526 }

        RSEG BANKED_CODE:CODE:NOROOT(0)
?Subroutine29:
        CFI Block cfiCond155 Using cfiCommon0
        CFI NoFunction
        CFI Conditional ??CrossCallReturnLabel_39
        CFI R6 load(1, XDATA, add(CFA_XSP16, literal(-9)))
        CFI VB load(1, XDATA, add(CFA_XSP16, literal(-8)))
        CFI V0 load(1, XDATA, add(CFA_XSP16, literal(-7)))
        CFI R7 load(1, XDATA, add(CFA_XSP16, literal(-6)))
        CFI ?RET_LOW load(1, XDATA, add(CFA_XSP16, literal(-5)))
        CFI ?RET_HIGH load(1, XDATA, add(CFA_XSP16, literal(-4)))
        CFI ?BRET_EXT load(1, XDATA, add(CFA_XSP16, literal(-3)))
        CFI DPL0 load(1, XDATA, add(CFA_XSP16, literal(-2)))
        CFI DPH0 load(1, XDATA, add(CFA_XSP16, literal(-1)))
        CFI CFA_SP SP+0
        CFI CFA_XSP16 add(XSP16, 9)
        CFI Block cfiCond156 Using cfiCommon0
        CFI (cfiCond156) NoFunction
        CFI (cfiCond156) Conditional ??CrossCallReturnLabel_40
        CFI (cfiCond156) R6 load(1, XDATA, add(CFA_XSP16, literal(-9)))
        CFI (cfiCond156) VB load(1, XDATA, add(CFA_XSP16, literal(-8)))
        CFI (cfiCond156) V0 load(1, XDATA, add(CFA_XSP16, literal(-7)))
        CFI (cfiCond156) R7 load(1, XDATA, add(CFA_XSP16, literal(-6)))
        CFI (cfiCond156) ?RET_LOW load(1, XDATA, add(CFA_XSP16, literal(-5)))
        CFI (cfiCond156) ?RET_HIGH load(1, XDATA, add(CFA_XSP16, literal(-4)))
        CFI (cfiCond156) ?BRET_EXT load(1, XDATA, add(CFA_XSP16, literal(-3)))
        CFI (cfiCond156) DPL0 load(1, XDATA, add(CFA_XSP16, literal(-2)))
        CFI (cfiCond156) DPH0 load(1, XDATA, add(CFA_XSP16, literal(-1)))
        CFI (cfiCond156) CFA_SP SP+0
        CFI (cfiCond156) CFA_XSP16 add(XSP16, 9)
        CFI Block cfiPicker157 Using cfiCommon1
        CFI (cfiPicker157) NoFunction
        CFI (cfiPicker157) Picker
        MOV     R2,#0x1
        MOV     R1,#0x1
        LCALL   ??HalLedSet?relay
        ; Setup parameters for call to function HalLedSet
        ; Setup parameters for call to function HalLedSet
        MOV     R2,#0x1
        MOV     R1,#0x2
        LCALL   ??HalLedSet?relay
        RET
        CFI EndBlock cfiCond155
        CFI EndBlock cfiCond156
        CFI EndBlock cfiPicker157
//  527 #endif
//  528 

        RSEG BANKED_CODE:CODE:NOROOT(0)
//  529 uint8 SendData(uint8 srcEP, const void *buf, uint16 addr, uint8 dstEP, uint8 Len)
SendData:
        CFI Block cfiBlock158 Using cfiCommon0
        CFI Function SendData
        CODE
//  530 {
        FUNCALL SendData, AF_DataRequest
        LOCFRAME ISTACK, 0, STACK
        LOCFRAME PSTACK, 0, STACK
        LOCFRAME XSTACK, 33, STACK
        LOCFRAME IOVERLAY, 0, STATIC
        LOCFRAME DOVERLAY, 0, STATIC
        ARGFRAME ISTACK, 0, STACK
        ARGFRAME PSTACK, 0, STACK
        ARGFRAME XSTACK, 33, STACK
        ARGFRAME IOVERLAY, 0, STATIC
        ARGFRAME DOVERLAY, 0, STATIC
        FUNCALL SendData, HalLedBlink
        LOCFRAME ISTACK, 0, STACK
        LOCFRAME PSTACK, 0, STACK
        LOCFRAME XSTACK, 24, STACK
        LOCFRAME IOVERLAY, 0, STATIC
        LOCFRAME DOVERLAY, 0, STATIC
        ARGFRAME ISTACK, 0, STACK
        ARGFRAME PSTACK, 0, STACK
        ARGFRAME XSTACK, 24, STACK
        ARGFRAME IOVERLAY, 0, STATIC
        ARGFRAME DOVERLAY, 0, STATIC
        MOV     A,#-0xc
        LCALL   ?BANKED_ENTER_XDATA
        CFI DPH0 load(1, XDATA, add(CFA_XSP16, literal(-1)))
        CFI DPL0 load(1, XDATA, add(CFA_XSP16, literal(-2)))
        CFI ?BRET_EXT load(1, XDATA, add(CFA_XSP16, literal(-3)))
        CFI ?RET_HIGH load(1, XDATA, add(CFA_XSP16, literal(-4)))
        CFI ?RET_LOW load(1, XDATA, add(CFA_XSP16, literal(-5)))
        CFI R7 load(1, XDATA, add(CFA_XSP16, literal(-6)))
        CFI V3 load(1, XDATA, add(CFA_XSP16, literal(-7)))
        CFI V2 load(1, XDATA, add(CFA_XSP16, literal(-8)))
        CFI V1 load(1, XDATA, add(CFA_XSP16, literal(-9)))
        CFI V0 load(1, XDATA, add(CFA_XSP16, literal(-10)))
        CFI VB load(1, XDATA, add(CFA_XSP16, literal(-11)))
        CFI R6 load(1, XDATA, add(CFA_XSP16, literal(-12)))
        CFI CFA_SP SP+0
        CFI CFA_XSP16 add(XSP16, 12)
        ; Saved register size: 12
        ; Auto size: 12
        MOV     A,#-0xc
        LCALL   ?ALLOC_XSTACK8
        CFI CFA_XSP16 add(XSP16, 24)
        MOV     A,R1
        MOV     R6,A
        MOV     ?V0 + 0,R2
        MOV     ?V0 + 1,R3
        MOV     A,#0x18
        LCALL   ?XSTACK_DISP0_8
        MOVX    A,@DPTR
        MOV     ?V0 + 2,A
        MOV     A,#0x19
        LCALL   ?XSTACK_DISP0_8
        MOVX    A,@DPTR
        MOV     R7,A
//  531     static uint8 transID = 0;
//  532     afAddrType_t SendDataAddr;
//  533     struct ep_info_t *epInfo;
//  534 
//  535     if(srcEP <= funcCount)
        MOV     DPTR,#funcCount
        MOVX    A,@DPTR
        CLR     C
        SUBB    A,R6
        JC      ??SendData_0
//  536         epInfo = &funcList[srcEP - 1];
        MOV     A,R6
        MOV     B,#0x21
        MUL     AB
        MOV     R0,A
        MOV     R1,B
        MOV     A,#(funcList + 223) & 0xff
        ADD     A,R0
        MOV     R0,A
        MOV     A,#((funcList - 33) >> 8) & 0xff
        ADDC    A,R1
        MOV     R1,A
        MOV     A,R0
        MOV     R2,A
        MOV     A,R1
        MOV     R3,A
        SJMP    ??SendData_1
//  537     else
//  538         epInfo = &controlEndPointInfo;
??SendData_0:
        MOV     R2,#controlEndPointInfo & 0xff
        MOV     R3,#(controlEndPointInfo >> 8) & 0xff
//  539 
//  540     SendDataAddr.addrMode = (afAddrMode_t)Addr16Bit;         //短地址发送
??SendData_1:
        MOV     A,#0x8
        LCALL   ?XSTACK_DISP0_8
        MOV     A,#0x2
        MOVX    @DPTR,A
//  541     SendDataAddr.endPoint = dstEP;
        MOV     A,#0x9
        LCALL   ?XSTACK_DISP0_8
        MOV     A,?V0 + 2
        MOVX    @DPTR,A
//  542     SendDataAddr.addr.shortAddr = addr;
        MOV     DPL,?XSP + 0
        MOV     DPH,?XSP + 1
        MOV     A,R4
        MOVX    @DPTR,A
        INC     DPTR
        MOV     A,R5
        MOVX    @DPTR,A
//  543     if ( AF_DataRequest( &SendDataAddr, //发送的地址和模式
//  544                          // TODO:
//  545                          &epInfo->SampleApp_epDesc,   //终端（比如操作系统中任务ID等）
//  546                          SAPP_PERIODIC_CLUSTERID,//发送串ID
//  547                          Len,
//  548                          (uint8*)buf,
//  549                          &transID,  //信息ID（操作系统参数）
//  550                          AF_DISCV_ROUTE,                         
//  551                          AF_DEFAULT_RADIUS ) == afStatus_SUCCESS )
        ; Setup parameters for call to function AF_DataRequest
        MOV     ?V0 + 2,#0x1e
        MOV     R0,#?V0 + 2
        LCALL   ?PUSH_XSTACK_I_ONE
        CFI CFA_XSP16 add(XSP16, 25)
        MOV     ?V0 + 2,#??transID & 0xff
        MOV     ?V0 + 3,#(??transID >> 8) & 0xff
        MOV     R0,#?V0 + 2
        LCALL   ?PUSH_XSTACK_I_TWO
        CFI CFA_XSP16 add(XSP16, 27)
        MOV     R0,#?V0 + 0
        LCALL   ?PUSH_XSTACK_I_TWO
        CFI CFA_XSP16 add(XSP16, 29)
        MOV     ?V0 + 0,R7
        MOV     ?V0 + 1,#0x0
        MOV     R0,#?V0 + 0
        LCALL   ?PUSH_XSTACK_I_TWO
        CFI CFA_XSP16 add(XSP16, 31)
        MOV     ?V0 + 0,#0x1
        MOV     R0,#?V0 + 0
        LCALL   ?PUSH_XSTACK_I_TWO
        CFI CFA_XSP16 add(XSP16, 33)
        MOV     R1,#0x20
        MOV     A,R2
        ADD     A,#0xf
        MOV     R4,A
        MOV     A,R3
        ADDC    A,#0x0
        MOV     R5,A
        MOV     A,#0x9
        LCALL   ?XSTACK_DISP0_8
        MOV     R2,DPL
        MOV     R3,DPH
        LCALL   ??AF_DataRequest?relay
        MOV     A,#0x9
        LCALL   ?DEALLOC_XSTACK8
        CFI CFA_XSP16 add(XSP16, 24)
        MOV     A,R1
        JNZ     ??SendData_2
//  552     {       
//  553         HalLedBlink( HAL_LED_1, 1, 50, 250 );
        ; Setup parameters for call to function HalLedBlink
        MOV     R4,#-0x6
        MOV     R5,#0x0
        MOV     R3,#0x32
        MOV     R2,#0x1
        MOV     R1,#0x1
        LCALL   ??HalLedBlink?relay
//  554         return 1;
        MOV     R1,#0x1
        SJMP    ??SendData_3
//  555     }
//  556     else
//  557     {
//  558         return 0;
??SendData_2:
        MOV     R1,#0x0
??SendData_3:
        MOV     A,#0xc
        LCALL   ?DEALLOC_XSTACK8
        CFI CFA_XSP16 add(XSP16, 12)
        MOV     R7,#0x4
        LJMP    ?BANKED_LEAVE_XDATA
        CFI EndBlock cfiBlock158
//  559     }
//  560 }

        RSEG XDATA_Z:XDATA:NOROOT(0)
        DATA8
??transID:
        DS 1
        REQUIRE __INIT_XDATA_Z
//  561 

        RSEG BANKED_CODE:CODE:NOROOT(0)
//  562 void CreateUserTimer(struct ep_info_t *ep, uint8 seconds)
CreateUserTimer:
        CFI Block cfiBlock159 Using cfiCommon0
        CFI Function CreateUserTimer
        CODE
//  563 {
        FUNCALL CreateUserTimer, osal_start_timerEx
        LOCFRAME ISTACK, 0, STACK
        LOCFRAME PSTACK, 0, STACK
        LOCFRAME XSTACK, 9, STACK
        LOCFRAME IOVERLAY, 0, STATIC
        LOCFRAME DOVERLAY, 0, STATIC
        ARGFRAME ISTACK, 0, STACK
        ARGFRAME PSTACK, 0, STACK
        ARGFRAME XSTACK, 9, STACK
        ARGFRAME IOVERLAY, 0, STATIC
        ARGFRAME DOVERLAY, 0, STATIC
        MOV     A,#-0x9
        LCALL   ?BANKED_ENTER_XDATA
        CFI DPH0 load(1, XDATA, add(CFA_XSP16, literal(-1)))
        CFI DPL0 load(1, XDATA, add(CFA_XSP16, literal(-2)))
        CFI ?BRET_EXT load(1, XDATA, add(CFA_XSP16, literal(-3)))
        CFI ?RET_HIGH load(1, XDATA, add(CFA_XSP16, literal(-4)))
        CFI ?RET_LOW load(1, XDATA, add(CFA_XSP16, literal(-5)))
        CFI R7 load(1, XDATA, add(CFA_XSP16, literal(-6)))
        CFI V0 load(1, XDATA, add(CFA_XSP16, literal(-7)))
        CFI VB load(1, XDATA, add(CFA_XSP16, literal(-8)))
        CFI R6 load(1, XDATA, add(CFA_XSP16, literal(-9)))
        CFI CFA_SP SP+0
        CFI CFA_XSP16 add(XSP16, 9)
        ; Saved register size: 9
        ; Auto size: 0
        MOV     A,R1
        MOV     R6,A
//  564     if(ep == NULL)
        MOV     A,R2
        ORL     A,R3
        JZ      ??CreateUserTimer_0
//  565         return;
//  566     if(ep->res_available == NULL)
        LCALL   ?Subroutine6 & 0xFFFF
??CrossCallReturnLabel_63:
        JZ      ??CreateUserTimer_0
//  567         return;
//  568     ep->userTimer = seconds;
        MOV     A,R2
        ADD     A,#0xe
        LCALL   ?Subroutine20 & 0xFFFF
??CrossCallReturnLabel_108:
        MOV     A,R6
        MOVX    @DPTR,A
//  569     if(isUserTimerRunning == 0)
        MOV     DPTR,#isUserTimerRunning
        MOVX    A,@DPTR
        JNZ     ??CreateUserTimer_0
//  570     {
//  571         osal_start_timerEx(controlTaskId,
//  572                            SAPP_SEND_PERIODIC_MSG_EVT,
//  573                            1000);
        ; Setup parameters for call to function osal_start_timerEx
        MOV     R4,#-0x18
        MOV     R5,#0x3
        MOV     R2,#0x1
        MOV     R3,#0x0
        MOV     DPTR,#controlTaskId
        MOVX    A,@DPTR
        MOV     R1,A
        LCALL   ??osal_start_timerEx?relay
//  574         isUserTimerRunning = 1;
        MOV     DPTR,#isUserTimerRunning
        MOV     A,#0x1
        MOVX    @DPTR,A
        CFI EndBlock cfiBlock159
//  575     }
??CreateUserTimer_0:
        REQUIRE ?Subroutine3
        ; // Fall through to label ?Subroutine3
//  576 }

        RSEG BANKED_CODE:CODE:NOROOT(0)
?Subroutine3:
        CFI Block cfiBlock160 Using cfiCommon0
        CFI NoFunction
        CFI CFA_SP SP+0
        CFI CFA_XSP16 add(XSP16, 9)
        CFI VB load(1, XDATA, add(CFA_XSP16, literal(-8)))
        CFI DPL0 load(1, XDATA, add(CFA_XSP16, literal(-2)))
        CFI DPH0 load(1, XDATA, add(CFA_XSP16, literal(-1)))
        CFI R6 load(1, XDATA, add(CFA_XSP16, literal(-9)))
        CFI R7 load(1, XDATA, add(CFA_XSP16, literal(-6)))
        CFI V0 load(1, XDATA, add(CFA_XSP16, literal(-7)))
        CFI ?BRET_EXT load(1, XDATA, add(CFA_XSP16, literal(-3)))
        CFI ?RET_HIGH load(1, XDATA, add(CFA_XSP16, literal(-4)))
        CFI ?RET_LOW load(1, XDATA, add(CFA_XSP16, literal(-5)))
        MOV     R7,#0x1
        LJMP    ?BANKED_LEAVE_XDATA
        CFI EndBlock cfiBlock160
//  577 

        RSEG BANKED_CODE:CODE:NOROOT(0)
//  578 void DeleteUserTimer(struct ep_info_t *ep)
DeleteUserTimer:
        CFI Block cfiBlock161 Using cfiCommon0
        CFI Function DeleteUserTimer
        CODE
//  579 {
        PUSH    DPL
        CFI DPL0 Frame(CFA_SP, 4)
        CFI CFA_SP SP+-4
        PUSH    DPH
        CFI DPH0 Frame(CFA_SP, 5)
        CFI CFA_SP SP+-5
        ; Saved register size: 2
        ; Auto size: 0
//  580     if(ep == NULL)
        MOV     A,R2
        ORL     A,R3
        JZ      ??CrossCallReturnLabel_78
//  581         return;
//  582     ep->userTimer = 0;
        LCALL   ?Subroutine17 & 0xFFFF
//  583 }
??CrossCallReturnLabel_78:
        SJMP    ?Subroutine0
        CFI EndBlock cfiBlock161

        RSEG BANKED_CODE:CODE:NOROOT(0)
?Subroutine17:
        CFI Block cfiCond162 Using cfiCommon0
        CFI NoFunction
        CFI Conditional ??CrossCallReturnLabel_77
        CFI R6 load(1, XDATA, add(CFA_XSP16, literal(-10)))
        CFI VB load(1, XDATA, add(CFA_XSP16, literal(-9)))
        CFI V0 load(1, XDATA, add(CFA_XSP16, literal(-8)))
        CFI V1 load(1, XDATA, add(CFA_XSP16, literal(-7)))
        CFI R7 load(1, XDATA, add(CFA_XSP16, literal(-6)))
        CFI ?RET_LOW load(1, XDATA, add(CFA_XSP16, literal(-5)))
        CFI ?RET_HIGH load(1, XDATA, add(CFA_XSP16, literal(-4)))
        CFI ?BRET_EXT load(1, XDATA, add(CFA_XSP16, literal(-3)))
        CFI DPL0 load(1, XDATA, add(CFA_XSP16, literal(-2)))
        CFI DPH0 load(1, XDATA, add(CFA_XSP16, literal(-1)))
        CFI CFA_SP SP+0
        CFI CFA_XSP16 add(XSP16, 10)
        CFI Block cfiCond163 Using cfiCommon0
        CFI (cfiCond163) NoFunction
        CFI (cfiCond163) Conditional ??CrossCallReturnLabel_78
        CFI (cfiCond163) DPL0 Frame(CFA_SP, 4)
        CFI (cfiCond163) DPH0 Frame(CFA_SP, 5)
        CFI (cfiCond163) CFA_SP SP+-5
        CFI Block cfiPicker164 Using cfiCommon1
        CFI (cfiPicker164) NoFunction
        CFI (cfiPicker164) Picker
        MOV     A,R2
        ADD     A,#0xe
        CFI EndBlock cfiCond162
        CFI EndBlock cfiCond163
        CFI EndBlock cfiPicker164
        REQUIRE ??Subroutine45_0
        ; // Fall through to label ??Subroutine45_0

        RSEG BANKED_CODE:CODE:NOROOT(0)
??Subroutine45_0:
        CFI Block cfiCond165 Using cfiCommon0
        CFI NoFunction
        CFI Conditional ??CrossCallReturnLabel_75
        CFI R6 load(1, XDATA, add(CFA_XSP16, literal(-10)))
        CFI VB load(1, XDATA, add(CFA_XSP16, literal(-9)))
        CFI V0 load(1, XDATA, add(CFA_XSP16, literal(-8)))
        CFI V1 load(1, XDATA, add(CFA_XSP16, literal(-7)))
        CFI R7 load(1, XDATA, add(CFA_XSP16, literal(-6)))
        CFI ?RET_LOW load(1, XDATA, add(CFA_XSP16, literal(-5)))
        CFI ?RET_HIGH load(1, XDATA, add(CFA_XSP16, literal(-4)))
        CFI ?BRET_EXT load(1, XDATA, add(CFA_XSP16, literal(-3)))
        CFI DPL0 load(1, XDATA, add(CFA_XSP16, literal(-2)))
        CFI DPH0 load(1, XDATA, add(CFA_XSP16, literal(-1)))
        CFI CFA_SP SP+0
        CFI CFA_XSP16 add(XSP16, 10)
        CFI Block cfiCond166 Using cfiCommon0
        CFI (cfiCond166) NoFunction
        CFI (cfiCond166) Conditional ??CrossCallReturnLabel_76
        CFI (cfiCond166) R6 load(1, XDATA, add(CFA_XSP16, literal(-10)))
        CFI (cfiCond166) VB load(1, XDATA, add(CFA_XSP16, literal(-9)))
        CFI (cfiCond166) V0 load(1, XDATA, add(CFA_XSP16, literal(-8)))
        CFI (cfiCond166) V1 load(1, XDATA, add(CFA_XSP16, literal(-7)))
        CFI (cfiCond166) R7 load(1, XDATA, add(CFA_XSP16, literal(-6)))
        CFI (cfiCond166) ?RET_LOW load(1, XDATA, add(CFA_XSP16, literal(-5)))
        CFI (cfiCond166) ?RET_HIGH load(1, XDATA, add(CFA_XSP16, literal(-4)))
        CFI (cfiCond166) ?BRET_EXT load(1, XDATA, add(CFA_XSP16, literal(-3)))
        CFI (cfiCond166) DPL0 load(1, XDATA, add(CFA_XSP16, literal(-2)))
        CFI (cfiCond166) DPH0 load(1, XDATA, add(CFA_XSP16, literal(-1)))
        CFI (cfiCond166) CFA_SP SP+0
        CFI (cfiCond166) CFA_XSP16 add(XSP16, 10)
        CFI Block cfiCond167 Using cfiCommon0
        CFI (cfiCond167) NoFunction
        CFI (cfiCond167) Conditional ??CrossCallReturnLabel_77
        CFI (cfiCond167) R6 load(1, XDATA, add(CFA_XSP16, literal(-10)))
        CFI (cfiCond167) VB load(1, XDATA, add(CFA_XSP16, literal(-9)))
        CFI (cfiCond167) V0 load(1, XDATA, add(CFA_XSP16, literal(-8)))
        CFI (cfiCond167) V1 load(1, XDATA, add(CFA_XSP16, literal(-7)))
        CFI (cfiCond167) R7 load(1, XDATA, add(CFA_XSP16, literal(-6)))
        CFI (cfiCond167) ?RET_LOW load(1, XDATA, add(CFA_XSP16, literal(-5)))
        CFI (cfiCond167) ?RET_HIGH load(1, XDATA, add(CFA_XSP16, literal(-4)))
        CFI (cfiCond167) ?BRET_EXT load(1, XDATA, add(CFA_XSP16, literal(-3)))
        CFI (cfiCond167) DPL0 load(1, XDATA, add(CFA_XSP16, literal(-2)))
        CFI (cfiCond167) DPH0 load(1, XDATA, add(CFA_XSP16, literal(-1)))
        CFI (cfiCond167) CFA_SP SP+0
        CFI (cfiCond167) CFA_XSP16 add(XSP16, 10)
        CFI Block cfiCond168 Using cfiCommon0
        CFI (cfiCond168) NoFunction
        CFI (cfiCond168) Conditional ??CrossCallReturnLabel_78
        CFI (cfiCond168) DPL0 Frame(CFA_SP, 4)
        CFI (cfiCond168) DPH0 Frame(CFA_SP, 5)
        CFI (cfiCond168) CFA_SP SP+-5
        CFI Block cfiPicker169 Using cfiCommon1
        CFI (cfiPicker169) NoFunction
        CFI (cfiPicker169) Picker
        MOV     DPL,A
        MOV     A,R3
        ADDC    A,#0x0
        MOV     DPH,A
        CLR     A
        MOVX    @DPTR,A
        RET
        CFI EndBlock cfiCond165
        CFI EndBlock cfiCond166
        CFI EndBlock cfiCond167
        CFI EndBlock cfiCond168
        CFI EndBlock cfiPicker169
//  584 

        RSEG BANKED_CODE:CODE:NOROOT(0)
//  585 void ModifyRefreshCycle(struct ep_info_t *ep, uint8 seconds)
ModifyRefreshCycle:
        CFI Block cfiBlock170 Using cfiCommon0
        CFI Function ModifyRefreshCycle
        CODE
//  586 {
        PUSH    DPL
        CFI DPL0 Frame(CFA_SP, 4)
        CFI CFA_SP SP+-4
        PUSH    DPH
        CFI DPH0 Frame(CFA_SP, 5)
        CFI CFA_SP SP+-5
        ; Saved register size: 2
        ; Auto size: 0
//  587     if(ep == NULL)
        MOV     A,R2
        ORL     A,R3
        JZ      ??ModifyRefreshCycle_0
//  588         return;
//  589     if(ep->time_out == NULL)
        MOV     DPL,R2
        MOV     DPH,R3
        LCALL   ??Subroutine49_0 & 0xFFFF
??CrossCallReturnLabel_92:
        MOV     A,R4
        ORL     A,R5
        JZ      ??ModifyRefreshCycle_0
//  590         return;
//  591     ep->function.cycle = seconds;
        MOV     A,R1
        MOV     DPL,R2
        MOV     DPH,R3
        INC     DPTR
        INC     DPTR
        INC     DPTR
        INC     DPTR
        INC     DPTR
        INC     DPTR
        INC     DPTR
        INC     DPTR
        INC     DPTR
        INC     DPTR
        MOVX    @DPTR,A
//  592     if(ep->timerTick > seconds)
        MOV     A,R2
        ADD     A,#0xd
        LCALL   ??Subroutine46_0 & 0xFFFF
??CrossCallReturnLabel_84:
        MOV     R0,A
        MOV     A,R1
        CLR     C
        SUBB    A,R0
        JNC     ??ModifyRefreshCycle_0
//  593         ep->timerTick = seconds;
        MOV     A,R1
        MOVX    @DPTR,A
        CFI EndBlock cfiBlock170
??ModifyRefreshCycle_0:
        REQUIRE ?Subroutine0
        ; // Fall through to label ?Subroutine0
//  594 }

        RSEG BANKED_CODE:CODE:NOROOT(0)
?Subroutine0:
        CFI Block cfiBlock171 Using cfiCommon0
        CFI NoFunction
        CFI CFA_SP SP+-5
        CFI DPL0 Frame(CFA_SP, 4)
        CFI DPH0 Frame(CFA_SP, 5)
        POP     DPH
        CFI CFA_SP SP+-4
        CFI DPH0 SameValue
        POP     DPL
        CFI CFA_SP SP+-3
        CFI DPL0 SameValue
        LJMP    ?BRET
        CFI EndBlock cfiBlock171
//  595 
//  596 #if ! defined(ZDO_COORDINATOR) && defined(RTR_NWK) && !defined(PEER_ROUTER)
//  597 void RouterTimeoutRoutine(struct ep_info_t *ep)
//  598 {    
//  599     SendData(CONTROL_ENDPOINT, (unsigned char *)&topoBuffer, 0x0000, TRANSFER_ENDPOINT, sizeof(TOPOINFO)); //路由节点向协调器发送拓扑信息      
//  600 }
//  601 #elif defined(PEER_ROUTER)
//  602 void RouterTimeoutRoutine(struct ep_info_t *ep)
//  603 {
//  604 }  
//  605 #endif
//  606 
//  607 #if defined(ZDO_COORDINATOR)

        RSEG BANKED_CODE:CODE:NOROOT(0)
//  608 void CoordinatorIncomingRoutine(struct ep_info_t *ep, uint16 addr, uint8 endPoint, afMSGCommandFormat_t *msg)
CoordinatorIncomingRoutine:
        CFI Block cfiBlock172 Using cfiCommon0
        CFI Function CoordinatorIncomingRoutine
        CODE
//  609 {
        FUNCALL CoordinatorIncomingRoutine, osal_mem_alloc
        LOCFRAME ISTACK, 0, STACK
        LOCFRAME PSTACK, 0, STACK
        LOCFRAME XSTACK, 18, STACK
        LOCFRAME IOVERLAY, 0, STATIC
        LOCFRAME DOVERLAY, 0, STATIC
        ARGFRAME ISTACK, 0, STACK
        ARGFRAME PSTACK, 0, STACK
        ARGFRAME XSTACK, 18, STACK
        ARGFRAME IOVERLAY, 0, STATIC
        ARGFRAME DOVERLAY, 0, STATIC
        FUNCALL CoordinatorIncomingRoutine, ClrScreen
        LOCFRAME ISTACK, 0, STACK
        LOCFRAME PSTACK, 0, STACK
        LOCFRAME XSTACK, 18, STACK
        LOCFRAME IOVERLAY, 0, STATIC
        LOCFRAME DOVERLAY, 0, STATIC
        ARGFRAME ISTACK, 0, STACK
        ARGFRAME PSTACK, 0, STACK
        ARGFRAME XSTACK, 18, STACK
        ARGFRAME IOVERLAY, 0, STATIC
        ARGFRAME DOVERLAY, 0, STATIC
        FUNCALL CoordinatorIncomingRoutine, PutString_cn
        LOCFRAME ISTACK, 0, STACK
        LOCFRAME PSTACK, 0, STACK
        LOCFRAME XSTACK, 18, STACK
        LOCFRAME IOVERLAY, 0, STATIC
        LOCFRAME DOVERLAY, 0, STATIC
        ARGFRAME ISTACK, 0, STACK
        ARGFRAME PSTACK, 0, STACK
        ARGFRAME XSTACK, 18, STACK
        ARGFRAME IOVERLAY, 0, STATIC
        ARGFRAME DOVERLAY, 0, STATIC
        FUNCALL CoordinatorIncomingRoutine, PutString_cn
        LOCFRAME ISTACK, 0, STACK
        LOCFRAME PSTACK, 0, STACK
        LOCFRAME XSTACK, 18, STACK
        LOCFRAME IOVERLAY, 0, STATIC
        LOCFRAME DOVERLAY, 0, STATIC
        ARGFRAME ISTACK, 0, STACK
        ARGFRAME PSTACK, 0, STACK
        ARGFRAME XSTACK, 18, STACK
        ARGFRAME IOVERLAY, 0, STATIC
        ARGFRAME DOVERLAY, 0, STATIC
        FUNCALL CoordinatorIncomingRoutine, PutString_cn
        LOCFRAME ISTACK, 0, STACK
        LOCFRAME PSTACK, 0, STACK
        LOCFRAME XSTACK, 18, STACK
        LOCFRAME IOVERLAY, 0, STATIC
        LOCFRAME DOVERLAY, 0, STATIC
        ARGFRAME ISTACK, 0, STACK
        ARGFRAME PSTACK, 0, STACK
        ARGFRAME XSTACK, 18, STACK
        ARGFRAME IOVERLAY, 0, STATIC
        ARGFRAME DOVERLAY, 0, STATIC
        FUNCALL CoordinatorIncomingRoutine, HalLcdWriteStringValue
        LOCFRAME ISTACK, 0, STACK
        LOCFRAME PSTACK, 0, STACK
        LOCFRAME XSTACK, 19, STACK
        LOCFRAME IOVERLAY, 0, STATIC
        LOCFRAME DOVERLAY, 0, STATIC
        ARGFRAME ISTACK, 0, STACK
        ARGFRAME PSTACK, 0, STACK
        ARGFRAME XSTACK, 19, STACK
        ARGFRAME IOVERLAY, 0, STATIC
        ARGFRAME DOVERLAY, 0, STATIC
        FUNCALL CoordinatorIncomingRoutine, memcpy
        LOCFRAME ISTACK, 0, STACK
        LOCFRAME PSTACK, 0, STACK
        LOCFRAME XSTACK, 20, STACK
        LOCFRAME IOVERLAY, 0, STATIC
        LOCFRAME DOVERLAY, 0, STATIC
        ARGFRAME ISTACK, 0, STACK
        ARGFRAME PSTACK, 0, STACK
        ARGFRAME XSTACK, 20, STACK
        ARGFRAME IOVERLAY, 0, STATIC
        ARGFRAME DOVERLAY, 0, STATIC
        FUNCALL CoordinatorIncomingRoutine, MT_UartCalcFCS
        LOCFRAME ISTACK, 0, STACK
        LOCFRAME PSTACK, 0, STACK
        LOCFRAME XSTACK, 18, STACK
        LOCFRAME IOVERLAY, 0, STATIC
        LOCFRAME DOVERLAY, 0, STATIC
        ARGFRAME ISTACK, 0, STACK
        ARGFRAME PSTACK, 0, STACK
        ARGFRAME XSTACK, 18, STACK
        ARGFRAME IOVERLAY, 0, STATIC
        ARGFRAME DOVERLAY, 0, STATIC
        FUNCALL CoordinatorIncomingRoutine, MT_UartCalcFCS
        LOCFRAME ISTACK, 0, STACK
        LOCFRAME PSTACK, 0, STACK
        LOCFRAME XSTACK, 18, STACK
        LOCFRAME IOVERLAY, 0, STATIC
        LOCFRAME DOVERLAY, 0, STATIC
        ARGFRAME ISTACK, 0, STACK
        ARGFRAME PSTACK, 0, STACK
        ARGFRAME XSTACK, 18, STACK
        ARGFRAME IOVERLAY, 0, STATIC
        ARGFRAME DOVERLAY, 0, STATIC
        FUNCALL CoordinatorIncomingRoutine, HalUARTWrite
        LOCFRAME ISTACK, 0, STACK
        LOCFRAME PSTACK, 0, STACK
        LOCFRAME XSTACK, 18, STACK
        LOCFRAME IOVERLAY, 0, STATIC
        LOCFRAME DOVERLAY, 0, STATIC
        ARGFRAME ISTACK, 0, STACK
        ARGFRAME PSTACK, 0, STACK
        ARGFRAME XSTACK, 18, STACK
        ARGFRAME IOVERLAY, 0, STATIC
        ARGFRAME DOVERLAY, 0, STATIC
        FUNCALL CoordinatorIncomingRoutine, Delay100us
        LOCFRAME ISTACK, 0, STACK
        LOCFRAME PSTACK, 0, STACK
        LOCFRAME XSTACK, 18, STACK
        LOCFRAME IOVERLAY, 0, STATIC
        LOCFRAME DOVERLAY, 0, STATIC
        ARGFRAME ISTACK, 0, STACK
        ARGFRAME PSTACK, 0, STACK
        ARGFRAME XSTACK, 18, STACK
        ARGFRAME IOVERLAY, 0, STATIC
        ARGFRAME DOVERLAY, 0, STATIC
        FUNCALL CoordinatorIncomingRoutine, HalUARTWrite
        LOCFRAME ISTACK, 0, STACK
        LOCFRAME PSTACK, 0, STACK
        LOCFRAME XSTACK, 18, STACK
        LOCFRAME IOVERLAY, 0, STATIC
        LOCFRAME DOVERLAY, 0, STATIC
        ARGFRAME ISTACK, 0, STACK
        ARGFRAME PSTACK, 0, STACK
        ARGFRAME XSTACK, 18, STACK
        ARGFRAME IOVERLAY, 0, STATIC
        ARGFRAME DOVERLAY, 0, STATIC
        FUNCALL CoordinatorIncomingRoutine, osal_mem_free
        LOCFRAME ISTACK, 0, STACK
        LOCFRAME PSTACK, 0, STACK
        LOCFRAME XSTACK, 18, STACK
        LOCFRAME IOVERLAY, 0, STATIC
        LOCFRAME DOVERLAY, 0, STATIC
        ARGFRAME ISTACK, 0, STACK
        ARGFRAME PSTACK, 0, STACK
        ARGFRAME XSTACK, 18, STACK
        ARGFRAME IOVERLAY, 0, STATIC
        ARGFRAME DOVERLAY, 0, STATIC
        MOV     A,#-0x12
        LCALL   ?BANKED_ENTER_XDATA
        CFI DPH0 load(1, XDATA, add(CFA_XSP16, literal(-1)))
        CFI DPL0 load(1, XDATA, add(CFA_XSP16, literal(-2)))
        CFI ?BRET_EXT load(1, XDATA, add(CFA_XSP16, literal(-3)))
        CFI ?RET_HIGH load(1, XDATA, add(CFA_XSP16, literal(-4)))
        CFI ?RET_LOW load(1, XDATA, add(CFA_XSP16, literal(-5)))
        CFI R7 load(1, XDATA, add(CFA_XSP16, literal(-6)))
        CFI V9 load(1, XDATA, add(CFA_XSP16, literal(-7)))
        CFI V8 load(1, XDATA, add(CFA_XSP16, literal(-8)))
        CFI V7 load(1, XDATA, add(CFA_XSP16, literal(-9)))
        CFI V6 load(1, XDATA, add(CFA_XSP16, literal(-10)))
        CFI V5 load(1, XDATA, add(CFA_XSP16, literal(-11)))
        CFI V4 load(1, XDATA, add(CFA_XSP16, literal(-12)))
        CFI V3 load(1, XDATA, add(CFA_XSP16, literal(-13)))
        CFI V2 load(1, XDATA, add(CFA_XSP16, literal(-14)))
        CFI V1 load(1, XDATA, add(CFA_XSP16, literal(-15)))
        CFI V0 load(1, XDATA, add(CFA_XSP16, literal(-16)))
        CFI VB load(1, XDATA, add(CFA_XSP16, literal(-17)))
        CFI R6 load(1, XDATA, add(CFA_XSP16, literal(-18)))
        CFI CFA_SP SP+0
        CFI CFA_XSP16 add(XSP16, 18)
        ; Saved register size: 18
        ; Auto size: 0
        MOV     ?V0 + 2,R4
        MOV     ?V0 + 3,R5
        MOV     ?V0 + 6,R1
        MOV     A,#0x12
        LCALL   ?XSTACK_DISP0_8
        MOVX    A,@DPTR
        MOV     ?V0 + 4,A
        INC     DPTR
        MOVX    A,@DPTR
        MOV     ?V0 + 5,A
//  610     //msg->Data[], msg->DataLength, msg->TransSeqNumber
//  611     //转发数据到串口  
//  612     if(msg->DataLength > 0)
        MOV     DPL,?V0 + 4
        MOV     DPH,A
        LCALL   ??Subroutine40_0 & 0xFFFF
??CrossCallReturnLabel_56:
        JNZ     $+5
        LJMP    ??CoordinatorIncomingRoutine_0 & 0xFFFF
//  613     {
//  614         mtUserSerialMsg_t *pMsg = osal_mem_alloc(sizeof(mtUserSerialMsg_t) + msg->DataLength - 1);
        MOV     DPL,?V0 + 4
        MOV     DPH,?V0 + 5
        INC     DPTR
        MOV     ?V0 + 0,DPL
        MOV     ?V0 + 1,DPH
        ; Setup parameters for call to function osal_mem_alloc
        MOVX    A,@DPTR
        ADD     A,#0x9
        MOV     R2,A
        INC     DPTR
        MOVX    A,@DPTR
        ADDC    A,#0x0
        MOV     R3,A
        LCALL   ??osal_mem_alloc?relay
        MOV     ?V0 + 8,R2
        MOV     ?V0 + 9,R3
        MOV     R6,?V0 + 8
        MOV     R7,?V0 + 9
//  615         pMsg->sop = MT_UART_SOF;
        MOV     DPL,R6
        MOV     DPH,R7
        INC     DPTR
        MOV     A,#0x2
        LCALL   ?Subroutine25 & 0xFFFF
//  616         pMsg->len = msg->DataLength + 6;
??CrossCallReturnLabel_29:
        ADD     A,#0x6
        MOV     DPL,R6
        MOV     DPH,R7
        INC     DPTR
        INC     DPTR
        LCALL   ?Subroutine26 & 0xFFFF
//  617         pMsg->cmd = 0x46B9;
??CrossCallReturnLabel_31:
        MOV     A,#-0x47
        MOVX    @DPTR,A
        INC     DPTR
        MOV     A,#0x46
        LCALL   ?Subroutine26 & 0xFFFF
//  618         pMsg->cmdEndPoint = 0xF1;
??CrossCallReturnLabel_32:
        INC     DPTR
        INC     DPTR
        MOV     A,#-0xf
        LCALL   ?Subroutine22 & 0xFFFF
//  619         pMsg->addr = addr;
??CrossCallReturnLabel_25:
        MOV     A,?V0 + 2
        MOVX    @DPTR,A
        INC     DPTR
        MOV     A,?V0 + 3
        MOVX    @DPTR,A
//  620         SrcShortAddr = addr;//PeerToPeer时使用
        MOV     DPTR,#SrcShortAddr
        MOV     A,?V0 + 2
        MOVX    @DPTR,A
        INC     DPTR
        MOV     A,?V0 + 3
        LCALL   ?Subroutine22 & 0xFFFF
//  621         pMsg->endPoint = endPoint;
??CrossCallReturnLabel_26:
        INC     DPTR
        INC     DPTR
        MOV     A,?V0 + 6
        MOVX    @DPTR,A
//  622         if((endPoint == 0xF0)&&(addr !=0)){//为路由包且不为网关路由包
        MOV     A,#-0x10
        XRL     A,?V0 + 6
        JNZ     ??CoordinatorIncomingRoutine_1
        MOV     A,?V0 + 2
        ORL     A,?V0 + 3
        JZ      ??CoordinatorIncomingRoutine_1
//  623             ClrScreen();                        
        ; Setup parameters for call to function ClrScreen
        LCALL   ?Subroutine5 & 0xFFFF
//  624             PutString_cn(24,0,"网络协调器");
//  625             PutString_cn(0,16,"---------------");
//  626             PutString_cn(4,32,"新节点加入");
??CrossCallReturnLabel_1:
        ; Setup parameters for call to function PutString_cn
        MOV     R4,#`?<Constant "\\320\\302\\275\\332\\265\\343\\274\\323\\3` & 0xff
        MOV     R5,#(`?<Constant "\\320\\302\\275\\332\\265\\343\\274\\323\\3` >> 8) & 0xff
        MOV     R2,#0x20
        MOV     R1,#0x4
        LCALL   ??PutString_cn?relay
//  627             HalLcdWriteStringValue( "Short Addr:",addr, 16, HAL_LCD_LINE_4);                                 
        ; Setup parameters for call to function HalLcdWriteStringValue
        MOV     ?V0 + 0,#0x4
        MOV     R0,#?V0 + 0
        LCALL   ?PUSH_XSTACK_I_ONE
        CFI CFA_XSP16 add(XSP16, 19)
        MOV     R1,#0x10
        MOV     R4,?V0 + 2
        MOV     R5,?V0 + 3
        MOV     R2,#`?<Constant "Short Addr:">` & 0xff
        MOV     R3,#(`?<Constant "Short Addr:">` >> 8) & 0xff
        LCALL   ??HalLcdWriteStringValue?relay
        MOV     A,#0x1
        LCALL   ?DEALLOC_XSTACK8
        CFI CFA_XSP16 add(XSP16, 18)
//  628         }                  
//  629         memcpy(pMsg->data, msg->Data, msg->DataLength);
??CoordinatorIncomingRoutine_1:
        MOV     DPL,?V0 + 4
        MOV     DPH,?V0 + 5
        INC     DPTR
        MOV     ?V0 + 0,DPL
        ; Setup parameters for call to function memcpy
        LCALL   ?PUSH_XSTACK8_X_TWO
        CFI CFA_XSP16 add(XSP16, 20)
        MOV     DPL,?V0 + 4
        MOV     DPH,?V0 + 5
        LCALL   ??Subroutine50_0 & 0xFFFF
??CrossCallReturnLabel_91:
        MOV     A,R6
        ADD     A,#0x9
        MOV     R2,A
        MOV     A,R7
        ADDC    A,#0x0
        MOV     R3,A
        LCALL   ??memcpy?relay
        MOV     A,#0x2
        LCALL   ?DEALLOC_XSTACK8
        CFI CFA_XSP16 add(XSP16, 18)
//  630         pMsg->fsc = MT_UartCalcFCS(0, &pMsg->len, 1);
        MOV     A,R6
        ADD     A,#0x2
        MOV     ?V0 + 2,A
        MOV     A,R7
        ADDC    A,#0x0
        MOV     ?V0 + 3,A
        ; Setup parameters for call to function MT_UartCalcFCS
        MOV     R4,#0x1
        MOV     R2,?V0 + 2
        MOV     R3,A
        MOV     R1,#0x0
        LCALL   ?Subroutine30 & 0xFFFF
??CrossCallReturnLabel_41:
        MOVX    @DPTR,A
//  631         pMsg->fsc = MT_UartCalcFCS(pMsg->fsc, pMsg->dataBody, pMsg->len);
        ; Setup parameters for call to function MT_UartCalcFCS
        MOV     DPL,?V0 + 2
        MOV     DPH,?V0 + 3
        MOVX    A,@DPTR
        MOV     R4,A
        MOV     A,R6
        ADD     A,#0x3
        MOV     R2,A
        MOV     A,R7
        ADDC    A,#0x0
        MOV     R3,A
        LCALL   ?Subroutine30 & 0xFFFF
??CrossCallReturnLabel_42:
        LCALL   ?Subroutine25 & 0xFFFF
//  632         #if (defined(PEER_COORD)||(PEER_ROUTER))//简单无线收发实验
//  633         HalUARTWrite(HAL_UART_PORT_0, &pMsg->data[0], 1);        
//  634         #else
//  635         HalUARTWrite(HAL_UART_PORT_0, &pMsg->sop, sizeof(mtUserSerialMsg_t) - 2 + msg->DataLength);    
??CrossCallReturnLabel_30:
        ADD     A,#0x8
        MOV     R4,A
        INC     DPTR
        MOVX    A,@DPTR
        ADDC    A,#0x0
        MOV     R5,A
        MOV     DPL,R6
        MOV     DPH,R7
        INC     DPTR
        MOV     R2,DPL
        MOV     R3,DPH
        MOV     R1,#0x0
        LCALL   ??HalUARTWrite?relay
//  636         Delay100us(20);  
        ; Setup parameters for call to function Delay100us
        MOV     R2,#0x14
        MOV     R3,#0x0
        LCALL   ??Delay100us?relay
//  637         HalUARTWrite(HAL_UART_PORT_0, &pMsg->fsc, 1);
        ; Setup parameters for call to function HalUARTWrite
        MOV     R4,#0x1
        MOV     R5,#0x0
        MOV     A,R6
        MOV     R2,A
        MOV     A,R7
        MOV     R3,A
        MOV     R1,#0x0
        LCALL   ??HalUARTWrite?relay
//  638         #endif
//  639         osal_mem_free(pMsg);
        ; Setup parameters for call to function osal_mem_free
        MOV     A,R6
        MOV     R2,A
        MOV     A,R7
        MOV     R3,A
        LCALL   ??osal_mem_free?relay
//  640     }
//  641 }
??CoordinatorIncomingRoutine_0:
        LJMP    ?Subroutine2 & 0xFFFF
        CFI EndBlock cfiBlock172

        RSEG BANKED_CODE:CODE:NOROOT(0)
?Subroutine30:
        CFI Block cfiCond173 Using cfiCommon0
        CFI NoFunction
        CFI Conditional ??CrossCallReturnLabel_41
        CFI R6 load(1, XDATA, add(CFA_XSP16, literal(-18)))
        CFI VB load(1, XDATA, add(CFA_XSP16, literal(-17)))
        CFI V0 load(1, XDATA, add(CFA_XSP16, literal(-16)))
        CFI V1 load(1, XDATA, add(CFA_XSP16, literal(-15)))
        CFI V2 load(1, XDATA, add(CFA_XSP16, literal(-14)))
        CFI V3 load(1, XDATA, add(CFA_XSP16, literal(-13)))
        CFI V4 load(1, XDATA, add(CFA_XSP16, literal(-12)))
        CFI V5 load(1, XDATA, add(CFA_XSP16, literal(-11)))
        CFI V6 load(1, XDATA, add(CFA_XSP16, literal(-10)))
        CFI V7 load(1, XDATA, add(CFA_XSP16, literal(-9)))
        CFI V8 load(1, XDATA, add(CFA_XSP16, literal(-8)))
        CFI V9 load(1, XDATA, add(CFA_XSP16, literal(-7)))
        CFI R7 load(1, XDATA, add(CFA_XSP16, literal(-6)))
        CFI ?RET_LOW load(1, XDATA, add(CFA_XSP16, literal(-5)))
        CFI ?RET_HIGH load(1, XDATA, add(CFA_XSP16, literal(-4)))
        CFI ?BRET_EXT load(1, XDATA, add(CFA_XSP16, literal(-3)))
        CFI DPL0 load(1, XDATA, add(CFA_XSP16, literal(-2)))
        CFI DPH0 load(1, XDATA, add(CFA_XSP16, literal(-1)))
        CFI CFA_SP SP+0
        CFI CFA_XSP16 add(XSP16, 18)
        CFI Block cfiCond174 Using cfiCommon0
        CFI (cfiCond174) NoFunction
        CFI (cfiCond174) Conditional ??CrossCallReturnLabel_42
        CFI (cfiCond174) R6 load(1, XDATA, add(CFA_XSP16, literal(-18)))
        CFI (cfiCond174) VB load(1, XDATA, add(CFA_XSP16, literal(-17)))
        CFI (cfiCond174) V0 load(1, XDATA, add(CFA_XSP16, literal(-16)))
        CFI (cfiCond174) V1 load(1, XDATA, add(CFA_XSP16, literal(-15)))
        CFI (cfiCond174) V2 load(1, XDATA, add(CFA_XSP16, literal(-14)))
        CFI (cfiCond174) V3 load(1, XDATA, add(CFA_XSP16, literal(-13)))
        CFI (cfiCond174) V4 load(1, XDATA, add(CFA_XSP16, literal(-12)))
        CFI (cfiCond174) V5 load(1, XDATA, add(CFA_XSP16, literal(-11)))
        CFI (cfiCond174) V6 load(1, XDATA, add(CFA_XSP16, literal(-10)))
        CFI (cfiCond174) V7 load(1, XDATA, add(CFA_XSP16, literal(-9)))
        CFI (cfiCond174) V8 load(1, XDATA, add(CFA_XSP16, literal(-8)))
        CFI (cfiCond174) V9 load(1, XDATA, add(CFA_XSP16, literal(-7)))
        CFI (cfiCond174) R7 load(1, XDATA, add(CFA_XSP16, literal(-6)))
        CFI (cfiCond174) ?RET_LOW load(1, XDATA, add(CFA_XSP16, literal(-5)))
        CFI (cfiCond174) ?RET_HIGH load(1, XDATA, add(CFA_XSP16, literal(-4)))
        CFI (cfiCond174) ?BRET_EXT load(1, XDATA, add(CFA_XSP16, literal(-3)))
        CFI (cfiCond174) DPL0 load(1, XDATA, add(CFA_XSP16, literal(-2)))
        CFI (cfiCond174) DPH0 load(1, XDATA, add(CFA_XSP16, literal(-1)))
        CFI (cfiCond174) CFA_SP SP+0
        CFI (cfiCond174) CFA_XSP16 add(XSP16, 18)
        CFI Block cfiPicker175 Using cfiCommon1
        CFI (cfiPicker175) NoFunction
        CFI (cfiPicker175) Picker
        LCALL   ??MT_UartCalcFCS?relay
        MOV     A,R1
        MOV     DPL,R6
        MOV     DPH,R7
        RET
        CFI EndBlock cfiCond173
        CFI EndBlock cfiCond174
        CFI EndBlock cfiPicker175

        RSEG BANKED_CODE:CODE:NOROOT(0)
?Subroutine26:
        CFI Block cfiCond176 Using cfiCommon0
        CFI NoFunction
        CFI Conditional ??CrossCallReturnLabel_31
        CFI R6 load(1, XDATA, add(CFA_XSP16, literal(-18)))
        CFI VB load(1, XDATA, add(CFA_XSP16, literal(-17)))
        CFI V0 load(1, XDATA, add(CFA_XSP16, literal(-16)))
        CFI V1 load(1, XDATA, add(CFA_XSP16, literal(-15)))
        CFI V2 load(1, XDATA, add(CFA_XSP16, literal(-14)))
        CFI V3 load(1, XDATA, add(CFA_XSP16, literal(-13)))
        CFI V4 load(1, XDATA, add(CFA_XSP16, literal(-12)))
        CFI V5 load(1, XDATA, add(CFA_XSP16, literal(-11)))
        CFI V6 load(1, XDATA, add(CFA_XSP16, literal(-10)))
        CFI V7 load(1, XDATA, add(CFA_XSP16, literal(-9)))
        CFI V8 load(1, XDATA, add(CFA_XSP16, literal(-8)))
        CFI V9 load(1, XDATA, add(CFA_XSP16, literal(-7)))
        CFI R7 load(1, XDATA, add(CFA_XSP16, literal(-6)))
        CFI ?RET_LOW load(1, XDATA, add(CFA_XSP16, literal(-5)))
        CFI ?RET_HIGH load(1, XDATA, add(CFA_XSP16, literal(-4)))
        CFI ?BRET_EXT load(1, XDATA, add(CFA_XSP16, literal(-3)))
        CFI DPL0 load(1, XDATA, add(CFA_XSP16, literal(-2)))
        CFI DPH0 load(1, XDATA, add(CFA_XSP16, literal(-1)))
        CFI CFA_SP SP+0
        CFI CFA_XSP16 add(XSP16, 18)
        CFI Block cfiCond177 Using cfiCommon0
        CFI (cfiCond177) NoFunction
        CFI (cfiCond177) Conditional ??CrossCallReturnLabel_32
        CFI (cfiCond177) R6 load(1, XDATA, add(CFA_XSP16, literal(-18)))
        CFI (cfiCond177) VB load(1, XDATA, add(CFA_XSP16, literal(-17)))
        CFI (cfiCond177) V0 load(1, XDATA, add(CFA_XSP16, literal(-16)))
        CFI (cfiCond177) V1 load(1, XDATA, add(CFA_XSP16, literal(-15)))
        CFI (cfiCond177) V2 load(1, XDATA, add(CFA_XSP16, literal(-14)))
        CFI (cfiCond177) V3 load(1, XDATA, add(CFA_XSP16, literal(-13)))
        CFI (cfiCond177) V4 load(1, XDATA, add(CFA_XSP16, literal(-12)))
        CFI (cfiCond177) V5 load(1, XDATA, add(CFA_XSP16, literal(-11)))
        CFI (cfiCond177) V6 load(1, XDATA, add(CFA_XSP16, literal(-10)))
        CFI (cfiCond177) V7 load(1, XDATA, add(CFA_XSP16, literal(-9)))
        CFI (cfiCond177) V8 load(1, XDATA, add(CFA_XSP16, literal(-8)))
        CFI (cfiCond177) V9 load(1, XDATA, add(CFA_XSP16, literal(-7)))
        CFI (cfiCond177) R7 load(1, XDATA, add(CFA_XSP16, literal(-6)))
        CFI (cfiCond177) ?RET_LOW load(1, XDATA, add(CFA_XSP16, literal(-5)))
        CFI (cfiCond177) ?RET_HIGH load(1, XDATA, add(CFA_XSP16, literal(-4)))
        CFI (cfiCond177) ?BRET_EXT load(1, XDATA, add(CFA_XSP16, literal(-3)))
        CFI (cfiCond177) DPL0 load(1, XDATA, add(CFA_XSP16, literal(-2)))
        CFI (cfiCond177) DPH0 load(1, XDATA, add(CFA_XSP16, literal(-1)))
        CFI (cfiCond177) CFA_SP SP+0
        CFI (cfiCond177) CFA_XSP16 add(XSP16, 18)
        CFI Block cfiPicker178 Using cfiCommon1
        CFI (cfiPicker178) NoFunction
        CFI (cfiPicker178) Picker
        LCALL   ?Subroutine35 & 0xFFFF
??CrossCallReturnLabel_49:
        RET
        CFI EndBlock cfiCond176
        CFI EndBlock cfiCond177
        CFI EndBlock cfiPicker178

        RSEG BANKED_CODE:CODE:NOROOT(0)
?Subroutine35:
        CFI Block cfiCond179 Using cfiCommon0
        CFI NoFunction
        CFI Conditional ??CrossCallReturnLabel_49, ??CrossCallReturnLabel_31
        CFI R6 load(1, XDATA, add(CFA_XSP16, literal(-18)))
        CFI VB load(1, XDATA, add(CFA_XSP16, literal(-17)))
        CFI V0 load(1, XDATA, add(CFA_XSP16, literal(-16)))
        CFI V1 load(1, XDATA, add(CFA_XSP16, literal(-15)))
        CFI V2 load(1, XDATA, add(CFA_XSP16, literal(-14)))
        CFI V3 load(1, XDATA, add(CFA_XSP16, literal(-13)))
        CFI V4 load(1, XDATA, add(CFA_XSP16, literal(-12)))
        CFI V5 load(1, XDATA, add(CFA_XSP16, literal(-11)))
        CFI V6 load(1, XDATA, add(CFA_XSP16, literal(-10)))
        CFI V7 load(1, XDATA, add(CFA_XSP16, literal(-9)))
        CFI V8 load(1, XDATA, add(CFA_XSP16, literal(-8)))
        CFI V9 load(1, XDATA, add(CFA_XSP16, literal(-7)))
        CFI R7 load(1, XDATA, add(CFA_XSP16, literal(-6)))
        CFI ?RET_LOW load(1, XDATA, add(CFA_XSP16, literal(-5)))
        CFI ?RET_HIGH load(1, XDATA, add(CFA_XSP16, literal(-4)))
        CFI ?BRET_EXT load(1, XDATA, add(CFA_XSP16, literal(-3)))
        CFI DPL0 load(1, XDATA, add(CFA_XSP16, literal(-2)))
        CFI DPH0 load(1, XDATA, add(CFA_XSP16, literal(-1)))
        CFI CFA_SP SP+0
        CFI CFA_XSP16 add(XSP16, 18)
        CFI Block cfiCond180 Using cfiCommon0
        CFI (cfiCond180) NoFunction
        CFI (cfiCond180) Conditional ??CrossCallReturnLabel_49, ??CrossCallReturnLabel_32
        CFI (cfiCond180) R6 load(1, XDATA, add(CFA_XSP16, literal(-18)))
        CFI (cfiCond180) VB load(1, XDATA, add(CFA_XSP16, literal(-17)))
        CFI (cfiCond180) V0 load(1, XDATA, add(CFA_XSP16, literal(-16)))
        CFI (cfiCond180) V1 load(1, XDATA, add(CFA_XSP16, literal(-15)))
        CFI (cfiCond180) V2 load(1, XDATA, add(CFA_XSP16, literal(-14)))
        CFI (cfiCond180) V3 load(1, XDATA, add(CFA_XSP16, literal(-13)))
        CFI (cfiCond180) V4 load(1, XDATA, add(CFA_XSP16, literal(-12)))
        CFI (cfiCond180) V5 load(1, XDATA, add(CFA_XSP16, literal(-11)))
        CFI (cfiCond180) V6 load(1, XDATA, add(CFA_XSP16, literal(-10)))
        CFI (cfiCond180) V7 load(1, XDATA, add(CFA_XSP16, literal(-9)))
        CFI (cfiCond180) V8 load(1, XDATA, add(CFA_XSP16, literal(-8)))
        CFI (cfiCond180) V9 load(1, XDATA, add(CFA_XSP16, literal(-7)))
        CFI (cfiCond180) R7 load(1, XDATA, add(CFA_XSP16, literal(-6)))
        CFI (cfiCond180) ?RET_LOW load(1, XDATA, add(CFA_XSP16, literal(-5)))
        CFI (cfiCond180) ?RET_HIGH load(1, XDATA, add(CFA_XSP16, literal(-4)))
        CFI (cfiCond180) ?BRET_EXT load(1, XDATA, add(CFA_XSP16, literal(-3)))
        CFI (cfiCond180) DPL0 load(1, XDATA, add(CFA_XSP16, literal(-2)))
        CFI (cfiCond180) DPH0 load(1, XDATA, add(CFA_XSP16, literal(-1)))
        CFI (cfiCond180) CFA_SP SP+0
        CFI (cfiCond180) CFA_XSP16 add(XSP16, 18)
        CFI Block cfiCond181 Using cfiCommon0
        CFI (cfiCond181) NoFunction
        CFI (cfiCond181) Conditional ??CrossCallReturnLabel_50, ??CrossCallReturnLabel_25
        CFI (cfiCond181) R6 load(1, XDATA, add(CFA_XSP16, literal(-18)))
        CFI (cfiCond181) VB load(1, XDATA, add(CFA_XSP16, literal(-17)))
        CFI (cfiCond181) V0 load(1, XDATA, add(CFA_XSP16, literal(-16)))
        CFI (cfiCond181) V1 load(1, XDATA, add(CFA_XSP16, literal(-15)))
        CFI (cfiCond181) V2 load(1, XDATA, add(CFA_XSP16, literal(-14)))
        CFI (cfiCond181) V3 load(1, XDATA, add(CFA_XSP16, literal(-13)))
        CFI (cfiCond181) V4 load(1, XDATA, add(CFA_XSP16, literal(-12)))
        CFI (cfiCond181) V5 load(1, XDATA, add(CFA_XSP16, literal(-11)))
        CFI (cfiCond181) V6 load(1, XDATA, add(CFA_XSP16, literal(-10)))
        CFI (cfiCond181) V7 load(1, XDATA, add(CFA_XSP16, literal(-9)))
        CFI (cfiCond181) V8 load(1, XDATA, add(CFA_XSP16, literal(-8)))
        CFI (cfiCond181) V9 load(1, XDATA, add(CFA_XSP16, literal(-7)))
        CFI (cfiCond181) R7 load(1, XDATA, add(CFA_XSP16, literal(-6)))
        CFI (cfiCond181) ?RET_LOW load(1, XDATA, add(CFA_XSP16, literal(-5)))
        CFI (cfiCond181) ?RET_HIGH load(1, XDATA, add(CFA_XSP16, literal(-4)))
        CFI (cfiCond181) ?BRET_EXT load(1, XDATA, add(CFA_XSP16, literal(-3)))
        CFI (cfiCond181) DPL0 load(1, XDATA, add(CFA_XSP16, literal(-2)))
        CFI (cfiCond181) DPH0 load(1, XDATA, add(CFA_XSP16, literal(-1)))
        CFI (cfiCond181) CFA_SP SP+0
        CFI (cfiCond181) CFA_XSP16 add(XSP16, 18)
        CFI Block cfiCond182 Using cfiCommon0
        CFI (cfiCond182) NoFunction
        CFI (cfiCond182) Conditional ??CrossCallReturnLabel_50, ??CrossCallReturnLabel_26
        CFI (cfiCond182) R6 load(1, XDATA, add(CFA_XSP16, literal(-18)))
        CFI (cfiCond182) VB load(1, XDATA, add(CFA_XSP16, literal(-17)))
        CFI (cfiCond182) V0 load(1, XDATA, add(CFA_XSP16, literal(-16)))
        CFI (cfiCond182) V1 load(1, XDATA, add(CFA_XSP16, literal(-15)))
        CFI (cfiCond182) V2 load(1, XDATA, add(CFA_XSP16, literal(-14)))
        CFI (cfiCond182) V3 load(1, XDATA, add(CFA_XSP16, literal(-13)))
        CFI (cfiCond182) V4 load(1, XDATA, add(CFA_XSP16, literal(-12)))
        CFI (cfiCond182) V5 load(1, XDATA, add(CFA_XSP16, literal(-11)))
        CFI (cfiCond182) V6 load(1, XDATA, add(CFA_XSP16, literal(-10)))
        CFI (cfiCond182) V7 load(1, XDATA, add(CFA_XSP16, literal(-9)))
        CFI (cfiCond182) V8 load(1, XDATA, add(CFA_XSP16, literal(-8)))
        CFI (cfiCond182) V9 load(1, XDATA, add(CFA_XSP16, literal(-7)))
        CFI (cfiCond182) R7 load(1, XDATA, add(CFA_XSP16, literal(-6)))
        CFI (cfiCond182) ?RET_LOW load(1, XDATA, add(CFA_XSP16, literal(-5)))
        CFI (cfiCond182) ?RET_HIGH load(1, XDATA, add(CFA_XSP16, literal(-4)))
        CFI (cfiCond182) ?BRET_EXT load(1, XDATA, add(CFA_XSP16, literal(-3)))
        CFI (cfiCond182) DPL0 load(1, XDATA, add(CFA_XSP16, literal(-2)))
        CFI (cfiCond182) DPH0 load(1, XDATA, add(CFA_XSP16, literal(-1)))
        CFI (cfiCond182) CFA_SP SP+0
        CFI (cfiCond182) CFA_XSP16 add(XSP16, 18)
        CFI Block cfiPicker183 Using cfiCommon1
        CFI (cfiPicker183) NoFunction
        CFI (cfiPicker183) Picker
        MOVX    @DPTR,A
        MOV     DPL,R6
        MOV     DPH,R7
        INC     DPTR
        INC     DPTR
        INC     DPTR
        RET
        CFI EndBlock cfiCond179
        CFI EndBlock cfiCond180
        CFI EndBlock cfiCond181
        CFI EndBlock cfiCond182
        CFI EndBlock cfiPicker183

        RSEG BANKED_CODE:CODE:NOROOT(0)
?Subroutine25:
        CFI Block cfiCond184 Using cfiCommon0
        CFI NoFunction
        CFI Conditional ??CrossCallReturnLabel_29
        CFI R6 load(1, XDATA, add(CFA_XSP16, literal(-18)))
        CFI VB load(1, XDATA, add(CFA_XSP16, literal(-17)))
        CFI V0 load(1, XDATA, add(CFA_XSP16, literal(-16)))
        CFI V1 load(1, XDATA, add(CFA_XSP16, literal(-15)))
        CFI V2 load(1, XDATA, add(CFA_XSP16, literal(-14)))
        CFI V3 load(1, XDATA, add(CFA_XSP16, literal(-13)))
        CFI V4 load(1, XDATA, add(CFA_XSP16, literal(-12)))
        CFI V5 load(1, XDATA, add(CFA_XSP16, literal(-11)))
        CFI V6 load(1, XDATA, add(CFA_XSP16, literal(-10)))
        CFI V7 load(1, XDATA, add(CFA_XSP16, literal(-9)))
        CFI V8 load(1, XDATA, add(CFA_XSP16, literal(-8)))
        CFI V9 load(1, XDATA, add(CFA_XSP16, literal(-7)))
        CFI R7 load(1, XDATA, add(CFA_XSP16, literal(-6)))
        CFI ?RET_LOW load(1, XDATA, add(CFA_XSP16, literal(-5)))
        CFI ?RET_HIGH load(1, XDATA, add(CFA_XSP16, literal(-4)))
        CFI ?BRET_EXT load(1, XDATA, add(CFA_XSP16, literal(-3)))
        CFI DPL0 load(1, XDATA, add(CFA_XSP16, literal(-2)))
        CFI DPH0 load(1, XDATA, add(CFA_XSP16, literal(-1)))
        CFI CFA_SP SP+0
        CFI CFA_XSP16 add(XSP16, 18)
        CFI Block cfiCond185 Using cfiCommon0
        CFI (cfiCond185) NoFunction
        CFI (cfiCond185) Conditional ??CrossCallReturnLabel_30
        CFI (cfiCond185) R6 load(1, XDATA, add(CFA_XSP16, literal(-18)))
        CFI (cfiCond185) VB load(1, XDATA, add(CFA_XSP16, literal(-17)))
        CFI (cfiCond185) V0 load(1, XDATA, add(CFA_XSP16, literal(-16)))
        CFI (cfiCond185) V1 load(1, XDATA, add(CFA_XSP16, literal(-15)))
        CFI (cfiCond185) V2 load(1, XDATA, add(CFA_XSP16, literal(-14)))
        CFI (cfiCond185) V3 load(1, XDATA, add(CFA_XSP16, literal(-13)))
        CFI (cfiCond185) V4 load(1, XDATA, add(CFA_XSP16, literal(-12)))
        CFI (cfiCond185) V5 load(1, XDATA, add(CFA_XSP16, literal(-11)))
        CFI (cfiCond185) V6 load(1, XDATA, add(CFA_XSP16, literal(-10)))
        CFI (cfiCond185) V7 load(1, XDATA, add(CFA_XSP16, literal(-9)))
        CFI (cfiCond185) V8 load(1, XDATA, add(CFA_XSP16, literal(-8)))
        CFI (cfiCond185) V9 load(1, XDATA, add(CFA_XSP16, literal(-7)))
        CFI (cfiCond185) R7 load(1, XDATA, add(CFA_XSP16, literal(-6)))
        CFI (cfiCond185) ?RET_LOW load(1, XDATA, add(CFA_XSP16, literal(-5)))
        CFI (cfiCond185) ?RET_HIGH load(1, XDATA, add(CFA_XSP16, literal(-4)))
        CFI (cfiCond185) ?BRET_EXT load(1, XDATA, add(CFA_XSP16, literal(-3)))
        CFI (cfiCond185) DPL0 load(1, XDATA, add(CFA_XSP16, literal(-2)))
        CFI (cfiCond185) DPH0 load(1, XDATA, add(CFA_XSP16, literal(-1)))
        CFI (cfiCond185) CFA_SP SP+0
        CFI (cfiCond185) CFA_XSP16 add(XSP16, 18)
        CFI Block cfiPicker186 Using cfiCommon1
        CFI (cfiPicker186) NoFunction
        CFI (cfiPicker186) Picker
        MOVX    @DPTR,A
        ; Setup parameters for call to function HalUARTWrite
        MOV     DPL,?V0 + 0
        MOV     DPH,?V0 + 1
        MOVX    A,@DPTR
        RET
        CFI EndBlock cfiCond184
        CFI EndBlock cfiCond185
        CFI EndBlock cfiPicker186

        RSEG BANKED_CODE:CODE:NOROOT(0)
?Subroutine22:
        CFI Block cfiCond187 Using cfiCommon0
        CFI NoFunction
        CFI Conditional ??CrossCallReturnLabel_25
        CFI R6 load(1, XDATA, add(CFA_XSP16, literal(-18)))
        CFI VB load(1, XDATA, add(CFA_XSP16, literal(-17)))
        CFI V0 load(1, XDATA, add(CFA_XSP16, literal(-16)))
        CFI V1 load(1, XDATA, add(CFA_XSP16, literal(-15)))
        CFI V2 load(1, XDATA, add(CFA_XSP16, literal(-14)))
        CFI V3 load(1, XDATA, add(CFA_XSP16, literal(-13)))
        CFI V4 load(1, XDATA, add(CFA_XSP16, literal(-12)))
        CFI V5 load(1, XDATA, add(CFA_XSP16, literal(-11)))
        CFI V6 load(1, XDATA, add(CFA_XSP16, literal(-10)))
        CFI V7 load(1, XDATA, add(CFA_XSP16, literal(-9)))
        CFI V8 load(1, XDATA, add(CFA_XSP16, literal(-8)))
        CFI V9 load(1, XDATA, add(CFA_XSP16, literal(-7)))
        CFI R7 load(1, XDATA, add(CFA_XSP16, literal(-6)))
        CFI ?RET_LOW load(1, XDATA, add(CFA_XSP16, literal(-5)))
        CFI ?RET_HIGH load(1, XDATA, add(CFA_XSP16, literal(-4)))
        CFI ?BRET_EXT load(1, XDATA, add(CFA_XSP16, literal(-3)))
        CFI DPL0 load(1, XDATA, add(CFA_XSP16, literal(-2)))
        CFI DPH0 load(1, XDATA, add(CFA_XSP16, literal(-1)))
        CFI CFA_SP SP+0
        CFI CFA_XSP16 add(XSP16, 18)
        CFI Block cfiCond188 Using cfiCommon0
        CFI (cfiCond188) NoFunction
        CFI (cfiCond188) Conditional ??CrossCallReturnLabel_26
        CFI (cfiCond188) R6 load(1, XDATA, add(CFA_XSP16, literal(-18)))
        CFI (cfiCond188) VB load(1, XDATA, add(CFA_XSP16, literal(-17)))
        CFI (cfiCond188) V0 load(1, XDATA, add(CFA_XSP16, literal(-16)))
        CFI (cfiCond188) V1 load(1, XDATA, add(CFA_XSP16, literal(-15)))
        CFI (cfiCond188) V2 load(1, XDATA, add(CFA_XSP16, literal(-14)))
        CFI (cfiCond188) V3 load(1, XDATA, add(CFA_XSP16, literal(-13)))
        CFI (cfiCond188) V4 load(1, XDATA, add(CFA_XSP16, literal(-12)))
        CFI (cfiCond188) V5 load(1, XDATA, add(CFA_XSP16, literal(-11)))
        CFI (cfiCond188) V6 load(1, XDATA, add(CFA_XSP16, literal(-10)))
        CFI (cfiCond188) V7 load(1, XDATA, add(CFA_XSP16, literal(-9)))
        CFI (cfiCond188) V8 load(1, XDATA, add(CFA_XSP16, literal(-8)))
        CFI (cfiCond188) V9 load(1, XDATA, add(CFA_XSP16, literal(-7)))
        CFI (cfiCond188) R7 load(1, XDATA, add(CFA_XSP16, literal(-6)))
        CFI (cfiCond188) ?RET_LOW load(1, XDATA, add(CFA_XSP16, literal(-5)))
        CFI (cfiCond188) ?RET_HIGH load(1, XDATA, add(CFA_XSP16, literal(-4)))
        CFI (cfiCond188) ?BRET_EXT load(1, XDATA, add(CFA_XSP16, literal(-3)))
        CFI (cfiCond188) DPL0 load(1, XDATA, add(CFA_XSP16, literal(-2)))
        CFI (cfiCond188) DPH0 load(1, XDATA, add(CFA_XSP16, literal(-1)))
        CFI (cfiCond188) CFA_SP SP+0
        CFI (cfiCond188) CFA_XSP16 add(XSP16, 18)
        CFI Block cfiPicker189 Using cfiCommon1
        CFI (cfiPicker189) NoFunction
        CFI (cfiPicker189) Picker
        LCALL   ?Subroutine35 & 0xFFFF
??CrossCallReturnLabel_50:
        INC     DPTR
        INC     DPTR
        INC     DPTR
        RET
        CFI EndBlock cfiCond187
        CFI EndBlock cfiCond188
        CFI EndBlock cfiPicker189

        RSEG BANKED_CODE:CODE:NOROOT(0)
?Subroutine5:
        CFI Block cfiCond190 Using cfiCommon0
        CFI NoFunction
        CFI Conditional ??CrossCallReturnLabel_0
        CFI R6 load(1, XDATA, add(CFA_XSP16, literal(-16)))
        CFI VB load(1, XDATA, add(CFA_XSP16, literal(-15)))
        CFI V0 load(1, XDATA, add(CFA_XSP16, literal(-14)))
        CFI V1 load(1, XDATA, add(CFA_XSP16, literal(-13)))
        CFI V2 load(1, XDATA, add(CFA_XSP16, literal(-12)))
        CFI V3 load(1, XDATA, add(CFA_XSP16, literal(-11)))
        CFI V4 load(1, XDATA, add(CFA_XSP16, literal(-10)))
        CFI V5 load(1, XDATA, add(CFA_XSP16, literal(-9)))
        CFI V6 load(1, XDATA, add(CFA_XSP16, literal(-8)))
        CFI V7 load(1, XDATA, add(CFA_XSP16, literal(-7)))
        CFI R7 load(1, XDATA, add(CFA_XSP16, literal(-6)))
        CFI ?RET_LOW load(1, XDATA, add(CFA_XSP16, literal(-5)))
        CFI ?RET_HIGH load(1, XDATA, add(CFA_XSP16, literal(-4)))
        CFI ?BRET_EXT load(1, XDATA, add(CFA_XSP16, literal(-3)))
        CFI DPL0 load(1, XDATA, add(CFA_XSP16, literal(-2)))
        CFI DPH0 load(1, XDATA, add(CFA_XSP16, literal(-1)))
        CFI CFA_SP SP+0
        CFI CFA_XSP16 add(XSP16, 19)
        CFI Block cfiCond191 Using cfiCommon0
        CFI (cfiCond191) NoFunction
        CFI (cfiCond191) Conditional ??CrossCallReturnLabel_1
        CFI (cfiCond191) R6 load(1, XDATA, add(CFA_XSP16, literal(-18)))
        CFI (cfiCond191) VB load(1, XDATA, add(CFA_XSP16, literal(-17)))
        CFI (cfiCond191) V0 load(1, XDATA, add(CFA_XSP16, literal(-16)))
        CFI (cfiCond191) V1 load(1, XDATA, add(CFA_XSP16, literal(-15)))
        CFI (cfiCond191) V2 load(1, XDATA, add(CFA_XSP16, literal(-14)))
        CFI (cfiCond191) V3 load(1, XDATA, add(CFA_XSP16, literal(-13)))
        CFI (cfiCond191) V4 load(1, XDATA, add(CFA_XSP16, literal(-12)))
        CFI (cfiCond191) V5 load(1, XDATA, add(CFA_XSP16, literal(-11)))
        CFI (cfiCond191) V6 load(1, XDATA, add(CFA_XSP16, literal(-10)))
        CFI (cfiCond191) V7 load(1, XDATA, add(CFA_XSP16, literal(-9)))
        CFI (cfiCond191) V8 load(1, XDATA, add(CFA_XSP16, literal(-8)))
        CFI (cfiCond191) V9 load(1, XDATA, add(CFA_XSP16, literal(-7)))
        CFI (cfiCond191) R7 load(1, XDATA, add(CFA_XSP16, literal(-6)))
        CFI (cfiCond191) ?RET_LOW load(1, XDATA, add(CFA_XSP16, literal(-5)))
        CFI (cfiCond191) ?RET_HIGH load(1, XDATA, add(CFA_XSP16, literal(-4)))
        CFI (cfiCond191) ?BRET_EXT load(1, XDATA, add(CFA_XSP16, literal(-3)))
        CFI (cfiCond191) DPL0 load(1, XDATA, add(CFA_XSP16, literal(-2)))
        CFI (cfiCond191) DPH0 load(1, XDATA, add(CFA_XSP16, literal(-1)))
        CFI (cfiCond191) CFA_SP SP+0
        CFI (cfiCond191) CFA_XSP16 add(XSP16, 18)
        CFI Block cfiPicker192 Using cfiCommon1
        CFI (cfiPicker192) NoFunction
        CFI (cfiPicker192) Picker
        LCALL   ?Subroutine31 & 0xFFFF
??CrossCallReturnLabel_44:
        ; Setup parameters for call to function PutString_cn
        ; Setup parameters for call to function PutString_cn
        MOV     R4,#`?<Constant "---------------">` & 0xff
        MOV     R5,#(`?<Constant "---------------">` >> 8) & 0xff
        MOV     R2,#0x10
        MOV     R1,#0x0
        LCALL   ??PutString_cn?relay
        RET
        CFI EndBlock cfiCond190
        CFI EndBlock cfiCond191
        CFI EndBlock cfiPicker192

        RSEG BANKED_CODE:CODE:NOROOT(0)
?Subroutine31:
        CFI Block cfiCond193 Using cfiCommon0
        CFI NoFunction
        CFI Conditional ??CrossCallReturnLabel_43
        CFI R6 load(1, XDATA, add(CFA_XSP16, literal(-16)))
        CFI VB load(1, XDATA, add(CFA_XSP16, literal(-15)))
        CFI V0 load(1, XDATA, add(CFA_XSP16, literal(-14)))
        CFI V1 load(1, XDATA, add(CFA_XSP16, literal(-13)))
        CFI V2 load(1, XDATA, add(CFA_XSP16, literal(-12)))
        CFI V3 load(1, XDATA, add(CFA_XSP16, literal(-11)))
        CFI V4 load(1, XDATA, add(CFA_XSP16, literal(-10)))
        CFI V5 load(1, XDATA, add(CFA_XSP16, literal(-9)))
        CFI V6 load(1, XDATA, add(CFA_XSP16, literal(-8)))
        CFI V7 load(1, XDATA, add(CFA_XSP16, literal(-7)))
        CFI R7 load(1, XDATA, add(CFA_XSP16, literal(-6)))
        CFI ?RET_LOW load(1, XDATA, add(CFA_XSP16, literal(-5)))
        CFI ?RET_HIGH load(1, XDATA, add(CFA_XSP16, literal(-4)))
        CFI ?BRET_EXT load(1, XDATA, add(CFA_XSP16, literal(-3)))
        CFI DPL0 load(1, XDATA, add(CFA_XSP16, literal(-2)))
        CFI DPH0 load(1, XDATA, add(CFA_XSP16, literal(-1)))
        CFI CFA_SP SP+0
        CFI CFA_XSP16 add(XSP16, 19)
        CFI Block cfiCond194 Using cfiCommon0
        CFI (cfiCond194) NoFunction
        CFI (cfiCond194) Conditional ??CrossCallReturnLabel_44, ??CrossCallReturnLabel_0
        CFI (cfiCond194) R6 load(1, XDATA, add(CFA_XSP16, literal(-16)))
        CFI (cfiCond194) VB load(1, XDATA, add(CFA_XSP16, literal(-15)))
        CFI (cfiCond194) V0 load(1, XDATA, add(CFA_XSP16, literal(-14)))
        CFI (cfiCond194) V1 load(1, XDATA, add(CFA_XSP16, literal(-13)))
        CFI (cfiCond194) V2 load(1, XDATA, add(CFA_XSP16, literal(-12)))
        CFI (cfiCond194) V3 load(1, XDATA, add(CFA_XSP16, literal(-11)))
        CFI (cfiCond194) V4 load(1, XDATA, add(CFA_XSP16, literal(-10)))
        CFI (cfiCond194) V5 load(1, XDATA, add(CFA_XSP16, literal(-9)))
        CFI (cfiCond194) V6 load(1, XDATA, add(CFA_XSP16, literal(-8)))
        CFI (cfiCond194) V7 load(1, XDATA, add(CFA_XSP16, literal(-7)))
        CFI (cfiCond194) R7 load(1, XDATA, add(CFA_XSP16, literal(-6)))
        CFI (cfiCond194) ?RET_LOW load(1, XDATA, add(CFA_XSP16, literal(-5)))
        CFI (cfiCond194) ?RET_HIGH load(1, XDATA, add(CFA_XSP16, literal(-4)))
        CFI (cfiCond194) ?BRET_EXT load(1, XDATA, add(CFA_XSP16, literal(-3)))
        CFI (cfiCond194) DPL0 load(1, XDATA, add(CFA_XSP16, literal(-2)))
        CFI (cfiCond194) DPH0 load(1, XDATA, add(CFA_XSP16, literal(-1)))
        CFI (cfiCond194) CFA_SP SP+0
        CFI (cfiCond194) CFA_XSP16 add(XSP16, 19)
        CFI Block cfiCond195 Using cfiCommon0
        CFI (cfiCond195) NoFunction
        CFI (cfiCond195) Conditional ??CrossCallReturnLabel_44, ??CrossCallReturnLabel_1
        CFI (cfiCond195) R6 load(1, XDATA, add(CFA_XSP16, literal(-18)))
        CFI (cfiCond195) VB load(1, XDATA, add(CFA_XSP16, literal(-17)))
        CFI (cfiCond195) V0 load(1, XDATA, add(CFA_XSP16, literal(-16)))
        CFI (cfiCond195) V1 load(1, XDATA, add(CFA_XSP16, literal(-15)))
        CFI (cfiCond195) V2 load(1, XDATA, add(CFA_XSP16, literal(-14)))
        CFI (cfiCond195) V3 load(1, XDATA, add(CFA_XSP16, literal(-13)))
        CFI (cfiCond195) V4 load(1, XDATA, add(CFA_XSP16, literal(-12)))
        CFI (cfiCond195) V5 load(1, XDATA, add(CFA_XSP16, literal(-11)))
        CFI (cfiCond195) V6 load(1, XDATA, add(CFA_XSP16, literal(-10)))
        CFI (cfiCond195) V7 load(1, XDATA, add(CFA_XSP16, literal(-9)))
        CFI (cfiCond195) V8 load(1, XDATA, add(CFA_XSP16, literal(-8)))
        CFI (cfiCond195) V9 load(1, XDATA, add(CFA_XSP16, literal(-7)))
        CFI (cfiCond195) R7 load(1, XDATA, add(CFA_XSP16, literal(-6)))
        CFI (cfiCond195) ?RET_LOW load(1, XDATA, add(CFA_XSP16, literal(-5)))
        CFI (cfiCond195) ?RET_HIGH load(1, XDATA, add(CFA_XSP16, literal(-4)))
        CFI (cfiCond195) ?BRET_EXT load(1, XDATA, add(CFA_XSP16, literal(-3)))
        CFI (cfiCond195) DPL0 load(1, XDATA, add(CFA_XSP16, literal(-2)))
        CFI (cfiCond195) DPH0 load(1, XDATA, add(CFA_XSP16, literal(-1)))
        CFI (cfiCond195) CFA_SP SP+0
        CFI (cfiCond195) CFA_XSP16 add(XSP16, 18)
        CFI Block cfiPicker196 Using cfiCommon1
        CFI (cfiPicker196) NoFunction
        CFI (cfiPicker196) Picker
        LCALL   ??ClrScreen?relay
        ; Setup parameters for call to function PutString_cn
        ; Setup parameters for call to function PutString_cn
        ; Setup parameters for call to function PutString_cn
        MOV     R4,#`?<Constant "\\315\\370\\302\\347\\320\\255\\265\\367\\3` & 0xff
        MOV     R5,#(`?<Constant "\\315\\370\\302\\347\\320\\255\\265\\367\\3` >> 8) & 0xff
        MOV     R2,#0x0
        MOV     R1,#0x18
        LCALL   ??PutString_cn?relay
        RET
        CFI EndBlock cfiCond193
        CFI EndBlock cfiCond194
        CFI EndBlock cfiCond195
        CFI EndBlock cfiPicker196
//  642 #elif defined(RTR_NWK) || defined(PEER_ROUTER) || defined(LIGHT)
//  643 #ifdef LIGHT
//  644 uint8 SegValue = 0;
//  645 bool MotorValue = 0;
//  646 extern const unsigned char seg7table[16];
//  647 #endif
//  648 void RouterIncomingRoutine(struct ep_info_t *ep, uint16 addr, uint8 endPoint, afMSGCommandFormat_t *msg)
//  649 {
//  650     //msg->Data[], msg->DataLength, msg->TransSeqNumber
//  651     // 转发数据到串口       
//  652     if(msg->DataLength > 0)
//  653     {                       
//  654         mtUserSerialMsg_t *pMsg = osal_mem_alloc(sizeof(mtUserSerialMsg_t) + msg->DataLength - 1);
//  655         pMsg->sop = MT_UART_SOF;
//  656         pMsg->len = msg->DataLength + 6;
//  657         pMsg->cmd = 0x46B9;
//  658         pMsg->cmdEndPoint = 0xF1;
//  659         pMsg->addr = addr;
//  660         SrcShortAddr = addr;//PeerToPeer时使用
//  661         pMsg->endPoint = endPoint;                
//  662         memcpy(pMsg->data, msg->Data, msg->DataLength);
//  663         pMsg->fsc = MT_UartCalcFCS(0, &pMsg->len, 1);
//  664         pMsg->fsc = MT_UartCalcFCS(pMsg->fsc, pMsg->dataBody, pMsg->len);
//  665         #if defined(PEER_ROUTER)//简单无线收发实验
//  666         HalUARTWrite(HAL_UART_PORT_0, &pMsg->data[0], 1);        
//  667         #elif  defined(LIGHT)//点对点或广播通信实验      
//  668         HalUARTWrite(HAL_UART_PORT_0, &pMsg->data[0], 1);
//  669         //数码管控制
//  670         Sensor_PIN_INT(7);
//  671         P0 |= (0x1<<4);  
//  672         SegValue++;
//  673         if(SegValue>0xf) SegValue=0;      
//  674         P1 =  seg7table[SegValue];
//  675         P0 &= ~(0x1<<4); 
//  676         
//  677         Sensor_PIN_INT(6);
//  678        MotorValue = !MotorValue;
//  679         if(MotorValue == 0)//模拟电机停止
//  680             P0 &= (~(0x1 << 6));
//  681 
//  682         if(MotorValue == 1)//模拟电机启动
//  683             P0 |= (0x1 << 6);            
//  684         #else
//  685         HalUARTWrite(HAL_UART_PORT_0, &pMsg->sop, sizeof(mtUserSerialMsg_t) - 2 + msg->DataLength);       
//  686         Delay100us(20);
//  687         HalUARTWrite(HAL_UART_PORT_0, &pMsg->fsc, 1);
//  688         #endif
//  689         osal_mem_free(pMsg);
//  690     }
//  691 }
//  692 #endif
//  693 

        RSEG BANKED_CODE:CODE:NOROOT(0)
//  694 void Delay100us(uint16 Num)
Delay100us:
        CFI Block cfiBlock197 Using cfiCommon0
        CFI Function Delay100us
        CODE
//  695 {
        ; Saved register size: 0
        ; Auto size: 0
//  696   uint16 i;
//  697   uint8 j;
//  698   for(i=0;i<Num;i++){  
        MOV     R0,#0x0
        MOV     R1,#0x0
        SJMP    ??Delay100us_0
//  699     for(j=0;j<120;j++){
??Delay100us_1:
        MOV     A,#0x78
//  700       asm("NOP");
??Delay100us_2:
        NOP
//  701       asm("NOP");
        NOP
//  702       asm("NOP");
        NOP
//  703       asm("NOP");
        NOP
//  704       asm("NOP");
        NOP
//  705       asm("NOP");
        NOP
//  706       asm("NOP");
        NOP
//  707       asm("NOP");
        NOP
//  708       asm("NOP");
        NOP
//  709       asm("NOP");
        NOP
//  710     }
        DEC     A
        JNZ     ??Delay100us_2
//  711   }    
        MOV     A,R0
        ADD     A,#0x1
        INC     R0
        MOV     A,R1
        ADDC    A,#0x0
        MOV     R1,A
??Delay100us_0:
        CLR     C
        MOV     A,R0
        SUBB    A,R2
        MOV     A,R1
        SUBB    A,R3
        JC      ??Delay100us_1
//  712 }
        LJMP    ?BRET
        CFI EndBlock cfiBlock197
//  713 
//  714 

        RSEG BANKED_CODE:CODE:NOROOT(0)
//  715 void SampleApp_MessageMSGCB( afIncomingMSGPacket_t *pckt )
SampleApp_MessageMSGCB:
        CFI Block cfiBlock198 Using cfiCommon0
        CFI Function SampleApp_MessageMSGCB
        CODE
//  716 {
        FUNCALL SampleApp_MessageMSGCB, osal_memset
        LOCFRAME ISTACK, 0, STACK
        LOCFRAME PSTACK, 0, STACK
        LOCFRAME XSTACK, 14, STACK
        LOCFRAME IOVERLAY, 0, STATIC
        LOCFRAME DOVERLAY, 0, STATIC
        ARGFRAME ISTACK, 0, STACK
        ARGFRAME PSTACK, 0, STACK
        ARGFRAME XSTACK, 14, STACK
        ARGFRAME IOVERLAY, 0, STATIC
        ARGFRAME DOVERLAY, 0, STATIC
        FUNCALL SampleApp_MessageMSGCB, osal_memcpy
        LOCFRAME ISTACK, 0, STACK
        LOCFRAME PSTACK, 0, STACK
        LOCFRAME XSTACK, 17, STACK
        LOCFRAME IOVERLAY, 0, STATIC
        LOCFRAME DOVERLAY, 0, STATIC
        ARGFRAME ISTACK, 0, STACK
        ARGFRAME PSTACK, 0, STACK
        ARGFRAME XSTACK, 17, STACK
        ARGFRAME IOVERLAY, 0, STATIC
        ARGFRAME DOVERLAY, 0, STATIC
        MOV     A,#-0xb
        LCALL   ?BANKED_ENTER_XDATA
        CFI DPH0 load(1, XDATA, add(CFA_XSP16, literal(-1)))
        CFI DPL0 load(1, XDATA, add(CFA_XSP16, literal(-2)))
        CFI ?BRET_EXT load(1, XDATA, add(CFA_XSP16, literal(-3)))
        CFI ?RET_HIGH load(1, XDATA, add(CFA_XSP16, literal(-4)))
        CFI ?RET_LOW load(1, XDATA, add(CFA_XSP16, literal(-5)))
        CFI R7 load(1, XDATA, add(CFA_XSP16, literal(-6)))
        CFI V2 load(1, XDATA, add(CFA_XSP16, literal(-7)))
        CFI V1 load(1, XDATA, add(CFA_XSP16, literal(-8)))
        CFI V0 load(1, XDATA, add(CFA_XSP16, literal(-9)))
        CFI VB load(1, XDATA, add(CFA_XSP16, literal(-10)))
        CFI R6 load(1, XDATA, add(CFA_XSP16, literal(-11)))
        CFI CFA_SP SP+0
        CFI CFA_XSP16 add(XSP16, 11)
        ; Saved register size: 11
        ; Auto size: 3
        MOV     A,#-0x3
        LCALL   ?ALLOC_XSTACK8
        CFI CFA_XSP16 add(XSP16, 14)
        LCALL   ?Subroutine14 & 0xFFFF
//  717  // unsigned char buf[3]; 
//  718   uint8 RCbf[3];
//  719   osal_memset(RCbf, 0 , 3);
//  720   osal_memcpy(RCbf, pckt->cmd.Data, 3);
??CrossCallReturnLabel_14:
        LCALL   ?PUSH_XSTACK_I_THREE
        CFI CFA_XSP16 add(XSP16, 17)
        MOV     R4,#0x3
        MOV     R5,#0x0
        MOV     A,R4
        LCALL   ?XSTACK_DISP0_8
        MOV     R2,DPL
        MOV     R3,DPH
        LCALL   ??osal_memcpy?relay
        MOV     A,#0x3
        LCALL   ?DEALLOC_XSTACK8
        CFI CFA_XSP16 add(XSP16, 14)
//  721   
//  722   switch ( pckt->clusterId )
        MOV     DPL,R6
        MOV     DPH,R7
        INC     DPTR
        INC     DPTR
        INC     DPTR
        INC     DPTR
        MOVX    A,@DPTR
        XRL     A,#0x1
        JNZ     ??SampleApp_MessageMSGCB_0
        INC     DPTR
        MOVX    A,@DPTR
??SampleApp_MessageMSGCB_0:
        JNZ     ??SampleApp_MessageMSGCB_1
//  723   {
//  724   case SAPP_PERIODIC_CLUSTERID:
//  725     if(pckt->endPoint <= funcCount)
        MOV     A,R6
        ADD     A,#0x14
        MOV     DPL,A
        MOV     A,R7
        LCALL   ??Subroutine47_0 & 0xFFFF
??CrossCallReturnLabel_81:
        MOV     R0,A
        MOV     DPTR,#funcCount
        MOVX    A,@DPTR
        CLR     C
        SUBB    A,R0
        JC      ??SampleApp_MessageMSGCB_1
//  726     {
//  727       struct ep_info_t *ep = &funcList[pckt->endPoint - 1];
        MOV     A,R6
        ADD     A,#0x14
        MOV     DPL,A
        MOV     A,R7
        LCALL   ??Subroutine47_0 & 0xFFFF
??CrossCallReturnLabel_82:
        MOV     B,#0x21
        MUL     AB
        MOV     R0,A
        MOV     R1,B
        MOV     A,#(funcList + 223) & 0xff
        ADD     A,R0
        MOV     R2,A
        MOV     A,#((funcList - 33) >> 8) & 0xff
        ADDC    A,R1
        MOV     R3,A
//  728       if(ep->incoming_data)
        MOV     DPL,R2
        MOV     DPH,R3
        LCALL   ??Subroutine39_0 & 0xFFFF
??CrossCallReturnLabel_57:
        JZ      ??SampleApp_MessageMSGCB_1
//  729         (*ep->incoming_data)(ep, pckt->srcAddr.addr.shortAddr, pckt->srcAddr.endPoint, &pckt->cmd);
        ; Setup parameters for indirect call
        MOV     A,R6
        ADD     A,#0x1f
        MOV     ?V0 + 0,A
        MOV     A,R7
        ADDC    A,#0x0
        MOV     ?V0 + 1,A
        MOV     R0,#?V0 + 0
        LCALL   ?PUSH_XSTACK_I_TWO
        CFI CFA_XSP16 add(XSP16, 16)
        MOV     A,R6
        ADD     A,#0xf
        MOV     DPL,A
        MOV     A,R7
        LCALL   ??Subroutine47_0 & 0xFFFF
//  730     }
//  731     break;
//  732   }
??CrossCallReturnLabel_83:
        MOV     R1,A
        MOV     DPL,R6
        MOV     DPH,R7
        LCALL   ??Subroutine48_0 & 0xFFFF
??CrossCallReturnLabel_93:
        MOV     DPL,R2
        MOV     DPH,R3
        INC     DPTR
        INC     DPTR
        LCALL   ??Subroutine43_0 & 0xFFFF
??CrossCallReturnLabel_70:
        LCALL   ?CALL_IND
        MOV     A,#0x2
        LCALL   ?DEALLOC_XSTACK8
        CFI CFA_XSP16 add(XSP16, 14)
        CFI EndBlock cfiBlock198
//  733 }
??SampleApp_MessageMSGCB_1:
        REQUIRE ?Subroutine4
        ; // Fall through to label ?Subroutine4

        RSEG BANKED_CODE:CODE:NOROOT(0)
?Subroutine4:
        CFI Block cfiBlock199 Using cfiCommon0
        CFI NoFunction
        CFI CFA_SP SP+0
        CFI CFA_XSP16 add(XSP16, 14)
        CFI VB load(1, XDATA, add(CFA_XSP16, literal(-10)))
        CFI DPL0 load(1, XDATA, add(CFA_XSP16, literal(-2)))
        CFI DPH0 load(1, XDATA, add(CFA_XSP16, literal(-1)))
        CFI R6 load(1, XDATA, add(CFA_XSP16, literal(-11)))
        CFI R7 load(1, XDATA, add(CFA_XSP16, literal(-6)))
        CFI V0 load(1, XDATA, add(CFA_XSP16, literal(-9)))
        CFI V1 load(1, XDATA, add(CFA_XSP16, literal(-8)))
        CFI V2 load(1, XDATA, add(CFA_XSP16, literal(-7)))
        CFI ?BRET_EXT load(1, XDATA, add(CFA_XSP16, literal(-3)))
        CFI ?RET_HIGH load(1, XDATA, add(CFA_XSP16, literal(-4)))
        CFI ?RET_LOW load(1, XDATA, add(CFA_XSP16, literal(-5)))
        MOV     A,#0x3
        LCALL   ?DEALLOC_XSTACK8
        CFI CFA_XSP16 add(XSP16, 11)
        MOV     R7,#0x3
        LJMP    ?BANKED_LEAVE_XDATA
        CFI EndBlock cfiBlock199

        RSEG BANKED_CODE:CODE:NOROOT(0)
?Subroutine16:
        CFI Block cfiCond200 Using cfiCommon0
        CFI NoFunction
        CFI Conditional ??CrossCallReturnLabel_85
        CFI R6 load(1, XDATA, add(CFA_XSP16, literal(-16)))
        CFI VB load(1, XDATA, add(CFA_XSP16, literal(-15)))
        CFI V0 load(1, XDATA, add(CFA_XSP16, literal(-14)))
        CFI V1 load(1, XDATA, add(CFA_XSP16, literal(-13)))
        CFI V2 load(1, XDATA, add(CFA_XSP16, literal(-12)))
        CFI V3 load(1, XDATA, add(CFA_XSP16, literal(-11)))
        CFI V4 load(1, XDATA, add(CFA_XSP16, literal(-10)))
        CFI V5 load(1, XDATA, add(CFA_XSP16, literal(-9)))
        CFI V6 load(1, XDATA, add(CFA_XSP16, literal(-8)))
        CFI V7 load(1, XDATA, add(CFA_XSP16, literal(-7)))
        CFI R7 load(1, XDATA, add(CFA_XSP16, literal(-6)))
        CFI ?RET_LOW load(1, XDATA, add(CFA_XSP16, literal(-5)))
        CFI ?RET_HIGH load(1, XDATA, add(CFA_XSP16, literal(-4)))
        CFI ?BRET_EXT load(1, XDATA, add(CFA_XSP16, literal(-3)))
        CFI DPL0 load(1, XDATA, add(CFA_XSP16, literal(-2)))
        CFI DPH0 load(1, XDATA, add(CFA_XSP16, literal(-1)))
        CFI CFA_SP SP+0
        CFI CFA_XSP16 add(XSP16, 19)
        CFI Block cfiCond201 Using cfiCommon0
        CFI (cfiCond201) NoFunction
        CFI (cfiCond201) Conditional ??CrossCallReturnLabel_86
        CFI (cfiCond201) R6 load(1, XDATA, add(CFA_XSP16, literal(-16)))
        CFI (cfiCond201) VB load(1, XDATA, add(CFA_XSP16, literal(-15)))
        CFI (cfiCond201) V0 load(1, XDATA, add(CFA_XSP16, literal(-14)))
        CFI (cfiCond201) V1 load(1, XDATA, add(CFA_XSP16, literal(-13)))
        CFI (cfiCond201) V2 load(1, XDATA, add(CFA_XSP16, literal(-12)))
        CFI (cfiCond201) V3 load(1, XDATA, add(CFA_XSP16, literal(-11)))
        CFI (cfiCond201) V4 load(1, XDATA, add(CFA_XSP16, literal(-10)))
        CFI (cfiCond201) V5 load(1, XDATA, add(CFA_XSP16, literal(-9)))
        CFI (cfiCond201) V6 load(1, XDATA, add(CFA_XSP16, literal(-8)))
        CFI (cfiCond201) V7 load(1, XDATA, add(CFA_XSP16, literal(-7)))
        CFI (cfiCond201) R7 load(1, XDATA, add(CFA_XSP16, literal(-6)))
        CFI (cfiCond201) ?RET_LOW load(1, XDATA, add(CFA_XSP16, literal(-5)))
        CFI (cfiCond201) ?RET_HIGH load(1, XDATA, add(CFA_XSP16, literal(-4)))
        CFI (cfiCond201) ?BRET_EXT load(1, XDATA, add(CFA_XSP16, literal(-3)))
        CFI (cfiCond201) DPL0 load(1, XDATA, add(CFA_XSP16, literal(-2)))
        CFI (cfiCond201) DPH0 load(1, XDATA, add(CFA_XSP16, literal(-1)))
        CFI (cfiCond201) CFA_SP SP+0
        CFI (cfiCond201) CFA_XSP16 add(XSP16, 19)
        CFI Block cfiPicker202 Using cfiCommon1
        CFI (cfiPicker202) NoFunction
        CFI (cfiPicker202) Picker
        MOV     A,R2
        ADD     A,#0xe
        CFI EndBlock cfiCond200
        CFI EndBlock cfiCond201
        CFI EndBlock cfiPicker202
        REQUIRE ??Subroutine46_0
        ; // Fall through to label ??Subroutine46_0

        RSEG BANKED_CODE:CODE:NOROOT(0)
??Subroutine46_0:
        CFI Block cfiCond203 Using cfiCommon0
        CFI NoFunction
        CFI Conditional ??CrossCallReturnLabel_84
        CFI DPL0 Frame(CFA_SP, 4)
        CFI DPH0 Frame(CFA_SP, 5)
        CFI CFA_SP SP+-5
        CFI Block cfiCond204 Using cfiCommon0
        CFI (cfiCond204) NoFunction
        CFI (cfiCond204) Conditional ??CrossCallReturnLabel_85
        CFI (cfiCond204) R6 load(1, XDATA, add(CFA_XSP16, literal(-16)))
        CFI (cfiCond204) VB load(1, XDATA, add(CFA_XSP16, literal(-15)))
        CFI (cfiCond204) V0 load(1, XDATA, add(CFA_XSP16, literal(-14)))
        CFI (cfiCond204) V1 load(1, XDATA, add(CFA_XSP16, literal(-13)))
        CFI (cfiCond204) V2 load(1, XDATA, add(CFA_XSP16, literal(-12)))
        CFI (cfiCond204) V3 load(1, XDATA, add(CFA_XSP16, literal(-11)))
        CFI (cfiCond204) V4 load(1, XDATA, add(CFA_XSP16, literal(-10)))
        CFI (cfiCond204) V5 load(1, XDATA, add(CFA_XSP16, literal(-9)))
        CFI (cfiCond204) V6 load(1, XDATA, add(CFA_XSP16, literal(-8)))
        CFI (cfiCond204) V7 load(1, XDATA, add(CFA_XSP16, literal(-7)))
        CFI (cfiCond204) R7 load(1, XDATA, add(CFA_XSP16, literal(-6)))
        CFI (cfiCond204) ?RET_LOW load(1, XDATA, add(CFA_XSP16, literal(-5)))
        CFI (cfiCond204) ?RET_HIGH load(1, XDATA, add(CFA_XSP16, literal(-4)))
        CFI (cfiCond204) ?BRET_EXT load(1, XDATA, add(CFA_XSP16, literal(-3)))
        CFI (cfiCond204) DPL0 load(1, XDATA, add(CFA_XSP16, literal(-2)))
        CFI (cfiCond204) DPH0 load(1, XDATA, add(CFA_XSP16, literal(-1)))
        CFI (cfiCond204) CFA_SP SP+0
        CFI (cfiCond204) CFA_XSP16 add(XSP16, 19)
        CFI Block cfiCond205 Using cfiCommon0
        CFI (cfiCond205) NoFunction
        CFI (cfiCond205) Conditional ??CrossCallReturnLabel_86
        CFI (cfiCond205) R6 load(1, XDATA, add(CFA_XSP16, literal(-16)))
        CFI (cfiCond205) VB load(1, XDATA, add(CFA_XSP16, literal(-15)))
        CFI (cfiCond205) V0 load(1, XDATA, add(CFA_XSP16, literal(-14)))
        CFI (cfiCond205) V1 load(1, XDATA, add(CFA_XSP16, literal(-13)))
        CFI (cfiCond205) V2 load(1, XDATA, add(CFA_XSP16, literal(-12)))
        CFI (cfiCond205) V3 load(1, XDATA, add(CFA_XSP16, literal(-11)))
        CFI (cfiCond205) V4 load(1, XDATA, add(CFA_XSP16, literal(-10)))
        CFI (cfiCond205) V5 load(1, XDATA, add(CFA_XSP16, literal(-9)))
        CFI (cfiCond205) V6 load(1, XDATA, add(CFA_XSP16, literal(-8)))
        CFI (cfiCond205) V7 load(1, XDATA, add(CFA_XSP16, literal(-7)))
        CFI (cfiCond205) R7 load(1, XDATA, add(CFA_XSP16, literal(-6)))
        CFI (cfiCond205) ?RET_LOW load(1, XDATA, add(CFA_XSP16, literal(-5)))
        CFI (cfiCond205) ?RET_HIGH load(1, XDATA, add(CFA_XSP16, literal(-4)))
        CFI (cfiCond205) ?BRET_EXT load(1, XDATA, add(CFA_XSP16, literal(-3)))
        CFI (cfiCond205) DPL0 load(1, XDATA, add(CFA_XSP16, literal(-2)))
        CFI (cfiCond205) DPH0 load(1, XDATA, add(CFA_XSP16, literal(-1)))
        CFI (cfiCond205) CFA_SP SP+0
        CFI (cfiCond205) CFA_XSP16 add(XSP16, 19)
        CFI Block cfiPicker206 Using cfiCommon1
        CFI (cfiPicker206) NoFunction
        CFI (cfiPicker206) Picker
        MOV     DPL,A
        MOV     A,R3
        CFI EndBlock cfiCond203
        CFI EndBlock cfiCond204
        CFI EndBlock cfiCond205
        CFI EndBlock cfiPicker206
        REQUIRE ??Subroutine47_0
        ; // Fall through to label ??Subroutine47_0

        RSEG BANKED_CODE:CODE:NOROOT(0)
??Subroutine47_0:
        CFI Block cfiCond207 Using cfiCommon0
        CFI NoFunction
        CFI Conditional ??CrossCallReturnLabel_79
        CFI R6 load(1, XDATA, add(CFA_XSP16, literal(-16)))
        CFI VB load(1, XDATA, add(CFA_XSP16, literal(-15)))
        CFI V0 load(1, XDATA, add(CFA_XSP16, literal(-14)))
        CFI V1 load(1, XDATA, add(CFA_XSP16, literal(-13)))
        CFI V2 load(1, XDATA, add(CFA_XSP16, literal(-12)))
        CFI V3 load(1, XDATA, add(CFA_XSP16, literal(-11)))
        CFI V4 load(1, XDATA, add(CFA_XSP16, literal(-10)))
        CFI V5 load(1, XDATA, add(CFA_XSP16, literal(-9)))
        CFI V6 load(1, XDATA, add(CFA_XSP16, literal(-8)))
        CFI V7 load(1, XDATA, add(CFA_XSP16, literal(-7)))
        CFI R7 load(1, XDATA, add(CFA_XSP16, literal(-6)))
        CFI ?RET_LOW load(1, XDATA, add(CFA_XSP16, literal(-5)))
        CFI ?RET_HIGH load(1, XDATA, add(CFA_XSP16, literal(-4)))
        CFI ?BRET_EXT load(1, XDATA, add(CFA_XSP16, literal(-3)))
        CFI DPL0 load(1, XDATA, add(CFA_XSP16, literal(-2)))
        CFI DPH0 load(1, XDATA, add(CFA_XSP16, literal(-1)))
        CFI CFA_SP SP+0
        CFI CFA_XSP16 add(XSP16, 19)
        CFI Block cfiCond208 Using cfiCommon0
        CFI (cfiCond208) NoFunction
        CFI (cfiCond208) Conditional ??CrossCallReturnLabel_80
        CFI (cfiCond208) R6 load(1, XDATA, add(CFA_XSP16, literal(-18)))
        CFI (cfiCond208) VB load(1, XDATA, add(CFA_XSP16, literal(-17)))
        CFI (cfiCond208) V0 load(1, XDATA, add(CFA_XSP16, literal(-16)))
        CFI (cfiCond208) V1 load(1, XDATA, add(CFA_XSP16, literal(-15)))
        CFI (cfiCond208) V2 load(1, XDATA, add(CFA_XSP16, literal(-14)))
        CFI (cfiCond208) V3 load(1, XDATA, add(CFA_XSP16, literal(-13)))
        CFI (cfiCond208) V4 load(1, XDATA, add(CFA_XSP16, literal(-12)))
        CFI (cfiCond208) V5 load(1, XDATA, add(CFA_XSP16, literal(-11)))
        CFI (cfiCond208) V6 load(1, XDATA, add(CFA_XSP16, literal(-10)))
        CFI (cfiCond208) V7 load(1, XDATA, add(CFA_XSP16, literal(-9)))
        CFI (cfiCond208) V8 load(1, XDATA, add(CFA_XSP16, literal(-8)))
        CFI (cfiCond208) V9 load(1, XDATA, add(CFA_XSP16, literal(-7)))
        CFI (cfiCond208) R7 load(1, XDATA, add(CFA_XSP16, literal(-6)))
        CFI (cfiCond208) ?RET_LOW load(1, XDATA, add(CFA_XSP16, literal(-5)))
        CFI (cfiCond208) ?RET_HIGH load(1, XDATA, add(CFA_XSP16, literal(-4)))
        CFI (cfiCond208) ?BRET_EXT load(1, XDATA, add(CFA_XSP16, literal(-3)))
        CFI (cfiCond208) DPL0 load(1, XDATA, add(CFA_XSP16, literal(-2)))
        CFI (cfiCond208) DPH0 load(1, XDATA, add(CFA_XSP16, literal(-1)))
        CFI (cfiCond208) CFA_SP SP+0
        CFI (cfiCond208) CFA_XSP16 add(XSP16, 18)
        CFI Block cfiCond209 Using cfiCommon0
        CFI (cfiCond209) NoFunction
        CFI (cfiCond209) Conditional ??CrossCallReturnLabel_81
        CFI (cfiCond209) R6 load(1, XDATA, add(CFA_XSP16, literal(-11)))
        CFI (cfiCond209) VB load(1, XDATA, add(CFA_XSP16, literal(-10)))
        CFI (cfiCond209) V0 load(1, XDATA, add(CFA_XSP16, literal(-9)))
        CFI (cfiCond209) V1 load(1, XDATA, add(CFA_XSP16, literal(-8)))
        CFI (cfiCond209) V2 load(1, XDATA, add(CFA_XSP16, literal(-7)))
        CFI (cfiCond209) R7 load(1, XDATA, add(CFA_XSP16, literal(-6)))
        CFI (cfiCond209) ?RET_LOW load(1, XDATA, add(CFA_XSP16, literal(-5)))
        CFI (cfiCond209) ?RET_HIGH load(1, XDATA, add(CFA_XSP16, literal(-4)))
        CFI (cfiCond209) ?BRET_EXT load(1, XDATA, add(CFA_XSP16, literal(-3)))
        CFI (cfiCond209) DPL0 load(1, XDATA, add(CFA_XSP16, literal(-2)))
        CFI (cfiCond209) DPH0 load(1, XDATA, add(CFA_XSP16, literal(-1)))
        CFI (cfiCond209) CFA_SP SP+0
        CFI (cfiCond209) CFA_XSP16 add(XSP16, 14)
        CFI Block cfiCond210 Using cfiCommon0
        CFI (cfiCond210) NoFunction
        CFI (cfiCond210) Conditional ??CrossCallReturnLabel_82
        CFI (cfiCond210) R6 load(1, XDATA, add(CFA_XSP16, literal(-11)))
        CFI (cfiCond210) VB load(1, XDATA, add(CFA_XSP16, literal(-10)))
        CFI (cfiCond210) V0 load(1, XDATA, add(CFA_XSP16, literal(-9)))
        CFI (cfiCond210) V1 load(1, XDATA, add(CFA_XSP16, literal(-8)))
        CFI (cfiCond210) V2 load(1, XDATA, add(CFA_XSP16, literal(-7)))
        CFI (cfiCond210) R7 load(1, XDATA, add(CFA_XSP16, literal(-6)))
        CFI (cfiCond210) ?RET_LOW load(1, XDATA, add(CFA_XSP16, literal(-5)))
        CFI (cfiCond210) ?RET_HIGH load(1, XDATA, add(CFA_XSP16, literal(-4)))
        CFI (cfiCond210) ?BRET_EXT load(1, XDATA, add(CFA_XSP16, literal(-3)))
        CFI (cfiCond210) DPL0 load(1, XDATA, add(CFA_XSP16, literal(-2)))
        CFI (cfiCond210) DPH0 load(1, XDATA, add(CFA_XSP16, literal(-1)))
        CFI (cfiCond210) CFA_SP SP+0
        CFI (cfiCond210) CFA_XSP16 add(XSP16, 14)
        CFI Block cfiCond211 Using cfiCommon0
        CFI (cfiCond211) NoFunction
        CFI (cfiCond211) Conditional ??CrossCallReturnLabel_83
        CFI (cfiCond211) R6 load(1, XDATA, add(CFA_XSP16, literal(-11)))
        CFI (cfiCond211) VB load(1, XDATA, add(CFA_XSP16, literal(-10)))
        CFI (cfiCond211) V0 load(1, XDATA, add(CFA_XSP16, literal(-9)))
        CFI (cfiCond211) V1 load(1, XDATA, add(CFA_XSP16, literal(-8)))
        CFI (cfiCond211) V2 load(1, XDATA, add(CFA_XSP16, literal(-7)))
        CFI (cfiCond211) R7 load(1, XDATA, add(CFA_XSP16, literal(-6)))
        CFI (cfiCond211) ?RET_LOW load(1, XDATA, add(CFA_XSP16, literal(-5)))
        CFI (cfiCond211) ?RET_HIGH load(1, XDATA, add(CFA_XSP16, literal(-4)))
        CFI (cfiCond211) ?BRET_EXT load(1, XDATA, add(CFA_XSP16, literal(-3)))
        CFI (cfiCond211) DPL0 load(1, XDATA, add(CFA_XSP16, literal(-2)))
        CFI (cfiCond211) DPH0 load(1, XDATA, add(CFA_XSP16, literal(-1)))
        CFI (cfiCond211) CFA_SP SP+0
        CFI (cfiCond211) CFA_XSP16 add(XSP16, 16)
        CFI Block cfiCond212 Using cfiCommon0
        CFI (cfiCond212) NoFunction
        CFI (cfiCond212) Conditional ??CrossCallReturnLabel_84
        CFI (cfiCond212) DPL0 Frame(CFA_SP, 4)
        CFI (cfiCond212) DPH0 Frame(CFA_SP, 5)
        CFI (cfiCond212) CFA_SP SP+-5
        CFI Block cfiCond213 Using cfiCommon0
        CFI (cfiCond213) NoFunction
        CFI (cfiCond213) Conditional ??CrossCallReturnLabel_85
        CFI (cfiCond213) R6 load(1, XDATA, add(CFA_XSP16, literal(-16)))
        CFI (cfiCond213) VB load(1, XDATA, add(CFA_XSP16, literal(-15)))
        CFI (cfiCond213) V0 load(1, XDATA, add(CFA_XSP16, literal(-14)))
        CFI (cfiCond213) V1 load(1, XDATA, add(CFA_XSP16, literal(-13)))
        CFI (cfiCond213) V2 load(1, XDATA, add(CFA_XSP16, literal(-12)))
        CFI (cfiCond213) V3 load(1, XDATA, add(CFA_XSP16, literal(-11)))
        CFI (cfiCond213) V4 load(1, XDATA, add(CFA_XSP16, literal(-10)))
        CFI (cfiCond213) V5 load(1, XDATA, add(CFA_XSP16, literal(-9)))
        CFI (cfiCond213) V6 load(1, XDATA, add(CFA_XSP16, literal(-8)))
        CFI (cfiCond213) V7 load(1, XDATA, add(CFA_XSP16, literal(-7)))
        CFI (cfiCond213) R7 load(1, XDATA, add(CFA_XSP16, literal(-6)))
        CFI (cfiCond213) ?RET_LOW load(1, XDATA, add(CFA_XSP16, literal(-5)))
        CFI (cfiCond213) ?RET_HIGH load(1, XDATA, add(CFA_XSP16, literal(-4)))
        CFI (cfiCond213) ?BRET_EXT load(1, XDATA, add(CFA_XSP16, literal(-3)))
        CFI (cfiCond213) DPL0 load(1, XDATA, add(CFA_XSP16, literal(-2)))
        CFI (cfiCond213) DPH0 load(1, XDATA, add(CFA_XSP16, literal(-1)))
        CFI (cfiCond213) CFA_SP SP+0
        CFI (cfiCond213) CFA_XSP16 add(XSP16, 19)
        CFI Block cfiCond214 Using cfiCommon0
        CFI (cfiCond214) NoFunction
        CFI (cfiCond214) Conditional ??CrossCallReturnLabel_86
        CFI (cfiCond214) R6 load(1, XDATA, add(CFA_XSP16, literal(-16)))
        CFI (cfiCond214) VB load(1, XDATA, add(CFA_XSP16, literal(-15)))
        CFI (cfiCond214) V0 load(1, XDATA, add(CFA_XSP16, literal(-14)))
        CFI (cfiCond214) V1 load(1, XDATA, add(CFA_XSP16, literal(-13)))
        CFI (cfiCond214) V2 load(1, XDATA, add(CFA_XSP16, literal(-12)))
        CFI (cfiCond214) V3 load(1, XDATA, add(CFA_XSP16, literal(-11)))
        CFI (cfiCond214) V4 load(1, XDATA, add(CFA_XSP16, literal(-10)))
        CFI (cfiCond214) V5 load(1, XDATA, add(CFA_XSP16, literal(-9)))
        CFI (cfiCond214) V6 load(1, XDATA, add(CFA_XSP16, literal(-8)))
        CFI (cfiCond214) V7 load(1, XDATA, add(CFA_XSP16, literal(-7)))
        CFI (cfiCond214) R7 load(1, XDATA, add(CFA_XSP16, literal(-6)))
        CFI (cfiCond214) ?RET_LOW load(1, XDATA, add(CFA_XSP16, literal(-5)))
        CFI (cfiCond214) ?RET_HIGH load(1, XDATA, add(CFA_XSP16, literal(-4)))
        CFI (cfiCond214) ?BRET_EXT load(1, XDATA, add(CFA_XSP16, literal(-3)))
        CFI (cfiCond214) DPL0 load(1, XDATA, add(CFA_XSP16, literal(-2)))
        CFI (cfiCond214) DPH0 load(1, XDATA, add(CFA_XSP16, literal(-1)))
        CFI (cfiCond214) CFA_SP SP+0
        CFI (cfiCond214) CFA_XSP16 add(XSP16, 19)
        CFI Block cfiPicker215 Using cfiCommon1
        CFI (cfiPicker215) NoFunction
        CFI (cfiPicker215) Picker
        LCALL   ??Subroutine42_0 & 0xFFFF
??CrossCallReturnLabel_90:
        RET
        CFI EndBlock cfiCond207
        CFI EndBlock cfiCond208
        CFI EndBlock cfiCond209
        CFI EndBlock cfiCond210
        CFI EndBlock cfiCond211
        CFI EndBlock cfiCond212
        CFI EndBlock cfiCond213
        CFI EndBlock cfiCond214
        CFI EndBlock cfiPicker215

        RSEG BANKED_CODE:CODE:NOROOT(0)
?Subroutine12:
        CFI Block cfiCond216 Using cfiCommon0
        CFI NoFunction
        CFI Conditional ??CrossCallReturnLabel_94
        CFI R6 load(1, XDATA, add(CFA_XSP16, literal(-16)))
        CFI VB load(1, XDATA, add(CFA_XSP16, literal(-15)))
        CFI V0 load(1, XDATA, add(CFA_XSP16, literal(-14)))
        CFI V1 load(1, XDATA, add(CFA_XSP16, literal(-13)))
        CFI V2 load(1, XDATA, add(CFA_XSP16, literal(-12)))
        CFI V3 load(1, XDATA, add(CFA_XSP16, literal(-11)))
        CFI V4 load(1, XDATA, add(CFA_XSP16, literal(-10)))
        CFI V5 load(1, XDATA, add(CFA_XSP16, literal(-9)))
        CFI V6 load(1, XDATA, add(CFA_XSP16, literal(-8)))
        CFI V7 load(1, XDATA, add(CFA_XSP16, literal(-7)))
        CFI R7 load(1, XDATA, add(CFA_XSP16, literal(-6)))
        CFI ?RET_LOW load(1, XDATA, add(CFA_XSP16, literal(-5)))
        CFI ?RET_HIGH load(1, XDATA, add(CFA_XSP16, literal(-4)))
        CFI ?BRET_EXT load(1, XDATA, add(CFA_XSP16, literal(-3)))
        CFI DPL0 load(1, XDATA, add(CFA_XSP16, literal(-2)))
        CFI DPH0 load(1, XDATA, add(CFA_XSP16, literal(-1)))
        CFI CFA_SP SP+0
        CFI CFA_XSP16 add(XSP16, 21)
        CFI Block cfiCond217 Using cfiCommon0
        CFI (cfiCond217) NoFunction
        CFI (cfiCond217) Conditional ??CrossCallReturnLabel_95
        CFI (cfiCond217) R6 load(1, XDATA, add(CFA_XSP16, literal(-16)))
        CFI (cfiCond217) VB load(1, XDATA, add(CFA_XSP16, literal(-15)))
        CFI (cfiCond217) V0 load(1, XDATA, add(CFA_XSP16, literal(-14)))
        CFI (cfiCond217) V1 load(1, XDATA, add(CFA_XSP16, literal(-13)))
        CFI (cfiCond217) V2 load(1, XDATA, add(CFA_XSP16, literal(-12)))
        CFI (cfiCond217) V3 load(1, XDATA, add(CFA_XSP16, literal(-11)))
        CFI (cfiCond217) V4 load(1, XDATA, add(CFA_XSP16, literal(-10)))
        CFI (cfiCond217) V5 load(1, XDATA, add(CFA_XSP16, literal(-9)))
        CFI (cfiCond217) V6 load(1, XDATA, add(CFA_XSP16, literal(-8)))
        CFI (cfiCond217) V7 load(1, XDATA, add(CFA_XSP16, literal(-7)))
        CFI (cfiCond217) R7 load(1, XDATA, add(CFA_XSP16, literal(-6)))
        CFI (cfiCond217) ?RET_LOW load(1, XDATA, add(CFA_XSP16, literal(-5)))
        CFI (cfiCond217) ?RET_HIGH load(1, XDATA, add(CFA_XSP16, literal(-4)))
        CFI (cfiCond217) ?BRET_EXT load(1, XDATA, add(CFA_XSP16, literal(-3)))
        CFI (cfiCond217) DPL0 load(1, XDATA, add(CFA_XSP16, literal(-2)))
        CFI (cfiCond217) DPH0 load(1, XDATA, add(CFA_XSP16, literal(-1)))
        CFI (cfiCond217) CFA_SP SP+0
        CFI (cfiCond217) CFA_XSP16 add(XSP16, 21)
        CFI Block cfiCond218 Using cfiCommon0
        CFI (cfiCond218) NoFunction
        CFI (cfiCond218) Conditional ??CrossCallReturnLabel_96
        CFI (cfiCond218) R6 load(1, XDATA, add(CFA_XSP16, literal(-16)))
        CFI (cfiCond218) VB load(1, XDATA, add(CFA_XSP16, literal(-15)))
        CFI (cfiCond218) V0 load(1, XDATA, add(CFA_XSP16, literal(-14)))
        CFI (cfiCond218) V1 load(1, XDATA, add(CFA_XSP16, literal(-13)))
        CFI (cfiCond218) V2 load(1, XDATA, add(CFA_XSP16, literal(-12)))
        CFI (cfiCond218) V3 load(1, XDATA, add(CFA_XSP16, literal(-11)))
        CFI (cfiCond218) V4 load(1, XDATA, add(CFA_XSP16, literal(-10)))
        CFI (cfiCond218) V5 load(1, XDATA, add(CFA_XSP16, literal(-9)))
        CFI (cfiCond218) V6 load(1, XDATA, add(CFA_XSP16, literal(-8)))
        CFI (cfiCond218) V7 load(1, XDATA, add(CFA_XSP16, literal(-7)))
        CFI (cfiCond218) R7 load(1, XDATA, add(CFA_XSP16, literal(-6)))
        CFI (cfiCond218) ?RET_LOW load(1, XDATA, add(CFA_XSP16, literal(-5)))
        CFI (cfiCond218) ?RET_HIGH load(1, XDATA, add(CFA_XSP16, literal(-4)))
        CFI (cfiCond218) ?BRET_EXT load(1, XDATA, add(CFA_XSP16, literal(-3)))
        CFI (cfiCond218) DPL0 load(1, XDATA, add(CFA_XSP16, literal(-2)))
        CFI (cfiCond218) DPH0 load(1, XDATA, add(CFA_XSP16, literal(-1)))
        CFI (cfiCond218) CFA_SP SP+0
        CFI (cfiCond218) CFA_XSP16 add(XSP16, 21)
        CFI Block cfiPicker219 Using cfiCommon1
        CFI (cfiPicker219) NoFunction
        CFI (cfiPicker219) Picker
        MOV     DPL,?V0 + 0
        MOV     DPH,?V0 + 1
        CFI EndBlock cfiCond216
        CFI EndBlock cfiCond217
        CFI EndBlock cfiCond218
        CFI EndBlock cfiPicker219
        REQUIRE ??Subroutine48_0
        ; // Fall through to label ??Subroutine48_0

        RSEG BANKED_CODE:CODE:NOROOT(0)
??Subroutine48_0:
        CFI Block cfiCond220 Using cfiCommon0
        CFI NoFunction
        CFI Conditional ??CrossCallReturnLabel_93
        CFI R6 load(1, XDATA, add(CFA_XSP16, literal(-11)))
        CFI VB load(1, XDATA, add(CFA_XSP16, literal(-10)))
        CFI V0 load(1, XDATA, add(CFA_XSP16, literal(-9)))
        CFI V1 load(1, XDATA, add(CFA_XSP16, literal(-8)))
        CFI V2 load(1, XDATA, add(CFA_XSP16, literal(-7)))
        CFI R7 load(1, XDATA, add(CFA_XSP16, literal(-6)))
        CFI ?RET_LOW load(1, XDATA, add(CFA_XSP16, literal(-5)))
        CFI ?RET_HIGH load(1, XDATA, add(CFA_XSP16, literal(-4)))
        CFI ?BRET_EXT load(1, XDATA, add(CFA_XSP16, literal(-3)))
        CFI DPL0 load(1, XDATA, add(CFA_XSP16, literal(-2)))
        CFI DPH0 load(1, XDATA, add(CFA_XSP16, literal(-1)))
        CFI CFA_SP SP+0
        CFI CFA_XSP16 add(XSP16, 16)
        CFI Block cfiCond221 Using cfiCommon0
        CFI (cfiCond221) NoFunction
        CFI (cfiCond221) Conditional ??CrossCallReturnLabel_94
        CFI (cfiCond221) R6 load(1, XDATA, add(CFA_XSP16, literal(-16)))
        CFI (cfiCond221) VB load(1, XDATA, add(CFA_XSP16, literal(-15)))
        CFI (cfiCond221) V0 load(1, XDATA, add(CFA_XSP16, literal(-14)))
        CFI (cfiCond221) V1 load(1, XDATA, add(CFA_XSP16, literal(-13)))
        CFI (cfiCond221) V2 load(1, XDATA, add(CFA_XSP16, literal(-12)))
        CFI (cfiCond221) V3 load(1, XDATA, add(CFA_XSP16, literal(-11)))
        CFI (cfiCond221) V4 load(1, XDATA, add(CFA_XSP16, literal(-10)))
        CFI (cfiCond221) V5 load(1, XDATA, add(CFA_XSP16, literal(-9)))
        CFI (cfiCond221) V6 load(1, XDATA, add(CFA_XSP16, literal(-8)))
        CFI (cfiCond221) V7 load(1, XDATA, add(CFA_XSP16, literal(-7)))
        CFI (cfiCond221) R7 load(1, XDATA, add(CFA_XSP16, literal(-6)))
        CFI (cfiCond221) ?RET_LOW load(1, XDATA, add(CFA_XSP16, literal(-5)))
        CFI (cfiCond221) ?RET_HIGH load(1, XDATA, add(CFA_XSP16, literal(-4)))
        CFI (cfiCond221) ?BRET_EXT load(1, XDATA, add(CFA_XSP16, literal(-3)))
        CFI (cfiCond221) DPL0 load(1, XDATA, add(CFA_XSP16, literal(-2)))
        CFI (cfiCond221) DPH0 load(1, XDATA, add(CFA_XSP16, literal(-1)))
        CFI (cfiCond221) CFA_SP SP+0
        CFI (cfiCond221) CFA_XSP16 add(XSP16, 21)
        CFI Block cfiCond222 Using cfiCommon0
        CFI (cfiCond222) NoFunction
        CFI (cfiCond222) Conditional ??CrossCallReturnLabel_95
        CFI (cfiCond222) R6 load(1, XDATA, add(CFA_XSP16, literal(-16)))
        CFI (cfiCond222) VB load(1, XDATA, add(CFA_XSP16, literal(-15)))
        CFI (cfiCond222) V0 load(1, XDATA, add(CFA_XSP16, literal(-14)))
        CFI (cfiCond222) V1 load(1, XDATA, add(CFA_XSP16, literal(-13)))
        CFI (cfiCond222) V2 load(1, XDATA, add(CFA_XSP16, literal(-12)))
        CFI (cfiCond222) V3 load(1, XDATA, add(CFA_XSP16, literal(-11)))
        CFI (cfiCond222) V4 load(1, XDATA, add(CFA_XSP16, literal(-10)))
        CFI (cfiCond222) V5 load(1, XDATA, add(CFA_XSP16, literal(-9)))
        CFI (cfiCond222) V6 load(1, XDATA, add(CFA_XSP16, literal(-8)))
        CFI (cfiCond222) V7 load(1, XDATA, add(CFA_XSP16, literal(-7)))
        CFI (cfiCond222) R7 load(1, XDATA, add(CFA_XSP16, literal(-6)))
        CFI (cfiCond222) ?RET_LOW load(1, XDATA, add(CFA_XSP16, literal(-5)))
        CFI (cfiCond222) ?RET_HIGH load(1, XDATA, add(CFA_XSP16, literal(-4)))
        CFI (cfiCond222) ?BRET_EXT load(1, XDATA, add(CFA_XSP16, literal(-3)))
        CFI (cfiCond222) DPL0 load(1, XDATA, add(CFA_XSP16, literal(-2)))
        CFI (cfiCond222) DPH0 load(1, XDATA, add(CFA_XSP16, literal(-1)))
        CFI (cfiCond222) CFA_SP SP+0
        CFI (cfiCond222) CFA_XSP16 add(XSP16, 21)
        CFI Block cfiCond223 Using cfiCommon0
        CFI (cfiCond223) NoFunction
        CFI (cfiCond223) Conditional ??CrossCallReturnLabel_96
        CFI (cfiCond223) R6 load(1, XDATA, add(CFA_XSP16, literal(-16)))
        CFI (cfiCond223) VB load(1, XDATA, add(CFA_XSP16, literal(-15)))
        CFI (cfiCond223) V0 load(1, XDATA, add(CFA_XSP16, literal(-14)))
        CFI (cfiCond223) V1 load(1, XDATA, add(CFA_XSP16, literal(-13)))
        CFI (cfiCond223) V2 load(1, XDATA, add(CFA_XSP16, literal(-12)))
        CFI (cfiCond223) V3 load(1, XDATA, add(CFA_XSP16, literal(-11)))
        CFI (cfiCond223) V4 load(1, XDATA, add(CFA_XSP16, literal(-10)))
        CFI (cfiCond223) V5 load(1, XDATA, add(CFA_XSP16, literal(-9)))
        CFI (cfiCond223) V6 load(1, XDATA, add(CFA_XSP16, literal(-8)))
        CFI (cfiCond223) V7 load(1, XDATA, add(CFA_XSP16, literal(-7)))
        CFI (cfiCond223) R7 load(1, XDATA, add(CFA_XSP16, literal(-6)))
        CFI (cfiCond223) ?RET_LOW load(1, XDATA, add(CFA_XSP16, literal(-5)))
        CFI (cfiCond223) ?RET_HIGH load(1, XDATA, add(CFA_XSP16, literal(-4)))
        CFI (cfiCond223) ?BRET_EXT load(1, XDATA, add(CFA_XSP16, literal(-3)))
        CFI (cfiCond223) DPL0 load(1, XDATA, add(CFA_XSP16, literal(-2)))
        CFI (cfiCond223) DPH0 load(1, XDATA, add(CFA_XSP16, literal(-1)))
        CFI (cfiCond223) CFA_SP SP+0
        CFI (cfiCond223) CFA_XSP16 add(XSP16, 21)
        CFI Block cfiPicker224 Using cfiCommon1
        CFI (cfiPicker224) NoFunction
        CFI (cfiPicker224) Picker
        INC     DPTR
        INC     DPTR
        CFI EndBlock cfiCond220
        CFI EndBlock cfiCond221
        CFI EndBlock cfiCond222
        CFI EndBlock cfiCond223
        CFI EndBlock cfiPicker224
        REQUIRE ??Subroutine49_0
        ; // Fall through to label ??Subroutine49_0

        RSEG BANKED_CODE:CODE:NOROOT(0)
??Subroutine49_0:
        CFI Block cfiCond225 Using cfiCommon0
        CFI NoFunction
        CFI Conditional ??CrossCallReturnLabel_92
        CFI DPL0 Frame(CFA_SP, 4)
        CFI DPH0 Frame(CFA_SP, 5)
        CFI CFA_SP SP+-5
        CFI Block cfiCond226 Using cfiCommon0
        CFI (cfiCond226) NoFunction
        CFI (cfiCond226) Conditional ??CrossCallReturnLabel_93
        CFI (cfiCond226) R6 load(1, XDATA, add(CFA_XSP16, literal(-11)))
        CFI (cfiCond226) VB load(1, XDATA, add(CFA_XSP16, literal(-10)))
        CFI (cfiCond226) V0 load(1, XDATA, add(CFA_XSP16, literal(-9)))
        CFI (cfiCond226) V1 load(1, XDATA, add(CFA_XSP16, literal(-8)))
        CFI (cfiCond226) V2 load(1, XDATA, add(CFA_XSP16, literal(-7)))
        CFI (cfiCond226) R7 load(1, XDATA, add(CFA_XSP16, literal(-6)))
        CFI (cfiCond226) ?RET_LOW load(1, XDATA, add(CFA_XSP16, literal(-5)))
        CFI (cfiCond226) ?RET_HIGH load(1, XDATA, add(CFA_XSP16, literal(-4)))
        CFI (cfiCond226) ?BRET_EXT load(1, XDATA, add(CFA_XSP16, literal(-3)))
        CFI (cfiCond226) DPL0 load(1, XDATA, add(CFA_XSP16, literal(-2)))
        CFI (cfiCond226) DPH0 load(1, XDATA, add(CFA_XSP16, literal(-1)))
        CFI (cfiCond226) CFA_SP SP+0
        CFI (cfiCond226) CFA_XSP16 add(XSP16, 16)
        CFI Block cfiCond227 Using cfiCommon0
        CFI (cfiCond227) NoFunction
        CFI (cfiCond227) Conditional ??CrossCallReturnLabel_94
        CFI (cfiCond227) R6 load(1, XDATA, add(CFA_XSP16, literal(-16)))
        CFI (cfiCond227) VB load(1, XDATA, add(CFA_XSP16, literal(-15)))
        CFI (cfiCond227) V0 load(1, XDATA, add(CFA_XSP16, literal(-14)))
        CFI (cfiCond227) V1 load(1, XDATA, add(CFA_XSP16, literal(-13)))
        CFI (cfiCond227) V2 load(1, XDATA, add(CFA_XSP16, literal(-12)))
        CFI (cfiCond227) V3 load(1, XDATA, add(CFA_XSP16, literal(-11)))
        CFI (cfiCond227) V4 load(1, XDATA, add(CFA_XSP16, literal(-10)))
        CFI (cfiCond227) V5 load(1, XDATA, add(CFA_XSP16, literal(-9)))
        CFI (cfiCond227) V6 load(1, XDATA, add(CFA_XSP16, literal(-8)))
        CFI (cfiCond227) V7 load(1, XDATA, add(CFA_XSP16, literal(-7)))
        CFI (cfiCond227) R7 load(1, XDATA, add(CFA_XSP16, literal(-6)))
        CFI (cfiCond227) ?RET_LOW load(1, XDATA, add(CFA_XSP16, literal(-5)))
        CFI (cfiCond227) ?RET_HIGH load(1, XDATA, add(CFA_XSP16, literal(-4)))
        CFI (cfiCond227) ?BRET_EXT load(1, XDATA, add(CFA_XSP16, literal(-3)))
        CFI (cfiCond227) DPL0 load(1, XDATA, add(CFA_XSP16, literal(-2)))
        CFI (cfiCond227) DPH0 load(1, XDATA, add(CFA_XSP16, literal(-1)))
        CFI (cfiCond227) CFA_SP SP+0
        CFI (cfiCond227) CFA_XSP16 add(XSP16, 21)
        CFI Block cfiCond228 Using cfiCommon0
        CFI (cfiCond228) NoFunction
        CFI (cfiCond228) Conditional ??CrossCallReturnLabel_95
        CFI (cfiCond228) R6 load(1, XDATA, add(CFA_XSP16, literal(-16)))
        CFI (cfiCond228) VB load(1, XDATA, add(CFA_XSP16, literal(-15)))
        CFI (cfiCond228) V0 load(1, XDATA, add(CFA_XSP16, literal(-14)))
        CFI (cfiCond228) V1 load(1, XDATA, add(CFA_XSP16, literal(-13)))
        CFI (cfiCond228) V2 load(1, XDATA, add(CFA_XSP16, literal(-12)))
        CFI (cfiCond228) V3 load(1, XDATA, add(CFA_XSP16, literal(-11)))
        CFI (cfiCond228) V4 load(1, XDATA, add(CFA_XSP16, literal(-10)))
        CFI (cfiCond228) V5 load(1, XDATA, add(CFA_XSP16, literal(-9)))
        CFI (cfiCond228) V6 load(1, XDATA, add(CFA_XSP16, literal(-8)))
        CFI (cfiCond228) V7 load(1, XDATA, add(CFA_XSP16, literal(-7)))
        CFI (cfiCond228) R7 load(1, XDATA, add(CFA_XSP16, literal(-6)))
        CFI (cfiCond228) ?RET_LOW load(1, XDATA, add(CFA_XSP16, literal(-5)))
        CFI (cfiCond228) ?RET_HIGH load(1, XDATA, add(CFA_XSP16, literal(-4)))
        CFI (cfiCond228) ?BRET_EXT load(1, XDATA, add(CFA_XSP16, literal(-3)))
        CFI (cfiCond228) DPL0 load(1, XDATA, add(CFA_XSP16, literal(-2)))
        CFI (cfiCond228) DPH0 load(1, XDATA, add(CFA_XSP16, literal(-1)))
        CFI (cfiCond228) CFA_SP SP+0
        CFI (cfiCond228) CFA_XSP16 add(XSP16, 21)
        CFI Block cfiCond229 Using cfiCommon0
        CFI (cfiCond229) NoFunction
        CFI (cfiCond229) Conditional ??CrossCallReturnLabel_96
        CFI (cfiCond229) R6 load(1, XDATA, add(CFA_XSP16, literal(-16)))
        CFI (cfiCond229) VB load(1, XDATA, add(CFA_XSP16, literal(-15)))
        CFI (cfiCond229) V0 load(1, XDATA, add(CFA_XSP16, literal(-14)))
        CFI (cfiCond229) V1 load(1, XDATA, add(CFA_XSP16, literal(-13)))
        CFI (cfiCond229) V2 load(1, XDATA, add(CFA_XSP16, literal(-12)))
        CFI (cfiCond229) V3 load(1, XDATA, add(CFA_XSP16, literal(-11)))
        CFI (cfiCond229) V4 load(1, XDATA, add(CFA_XSP16, literal(-10)))
        CFI (cfiCond229) V5 load(1, XDATA, add(CFA_XSP16, literal(-9)))
        CFI (cfiCond229) V6 load(1, XDATA, add(CFA_XSP16, literal(-8)))
        CFI (cfiCond229) V7 load(1, XDATA, add(CFA_XSP16, literal(-7)))
        CFI (cfiCond229) R7 load(1, XDATA, add(CFA_XSP16, literal(-6)))
        CFI (cfiCond229) ?RET_LOW load(1, XDATA, add(CFA_XSP16, literal(-5)))
        CFI (cfiCond229) ?RET_HIGH load(1, XDATA, add(CFA_XSP16, literal(-4)))
        CFI (cfiCond229) ?BRET_EXT load(1, XDATA, add(CFA_XSP16, literal(-3)))
        CFI (cfiCond229) DPL0 load(1, XDATA, add(CFA_XSP16, literal(-2)))
        CFI (cfiCond229) DPH0 load(1, XDATA, add(CFA_XSP16, literal(-1)))
        CFI (cfiCond229) CFA_SP SP+0
        CFI (cfiCond229) CFA_XSP16 add(XSP16, 21)
        CFI Block cfiPicker230 Using cfiCommon1
        CFI (cfiPicker230) NoFunction
        CFI (cfiPicker230) Picker
        INC     DPTR
        CFI EndBlock cfiCond225
        CFI EndBlock cfiCond226
        CFI EndBlock cfiCond227
        CFI EndBlock cfiCond228
        CFI EndBlock cfiCond229
        CFI EndBlock cfiPicker230
        REQUIRE ??Subroutine50_0
        ; // Fall through to label ??Subroutine50_0

        RSEG BANKED_CODE:CODE:NOROOT(0)
??Subroutine50_0:
        CFI Block cfiCond231 Using cfiCommon0
        CFI NoFunction
        CFI Conditional ??CrossCallReturnLabel_91
        CFI R6 load(1, XDATA, add(CFA_XSP16, literal(-18)))
        CFI VB load(1, XDATA, add(CFA_XSP16, literal(-17)))
        CFI V0 load(1, XDATA, add(CFA_XSP16, literal(-16)))
        CFI V1 load(1, XDATA, add(CFA_XSP16, literal(-15)))
        CFI V2 load(1, XDATA, add(CFA_XSP16, literal(-14)))
        CFI V3 load(1, XDATA, add(CFA_XSP16, literal(-13)))
        CFI V4 load(1, XDATA, add(CFA_XSP16, literal(-12)))
        CFI V5 load(1, XDATA, add(CFA_XSP16, literal(-11)))
        CFI V6 load(1, XDATA, add(CFA_XSP16, literal(-10)))
        CFI V7 load(1, XDATA, add(CFA_XSP16, literal(-9)))
        CFI V8 load(1, XDATA, add(CFA_XSP16, literal(-8)))
        CFI V9 load(1, XDATA, add(CFA_XSP16, literal(-7)))
        CFI R7 load(1, XDATA, add(CFA_XSP16, literal(-6)))
        CFI ?RET_LOW load(1, XDATA, add(CFA_XSP16, literal(-5)))
        CFI ?RET_HIGH load(1, XDATA, add(CFA_XSP16, literal(-4)))
        CFI ?BRET_EXT load(1, XDATA, add(CFA_XSP16, literal(-3)))
        CFI DPL0 load(1, XDATA, add(CFA_XSP16, literal(-2)))
        CFI DPH0 load(1, XDATA, add(CFA_XSP16, literal(-1)))
        CFI CFA_SP SP+0
        CFI CFA_XSP16 add(XSP16, 20)
        CFI Block cfiCond232 Using cfiCommon0
        CFI (cfiCond232) NoFunction
        CFI (cfiCond232) Conditional ??CrossCallReturnLabel_92
        CFI (cfiCond232) DPL0 Frame(CFA_SP, 4)
        CFI (cfiCond232) DPH0 Frame(CFA_SP, 5)
        CFI (cfiCond232) CFA_SP SP+-5
        CFI Block cfiCond233 Using cfiCommon0
        CFI (cfiCond233) NoFunction
        CFI (cfiCond233) Conditional ??CrossCallReturnLabel_93
        CFI (cfiCond233) R6 load(1, XDATA, add(CFA_XSP16, literal(-11)))
        CFI (cfiCond233) VB load(1, XDATA, add(CFA_XSP16, literal(-10)))
        CFI (cfiCond233) V0 load(1, XDATA, add(CFA_XSP16, literal(-9)))
        CFI (cfiCond233) V1 load(1, XDATA, add(CFA_XSP16, literal(-8)))
        CFI (cfiCond233) V2 load(1, XDATA, add(CFA_XSP16, literal(-7)))
        CFI (cfiCond233) R7 load(1, XDATA, add(CFA_XSP16, literal(-6)))
        CFI (cfiCond233) ?RET_LOW load(1, XDATA, add(CFA_XSP16, literal(-5)))
        CFI (cfiCond233) ?RET_HIGH load(1, XDATA, add(CFA_XSP16, literal(-4)))
        CFI (cfiCond233) ?BRET_EXT load(1, XDATA, add(CFA_XSP16, literal(-3)))
        CFI (cfiCond233) DPL0 load(1, XDATA, add(CFA_XSP16, literal(-2)))
        CFI (cfiCond233) DPH0 load(1, XDATA, add(CFA_XSP16, literal(-1)))
        CFI (cfiCond233) CFA_SP SP+0
        CFI (cfiCond233) CFA_XSP16 add(XSP16, 16)
        CFI Block cfiCond234 Using cfiCommon0
        CFI (cfiCond234) NoFunction
        CFI (cfiCond234) Conditional ??CrossCallReturnLabel_94
        CFI (cfiCond234) R6 load(1, XDATA, add(CFA_XSP16, literal(-16)))
        CFI (cfiCond234) VB load(1, XDATA, add(CFA_XSP16, literal(-15)))
        CFI (cfiCond234) V0 load(1, XDATA, add(CFA_XSP16, literal(-14)))
        CFI (cfiCond234) V1 load(1, XDATA, add(CFA_XSP16, literal(-13)))
        CFI (cfiCond234) V2 load(1, XDATA, add(CFA_XSP16, literal(-12)))
        CFI (cfiCond234) V3 load(1, XDATA, add(CFA_XSP16, literal(-11)))
        CFI (cfiCond234) V4 load(1, XDATA, add(CFA_XSP16, literal(-10)))
        CFI (cfiCond234) V5 load(1, XDATA, add(CFA_XSP16, literal(-9)))
        CFI (cfiCond234) V6 load(1, XDATA, add(CFA_XSP16, literal(-8)))
        CFI (cfiCond234) V7 load(1, XDATA, add(CFA_XSP16, literal(-7)))
        CFI (cfiCond234) R7 load(1, XDATA, add(CFA_XSP16, literal(-6)))
        CFI (cfiCond234) ?RET_LOW load(1, XDATA, add(CFA_XSP16, literal(-5)))
        CFI (cfiCond234) ?RET_HIGH load(1, XDATA, add(CFA_XSP16, literal(-4)))
        CFI (cfiCond234) ?BRET_EXT load(1, XDATA, add(CFA_XSP16, literal(-3)))
        CFI (cfiCond234) DPL0 load(1, XDATA, add(CFA_XSP16, literal(-2)))
        CFI (cfiCond234) DPH0 load(1, XDATA, add(CFA_XSP16, literal(-1)))
        CFI (cfiCond234) CFA_SP SP+0
        CFI (cfiCond234) CFA_XSP16 add(XSP16, 21)
        CFI Block cfiCond235 Using cfiCommon0
        CFI (cfiCond235) NoFunction
        CFI (cfiCond235) Conditional ??CrossCallReturnLabel_95
        CFI (cfiCond235) R6 load(1, XDATA, add(CFA_XSP16, literal(-16)))
        CFI (cfiCond235) VB load(1, XDATA, add(CFA_XSP16, literal(-15)))
        CFI (cfiCond235) V0 load(1, XDATA, add(CFA_XSP16, literal(-14)))
        CFI (cfiCond235) V1 load(1, XDATA, add(CFA_XSP16, literal(-13)))
        CFI (cfiCond235) V2 load(1, XDATA, add(CFA_XSP16, literal(-12)))
        CFI (cfiCond235) V3 load(1, XDATA, add(CFA_XSP16, literal(-11)))
        CFI (cfiCond235) V4 load(1, XDATA, add(CFA_XSP16, literal(-10)))
        CFI (cfiCond235) V5 load(1, XDATA, add(CFA_XSP16, literal(-9)))
        CFI (cfiCond235) V6 load(1, XDATA, add(CFA_XSP16, literal(-8)))
        CFI (cfiCond235) V7 load(1, XDATA, add(CFA_XSP16, literal(-7)))
        CFI (cfiCond235) R7 load(1, XDATA, add(CFA_XSP16, literal(-6)))
        CFI (cfiCond235) ?RET_LOW load(1, XDATA, add(CFA_XSP16, literal(-5)))
        CFI (cfiCond235) ?RET_HIGH load(1, XDATA, add(CFA_XSP16, literal(-4)))
        CFI (cfiCond235) ?BRET_EXT load(1, XDATA, add(CFA_XSP16, literal(-3)))
        CFI (cfiCond235) DPL0 load(1, XDATA, add(CFA_XSP16, literal(-2)))
        CFI (cfiCond235) DPH0 load(1, XDATA, add(CFA_XSP16, literal(-1)))
        CFI (cfiCond235) CFA_SP SP+0
        CFI (cfiCond235) CFA_XSP16 add(XSP16, 21)
        CFI Block cfiCond236 Using cfiCommon0
        CFI (cfiCond236) NoFunction
        CFI (cfiCond236) Conditional ??CrossCallReturnLabel_96
        CFI (cfiCond236) R6 load(1, XDATA, add(CFA_XSP16, literal(-16)))
        CFI (cfiCond236) VB load(1, XDATA, add(CFA_XSP16, literal(-15)))
        CFI (cfiCond236) V0 load(1, XDATA, add(CFA_XSP16, literal(-14)))
        CFI (cfiCond236) V1 load(1, XDATA, add(CFA_XSP16, literal(-13)))
        CFI (cfiCond236) V2 load(1, XDATA, add(CFA_XSP16, literal(-12)))
        CFI (cfiCond236) V3 load(1, XDATA, add(CFA_XSP16, literal(-11)))
        CFI (cfiCond236) V4 load(1, XDATA, add(CFA_XSP16, literal(-10)))
        CFI (cfiCond236) V5 load(1, XDATA, add(CFA_XSP16, literal(-9)))
        CFI (cfiCond236) V6 load(1, XDATA, add(CFA_XSP16, literal(-8)))
        CFI (cfiCond236) V7 load(1, XDATA, add(CFA_XSP16, literal(-7)))
        CFI (cfiCond236) R7 load(1, XDATA, add(CFA_XSP16, literal(-6)))
        CFI (cfiCond236) ?RET_LOW load(1, XDATA, add(CFA_XSP16, literal(-5)))
        CFI (cfiCond236) ?RET_HIGH load(1, XDATA, add(CFA_XSP16, literal(-4)))
        CFI (cfiCond236) ?BRET_EXT load(1, XDATA, add(CFA_XSP16, literal(-3)))
        CFI (cfiCond236) DPL0 load(1, XDATA, add(CFA_XSP16, literal(-2)))
        CFI (cfiCond236) DPH0 load(1, XDATA, add(CFA_XSP16, literal(-1)))
        CFI (cfiCond236) CFA_SP SP+0
        CFI (cfiCond236) CFA_XSP16 add(XSP16, 21)
        CFI Block cfiPicker237 Using cfiCommon1
        CFI (cfiPicker237) NoFunction
        CFI (cfiPicker237) Picker
        INC     DPTR
        INC     DPTR
        INC     DPTR
        MOVX    A,@DPTR
        MOV     R4,A
        INC     DPTR
        MOVX    A,@DPTR
        MOV     R5,A
        RET
        CFI EndBlock cfiCond231
        CFI EndBlock cfiCond232
        CFI EndBlock cfiCond233
        CFI EndBlock cfiCond234
        CFI EndBlock cfiCond235
        CFI EndBlock cfiCond236
        CFI EndBlock cfiPicker237
//  734 
//  735 

        RSEG BANKED_CODE:CODE:NOROOT(0)
//  736 void SampleApp_MessageMSGCB2( afIncomingMSGPacket_t *pckt )
SampleApp_MessageMSGCB2:
        CFI Block cfiBlock238 Using cfiCommon0
        CFI Function SampleApp_MessageMSGCB2
        CODE
//  737 {
        FUNCALL SampleApp_MessageMSGCB2, osal_memset
        LOCFRAME ISTACK, 0, STACK
        LOCFRAME PSTACK, 0, STACK
        LOCFRAME XSTACK, 14, STACK
        LOCFRAME IOVERLAY, 0, STATIC
        LOCFRAME DOVERLAY, 0, STATIC
        ARGFRAME ISTACK, 0, STACK
        ARGFRAME PSTACK, 0, STACK
        ARGFRAME XSTACK, 14, STACK
        ARGFRAME IOVERLAY, 0, STATIC
        ARGFRAME DOVERLAY, 0, STATIC
        FUNCALL SampleApp_MessageMSGCB2, osal_memcpy
        LOCFRAME ISTACK, 0, STACK
        LOCFRAME PSTACK, 0, STACK
        LOCFRAME XSTACK, 17, STACK
        LOCFRAME IOVERLAY, 0, STATIC
        LOCFRAME DOVERLAY, 0, STATIC
        ARGFRAME ISTACK, 0, STACK
        ARGFRAME PSTACK, 0, STACK
        ARGFRAME XSTACK, 17, STACK
        ARGFRAME IOVERLAY, 0, STATIC
        ARGFRAME DOVERLAY, 0, STATIC
        MOV     A,#-0xb
        LCALL   ?BANKED_ENTER_XDATA
        CFI DPH0 load(1, XDATA, add(CFA_XSP16, literal(-1)))
        CFI DPL0 load(1, XDATA, add(CFA_XSP16, literal(-2)))
        CFI ?BRET_EXT load(1, XDATA, add(CFA_XSP16, literal(-3)))
        CFI ?RET_HIGH load(1, XDATA, add(CFA_XSP16, literal(-4)))
        CFI ?RET_LOW load(1, XDATA, add(CFA_XSP16, literal(-5)))
        CFI R7 load(1, XDATA, add(CFA_XSP16, literal(-6)))
        CFI V2 load(1, XDATA, add(CFA_XSP16, literal(-7)))
        CFI V1 load(1, XDATA, add(CFA_XSP16, literal(-8)))
        CFI V0 load(1, XDATA, add(CFA_XSP16, literal(-9)))
        CFI VB load(1, XDATA, add(CFA_XSP16, literal(-10)))
        CFI R6 load(1, XDATA, add(CFA_XSP16, literal(-11)))
        CFI CFA_SP SP+0
        CFI CFA_XSP16 add(XSP16, 11)
        ; Saved register size: 11
        ; Auto size: 3
        MOV     A,#-0x3
        LCALL   ?ALLOC_XSTACK8
        CFI CFA_XSP16 add(XSP16, 14)
        LCALL   ?Subroutine14 & 0xFFFF
//  738  // unsigned char buf[3]; 
//  739   uint8 RCbf[3];
//  740   osal_memset(RCbf, 0 , 3);
//  741   osal_memcpy(RCbf, pckt->cmd.Data, 3);
??CrossCallReturnLabel_15:
        LCALL   ?PUSH_XSTACK_I_THREE
        CFI CFA_XSP16 add(XSP16, 17)
        MOV     R4,#0x3
        MOV     R5,#0x0
        MOV     A,R4
        LCALL   ?XSTACK_DISP0_8
        MOV     R2,DPL
        MOV     R3,DPH
        LCALL   ??osal_memcpy?relay
        MOV     A,#0x3
        LCALL   ?DEALLOC_XSTACK8
        CFI CFA_XSP16 add(XSP16, 14)
//  742   
//  743   switch ( pckt->clusterId )
        MOV     DPL,R6
        MOV     DPH,R7
        INC     DPTR
        INC     DPTR
        INC     DPTR
        INC     DPTR
        MOVX    A,@DPTR
        XRL     A,#0x1
        JNZ     ??SampleApp_MessageMSGCB2_0
        INC     DPTR
        MOVX    A,@DPTR
??SampleApp_MessageMSGCB2_0:
        JNZ     ??SampleApp_MessageMSGCB2_1
//  744   {
//  745        case SAPP_PERIODIC_CLUSTERID:
//  746         /*LED灯 & 风扇*/
//  747         switch(pckt->cmd.Data[0])
        MOV     A,R6
        ADD     A,#0x22
        MOV     DPL,A
        MOV     A,R7
        LCALL   ??Subroutine51_0 & 0xFFFF
??CrossCallReturnLabel_100:
        LCALL   ??Subroutine43_0 & 0xFFFF
??CrossCallReturnLabel_71:
        MOVX    A,@DPTR
        ADD     A,#-0x42
        JZ      ??SampleApp_MessageMSGCB2_2
        ADD     A,#-0x5
        JZ      ??SampleApp_MessageMSGCB2_3
        ADD     A,#-0x5
        JZ      ??SampleApp_MessageMSGCB2_4
        ADD     A,#-0x7
        JZ      ??SampleApp_MessageMSGCB2_5
        ADD     A,#-0x4
        JZ      ??SampleApp_MessageMSGCB2_6
        SJMP    ??SampleApp_MessageMSGCB2_1
//  748         {  
//  749             case 'S':                                         //风扇
//  750                 /*if(pckt->endPoint <= funcCount)
//  751                         {
//  752                             struct ep_info_t *ep = &funcList[pckt->endPoint - 1];
//  753                             if(ep->incoming_data)
//  754                                 (*ep->incoming_data)(ep, pckt->srcAddr.addr.shortAddr, pckt->srcAddr.endPoint, &pckt->cmd);
//  755                         }*/
//  756               P0DIR = 0xf1;  // 设置 P0.0,P0.4,P0.5,P0.6,P0.7 为输出方式 
??SampleApp_MessageMSGCB2_5:
        MOV     0xfd,#-0xf
//  757               P1DIR = 0xf1;  // 设置 P1.0,P1.4,P1.5,P1.6,P1.7 为输出方式 
        MOV     0xfe,#-0xf
//  758               P2DIR |= 0x01;  // 设置 P2.0 为输出方式 
        ORL     0xff,#0x1
//  759               
//  760               P0_6 = ~P0_6;//停止直流电机
        SETB    B.0
        MOV     C,0x80.6
        JNB     B.0,??SampleApp_MessageMSGCB2_7
        CPL     C
??SampleApp_MessageMSGCB2_7:
        MOV     0x80.6,C
//  761                 break;
        SJMP    ??SampleApp_MessageMSGCB2_1
//  762                 
//  763                 case'L':
//  764                   P0DIR = (0x01<<0)|(0x01<<4)|(0x01<<5)|(0x01<<6)|(0x01<<7);  // 设置P0_0,P0_4,P0_5,P06,P0_7 为输出方式 
??SampleApp_MessageMSGCB2_4:
        MOV     0xfd,#-0xf
//  765                   P1DIR = 0xff;  // 设置 P1 为输出方式 
        MOV     0xfe,#-0x1
//  766                   P2DIR |= 0x01;  // 设置 P2.0 为输出方式 
        ORL     0xff,#0x1
//  767                   P0_7 = 0;//关闭蜂鸣器
        CLR     0x80.7
//  768                   //全亮     
//  769                   P0 |= (0x1 << 6); 
        SETB    0x80.6
//  770                   P1 = 0xff; 
        MOV     0x90,#-0x1
//  771                   P0 &= ~(0x1 << 6); 
        CLR     0x80.6
//  772                   
//  773                   P0 |= (0x1 << 5);         
        SETB    0x80.5
//  774                   P1 = 0x0; 
        MOV     0x90,#0x0
//  775                   P0 &= ~(0x1 << 5);   
        CLR     0x80.5
//  776                   break;
        SJMP    ??SampleApp_MessageMSGCB2_1
//  777                   case'B':
//  778                     P0DIR = (0x01<<0)|(0x01<<4)|(0x01<<5)|(0x01<<6)|(0x01<<7);  // 设置P0_0,P0_4,P0_5,P06,P0_7 为输出方式 
??SampleApp_MessageMSGCB2_2:
        MOV     0xfd,#-0xf
//  779                     P1DIR = 0xff;  // 设置 P1 为输出方式 
        MOV     0xfe,#-0x1
//  780                     P2DIR |= 0x01;  // 设置 P2.0 为输出方式 
        ORL     0xff,#0x1
//  781                     P0_7 = 0;//关闭蜂鸣器
        CLR     0x80.7
//  782                     //全灭     
//  783                     P0 |= (0x1 << 6); 
        SETB    0x80.6
//  784                     P1 = 0x0; 
        MOV     0x90,#0x0
//  785                     P0 &= ~(0x1 << 6); 
        CLR     0x80.6
//  786                     break;
        SJMP    ??SampleApp_MessageMSGCB2_1
//  787                    case'W':
//  788                      P0DIR = (0x01<<7);
??SampleApp_MessageMSGCB2_6:
        MOV     0xfd,#-0x80
//  789                      P0_7 = 1;//打开蜂鸣器
        SETB    0x80.7
//  790                     break;
        SJMP    ??SampleApp_MessageMSGCB2_1
//  791                     case'G':
//  792                       P0DIR = (0x01<<7);
??SampleApp_MessageMSGCB2_3:
        MOV     0xfd,#-0x80
//  793                       P0_7=0;
        CLR     0x80.7
//  794                       break;
//  795                      
//  796                      
//  797                      
//  798                     
//  799        /* default:
//  800                 if(pckt->endPoint <= funcCount)
//  801                         {
//  802                             struct ep_info_t *ep = &funcList[pckt->endPoint - 1];
//  803                             if(ep->incoming_data)
//  804                                 (*ep->incoming_data)(ep, pckt->srcAddr.addr.shortAddr, pckt->srcAddr.endPoint, &pckt->cmd);
//  805                         }
//  806           break;*/
//  807         }
//  808       break;
//  809   }
//  810 }
??SampleApp_MessageMSGCB2_1:
        LJMP    ?Subroutine4 & 0xFFFF
        CFI EndBlock cfiBlock238
        REQUIRE P0DIR
        REQUIRE P1DIR
        REQUIRE P2DIR
        REQUIRE _A_P0
        REQUIRE _A_P1

        RSEG BANKED_CODE:CODE:NOROOT(0)
?Subroutine20:
        CFI Block cfiCond239 Using cfiCommon0
        CFI NoFunction
        CFI Conditional ??CrossCallReturnLabel_101
        CFI R6 load(1, XDATA, add(CFA_XSP16, literal(-10)))
        CFI VB load(1, XDATA, add(CFA_XSP16, literal(-9)))
        CFI V0 load(1, XDATA, add(CFA_XSP16, literal(-8)))
        CFI V1 load(1, XDATA, add(CFA_XSP16, literal(-7)))
        CFI R7 load(1, XDATA, add(CFA_XSP16, literal(-6)))
        CFI ?RET_LOW load(1, XDATA, add(CFA_XSP16, literal(-5)))
        CFI ?RET_HIGH load(1, XDATA, add(CFA_XSP16, literal(-4)))
        CFI ?BRET_EXT load(1, XDATA, add(CFA_XSP16, literal(-3)))
        CFI DPL0 load(1, XDATA, add(CFA_XSP16, literal(-2)))
        CFI DPH0 load(1, XDATA, add(CFA_XSP16, literal(-1)))
        CFI CFA_SP SP+-1
        CFI CFA_XSP16 add(XSP16, 10)
        CFI Block cfiCond240 Using cfiCommon0
        CFI (cfiCond240) NoFunction
        CFI (cfiCond240) Conditional ??CrossCallReturnLabel_102
        CFI (cfiCond240) R6 load(1, XDATA, add(CFA_XSP16, literal(-10)))
        CFI (cfiCond240) VB load(1, XDATA, add(CFA_XSP16, literal(-9)))
        CFI (cfiCond240) V0 load(1, XDATA, add(CFA_XSP16, literal(-8)))
        CFI (cfiCond240) V1 load(1, XDATA, add(CFA_XSP16, literal(-7)))
        CFI (cfiCond240) R7 load(1, XDATA, add(CFA_XSP16, literal(-6)))
        CFI (cfiCond240) ?RET_LOW load(1, XDATA, add(CFA_XSP16, literal(-5)))
        CFI (cfiCond240) ?RET_HIGH load(1, XDATA, add(CFA_XSP16, literal(-4)))
        CFI (cfiCond240) ?BRET_EXT load(1, XDATA, add(CFA_XSP16, literal(-3)))
        CFI (cfiCond240) DPL0 load(1, XDATA, add(CFA_XSP16, literal(-2)))
        CFI (cfiCond240) DPH0 load(1, XDATA, add(CFA_XSP16, literal(-1)))
        CFI (cfiCond240) CFA_SP SP+0
        CFI (cfiCond240) CFA_XSP16 add(XSP16, 10)
        CFI Block cfiCond241 Using cfiCommon0
        CFI (cfiCond241) NoFunction
        CFI (cfiCond241) Conditional ??CrossCallReturnLabel_103
        CFI (cfiCond241) R6 load(1, XDATA, add(CFA_XSP16, literal(-10)))
        CFI (cfiCond241) VB load(1, XDATA, add(CFA_XSP16, literal(-9)))
        CFI (cfiCond241) V0 load(1, XDATA, add(CFA_XSP16, literal(-8)))
        CFI (cfiCond241) V1 load(1, XDATA, add(CFA_XSP16, literal(-7)))
        CFI (cfiCond241) R7 load(1, XDATA, add(CFA_XSP16, literal(-6)))
        CFI (cfiCond241) ?RET_LOW load(1, XDATA, add(CFA_XSP16, literal(-5)))
        CFI (cfiCond241) ?RET_HIGH load(1, XDATA, add(CFA_XSP16, literal(-4)))
        CFI (cfiCond241) ?BRET_EXT load(1, XDATA, add(CFA_XSP16, literal(-3)))
        CFI (cfiCond241) DPL0 load(1, XDATA, add(CFA_XSP16, literal(-2)))
        CFI (cfiCond241) DPH0 load(1, XDATA, add(CFA_XSP16, literal(-1)))
        CFI (cfiCond241) CFA_SP SP+-1
        CFI (cfiCond241) CFA_XSP16 add(XSP16, 10)
        CFI Block cfiCond242 Using cfiCommon0
        CFI (cfiCond242) NoFunction
        CFI (cfiCond242) Conditional ??CrossCallReturnLabel_104
        CFI (cfiCond242) R6 load(1, XDATA, add(CFA_XSP16, literal(-10)))
        CFI (cfiCond242) VB load(1, XDATA, add(CFA_XSP16, literal(-9)))
        CFI (cfiCond242) V0 load(1, XDATA, add(CFA_XSP16, literal(-8)))
        CFI (cfiCond242) V1 load(1, XDATA, add(CFA_XSP16, literal(-7)))
        CFI (cfiCond242) R7 load(1, XDATA, add(CFA_XSP16, literal(-6)))
        CFI (cfiCond242) ?RET_LOW load(1, XDATA, add(CFA_XSP16, literal(-5)))
        CFI (cfiCond242) ?RET_HIGH load(1, XDATA, add(CFA_XSP16, literal(-4)))
        CFI (cfiCond242) ?BRET_EXT load(1, XDATA, add(CFA_XSP16, literal(-3)))
        CFI (cfiCond242) DPL0 load(1, XDATA, add(CFA_XSP16, literal(-2)))
        CFI (cfiCond242) DPH0 load(1, XDATA, add(CFA_XSP16, literal(-1)))
        CFI (cfiCond242) CFA_SP SP+0
        CFI (cfiCond242) CFA_XSP16 add(XSP16, 10)
        CFI Block cfiCond243 Using cfiCommon0
        CFI (cfiCond243) NoFunction
        CFI (cfiCond243) Conditional ??CrossCallReturnLabel_105
        CFI (cfiCond243) R6 load(1, XDATA, add(CFA_XSP16, literal(-10)))
        CFI (cfiCond243) VB load(1, XDATA, add(CFA_XSP16, literal(-9)))
        CFI (cfiCond243) V0 load(1, XDATA, add(CFA_XSP16, literal(-8)))
        CFI (cfiCond243) V1 load(1, XDATA, add(CFA_XSP16, literal(-7)))
        CFI (cfiCond243) R7 load(1, XDATA, add(CFA_XSP16, literal(-6)))
        CFI (cfiCond243) ?RET_LOW load(1, XDATA, add(CFA_XSP16, literal(-5)))
        CFI (cfiCond243) ?RET_HIGH load(1, XDATA, add(CFA_XSP16, literal(-4)))
        CFI (cfiCond243) ?BRET_EXT load(1, XDATA, add(CFA_XSP16, literal(-3)))
        CFI (cfiCond243) DPL0 load(1, XDATA, add(CFA_XSP16, literal(-2)))
        CFI (cfiCond243) DPH0 load(1, XDATA, add(CFA_XSP16, literal(-1)))
        CFI (cfiCond243) CFA_SP SP+0
        CFI (cfiCond243) CFA_XSP16 add(XSP16, 10)
        CFI Block cfiCond244 Using cfiCommon0
        CFI (cfiCond244) NoFunction
        CFI (cfiCond244) Conditional ??CrossCallReturnLabel_106
        CFI (cfiCond244) R6 load(1, XDATA, add(CFA_XSP16, literal(-10)))
        CFI (cfiCond244) VB load(1, XDATA, add(CFA_XSP16, literal(-9)))
        CFI (cfiCond244) V0 load(1, XDATA, add(CFA_XSP16, literal(-8)))
        CFI (cfiCond244) V1 load(1, XDATA, add(CFA_XSP16, literal(-7)))
        CFI (cfiCond244) R7 load(1, XDATA, add(CFA_XSP16, literal(-6)))
        CFI (cfiCond244) ?RET_LOW load(1, XDATA, add(CFA_XSP16, literal(-5)))
        CFI (cfiCond244) ?RET_HIGH load(1, XDATA, add(CFA_XSP16, literal(-4)))
        CFI (cfiCond244) ?BRET_EXT load(1, XDATA, add(CFA_XSP16, literal(-3)))
        CFI (cfiCond244) DPL0 load(1, XDATA, add(CFA_XSP16, literal(-2)))
        CFI (cfiCond244) DPH0 load(1, XDATA, add(CFA_XSP16, literal(-1)))
        CFI (cfiCond244) CFA_SP SP+0
        CFI (cfiCond244) CFA_XSP16 add(XSP16, 10)
        CFI Block cfiCond245 Using cfiCommon0
        CFI (cfiCond245) NoFunction
        CFI (cfiCond245) Conditional ??CrossCallReturnLabel_107
        CFI (cfiCond245) R6 load(1, XDATA, add(CFA_XSP16, literal(-10)))
        CFI (cfiCond245) VB load(1, XDATA, add(CFA_XSP16, literal(-9)))
        CFI (cfiCond245) V0 load(1, XDATA, add(CFA_XSP16, literal(-8)))
        CFI (cfiCond245) V1 load(1, XDATA, add(CFA_XSP16, literal(-7)))
        CFI (cfiCond245) R7 load(1, XDATA, add(CFA_XSP16, literal(-6)))
        CFI (cfiCond245) ?RET_LOW load(1, XDATA, add(CFA_XSP16, literal(-5)))
        CFI (cfiCond245) ?RET_HIGH load(1, XDATA, add(CFA_XSP16, literal(-4)))
        CFI (cfiCond245) ?BRET_EXT load(1, XDATA, add(CFA_XSP16, literal(-3)))
        CFI (cfiCond245) DPL0 load(1, XDATA, add(CFA_XSP16, literal(-2)))
        CFI (cfiCond245) DPH0 load(1, XDATA, add(CFA_XSP16, literal(-1)))
        CFI (cfiCond245) CFA_SP SP+0
        CFI (cfiCond245) CFA_XSP16 add(XSP16, 10)
        CFI Block cfiCond246 Using cfiCommon0
        CFI (cfiCond246) NoFunction
        CFI (cfiCond246) Conditional ??CrossCallReturnLabel_108
        CFI (cfiCond246) R6 load(1, XDATA, add(CFA_XSP16, literal(-9)))
        CFI (cfiCond246) VB load(1, XDATA, add(CFA_XSP16, literal(-8)))
        CFI (cfiCond246) V0 load(1, XDATA, add(CFA_XSP16, literal(-7)))
        CFI (cfiCond246) R7 load(1, XDATA, add(CFA_XSP16, literal(-6)))
        CFI (cfiCond246) ?RET_LOW load(1, XDATA, add(CFA_XSP16, literal(-5)))
        CFI (cfiCond246) ?RET_HIGH load(1, XDATA, add(CFA_XSP16, literal(-4)))
        CFI (cfiCond246) ?BRET_EXT load(1, XDATA, add(CFA_XSP16, literal(-3)))
        CFI (cfiCond246) DPL0 load(1, XDATA, add(CFA_XSP16, literal(-2)))
        CFI (cfiCond246) DPH0 load(1, XDATA, add(CFA_XSP16, literal(-1)))
        CFI (cfiCond246) CFA_SP SP+0
        CFI (cfiCond246) CFA_XSP16 add(XSP16, 9)
        CFI Block cfiPicker247 Using cfiCommon1
        CFI (cfiPicker247) NoFunction
        CFI (cfiPicker247) Picker
        MOV     DPL,A
        MOV     A,R3
        CFI EndBlock cfiCond239
        CFI EndBlock cfiCond240
        CFI EndBlock cfiCond241
        CFI EndBlock cfiCond242
        CFI EndBlock cfiCond243
        CFI EndBlock cfiCond244
        CFI EndBlock cfiCond245
        CFI EndBlock cfiCond246
        CFI EndBlock cfiPicker247
        REQUIRE ??Subroutine51_0
        ; // Fall through to label ??Subroutine51_0

        RSEG BANKED_CODE:CODE:NOROOT(0)
??Subroutine51_0:
        CFI Block cfiCond248 Using cfiCommon0
        CFI NoFunction
        CFI Conditional ??CrossCallReturnLabel_97
        CFI R6 load(1, XDATA, add(CFA_XSP16, literal(-16)))
        CFI VB load(1, XDATA, add(CFA_XSP16, literal(-15)))
        CFI V0 load(1, XDATA, add(CFA_XSP16, literal(-14)))
        CFI V1 load(1, XDATA, add(CFA_XSP16, literal(-13)))
        CFI V2 load(1, XDATA, add(CFA_XSP16, literal(-12)))
        CFI V3 load(1, XDATA, add(CFA_XSP16, literal(-11)))
        CFI V4 load(1, XDATA, add(CFA_XSP16, literal(-10)))
        CFI V5 load(1, XDATA, add(CFA_XSP16, literal(-9)))
        CFI V6 load(1, XDATA, add(CFA_XSP16, literal(-8)))
        CFI V7 load(1, XDATA, add(CFA_XSP16, literal(-7)))
        CFI R7 load(1, XDATA, add(CFA_XSP16, literal(-6)))
        CFI ?RET_LOW load(1, XDATA, add(CFA_XSP16, literal(-5)))
        CFI ?RET_HIGH load(1, XDATA, add(CFA_XSP16, literal(-4)))
        CFI ?BRET_EXT load(1, XDATA, add(CFA_XSP16, literal(-3)))
        CFI DPL0 load(1, XDATA, add(CFA_XSP16, literal(-2)))
        CFI DPH0 load(1, XDATA, add(CFA_XSP16, literal(-1)))
        CFI CFA_SP SP+0
        CFI CFA_XSP16 add(XSP16, 19)
        CFI Block cfiCond249 Using cfiCommon0
        CFI (cfiCond249) NoFunction
        CFI (cfiCond249) Conditional ??CrossCallReturnLabel_98
        CFI (cfiCond249) R6 load(1, XDATA, add(CFA_XSP16, literal(-18)))
        CFI (cfiCond249) VB load(1, XDATA, add(CFA_XSP16, literal(-17)))
        CFI (cfiCond249) V0 load(1, XDATA, add(CFA_XSP16, literal(-16)))
        CFI (cfiCond249) V1 load(1, XDATA, add(CFA_XSP16, literal(-15)))
        CFI (cfiCond249) V2 load(1, XDATA, add(CFA_XSP16, literal(-14)))
        CFI (cfiCond249) V3 load(1, XDATA, add(CFA_XSP16, literal(-13)))
        CFI (cfiCond249) V4 load(1, XDATA, add(CFA_XSP16, literal(-12)))
        CFI (cfiCond249) V5 load(1, XDATA, add(CFA_XSP16, literal(-11)))
        CFI (cfiCond249) V6 load(1, XDATA, add(CFA_XSP16, literal(-10)))
        CFI (cfiCond249) V7 load(1, XDATA, add(CFA_XSP16, literal(-9)))
        CFI (cfiCond249) V8 load(1, XDATA, add(CFA_XSP16, literal(-8)))
        CFI (cfiCond249) V9 load(1, XDATA, add(CFA_XSP16, literal(-7)))
        CFI (cfiCond249) R7 load(1, XDATA, add(CFA_XSP16, literal(-6)))
        CFI (cfiCond249) ?RET_LOW load(1, XDATA, add(CFA_XSP16, literal(-5)))
        CFI (cfiCond249) ?RET_HIGH load(1, XDATA, add(CFA_XSP16, literal(-4)))
        CFI (cfiCond249) ?BRET_EXT load(1, XDATA, add(CFA_XSP16, literal(-3)))
        CFI (cfiCond249) DPL0 load(1, XDATA, add(CFA_XSP16, literal(-2)))
        CFI (cfiCond249) DPH0 load(1, XDATA, add(CFA_XSP16, literal(-1)))
        CFI (cfiCond249) CFA_SP SP+-1
        CFI (cfiCond249) CFA_XSP16 add(XSP16, 18)
        CFI Block cfiCond250 Using cfiCommon0
        CFI (cfiCond250) NoFunction
        CFI (cfiCond250) Conditional ??CrossCallReturnLabel_99
        CFI (cfiCond250) R6 load(1, XDATA, add(CFA_XSP16, literal(-18)))
        CFI (cfiCond250) VB load(1, XDATA, add(CFA_XSP16, literal(-17)))
        CFI (cfiCond250) V0 load(1, XDATA, add(CFA_XSP16, literal(-16)))
        CFI (cfiCond250) V1 load(1, XDATA, add(CFA_XSP16, literal(-15)))
        CFI (cfiCond250) V2 load(1, XDATA, add(CFA_XSP16, literal(-14)))
        CFI (cfiCond250) V3 load(1, XDATA, add(CFA_XSP16, literal(-13)))
        CFI (cfiCond250) V4 load(1, XDATA, add(CFA_XSP16, literal(-12)))
        CFI (cfiCond250) V5 load(1, XDATA, add(CFA_XSP16, literal(-11)))
        CFI (cfiCond250) V6 load(1, XDATA, add(CFA_XSP16, literal(-10)))
        CFI (cfiCond250) V7 load(1, XDATA, add(CFA_XSP16, literal(-9)))
        CFI (cfiCond250) V8 load(1, XDATA, add(CFA_XSP16, literal(-8)))
        CFI (cfiCond250) V9 load(1, XDATA, add(CFA_XSP16, literal(-7)))
        CFI (cfiCond250) R7 load(1, XDATA, add(CFA_XSP16, literal(-6)))
        CFI (cfiCond250) ?RET_LOW load(1, XDATA, add(CFA_XSP16, literal(-5)))
        CFI (cfiCond250) ?RET_HIGH load(1, XDATA, add(CFA_XSP16, literal(-4)))
        CFI (cfiCond250) ?BRET_EXT load(1, XDATA, add(CFA_XSP16, literal(-3)))
        CFI (cfiCond250) DPL0 load(1, XDATA, add(CFA_XSP16, literal(-2)))
        CFI (cfiCond250) DPH0 load(1, XDATA, add(CFA_XSP16, literal(-1)))
        CFI (cfiCond250) CFA_SP SP+-1
        CFI (cfiCond250) CFA_XSP16 add(XSP16, 18)
        CFI Block cfiCond251 Using cfiCommon0
        CFI (cfiCond251) NoFunction
        CFI (cfiCond251) Conditional ??CrossCallReturnLabel_100
        CFI (cfiCond251) R6 load(1, XDATA, add(CFA_XSP16, literal(-11)))
        CFI (cfiCond251) VB load(1, XDATA, add(CFA_XSP16, literal(-10)))
        CFI (cfiCond251) V0 load(1, XDATA, add(CFA_XSP16, literal(-9)))
        CFI (cfiCond251) V1 load(1, XDATA, add(CFA_XSP16, literal(-8)))
        CFI (cfiCond251) V2 load(1, XDATA, add(CFA_XSP16, literal(-7)))
        CFI (cfiCond251) R7 load(1, XDATA, add(CFA_XSP16, literal(-6)))
        CFI (cfiCond251) ?RET_LOW load(1, XDATA, add(CFA_XSP16, literal(-5)))
        CFI (cfiCond251) ?RET_HIGH load(1, XDATA, add(CFA_XSP16, literal(-4)))
        CFI (cfiCond251) ?BRET_EXT load(1, XDATA, add(CFA_XSP16, literal(-3)))
        CFI (cfiCond251) DPL0 load(1, XDATA, add(CFA_XSP16, literal(-2)))
        CFI (cfiCond251) DPH0 load(1, XDATA, add(CFA_XSP16, literal(-1)))
        CFI (cfiCond251) CFA_SP SP+0
        CFI (cfiCond251) CFA_XSP16 add(XSP16, 14)
        CFI Block cfiCond252 Using cfiCommon0
        CFI (cfiCond252) NoFunction
        CFI (cfiCond252) Conditional ??CrossCallReturnLabel_101
        CFI (cfiCond252) R6 load(1, XDATA, add(CFA_XSP16, literal(-10)))
        CFI (cfiCond252) VB load(1, XDATA, add(CFA_XSP16, literal(-9)))
        CFI (cfiCond252) V0 load(1, XDATA, add(CFA_XSP16, literal(-8)))
        CFI (cfiCond252) V1 load(1, XDATA, add(CFA_XSP16, literal(-7)))
        CFI (cfiCond252) R7 load(1, XDATA, add(CFA_XSP16, literal(-6)))
        CFI (cfiCond252) ?RET_LOW load(1, XDATA, add(CFA_XSP16, literal(-5)))
        CFI (cfiCond252) ?RET_HIGH load(1, XDATA, add(CFA_XSP16, literal(-4)))
        CFI (cfiCond252) ?BRET_EXT load(1, XDATA, add(CFA_XSP16, literal(-3)))
        CFI (cfiCond252) DPL0 load(1, XDATA, add(CFA_XSP16, literal(-2)))
        CFI (cfiCond252) DPH0 load(1, XDATA, add(CFA_XSP16, literal(-1)))
        CFI (cfiCond252) CFA_SP SP+-1
        CFI (cfiCond252) CFA_XSP16 add(XSP16, 10)
        CFI Block cfiCond253 Using cfiCommon0
        CFI (cfiCond253) NoFunction
        CFI (cfiCond253) Conditional ??CrossCallReturnLabel_102
        CFI (cfiCond253) R6 load(1, XDATA, add(CFA_XSP16, literal(-10)))
        CFI (cfiCond253) VB load(1, XDATA, add(CFA_XSP16, literal(-9)))
        CFI (cfiCond253) V0 load(1, XDATA, add(CFA_XSP16, literal(-8)))
        CFI (cfiCond253) V1 load(1, XDATA, add(CFA_XSP16, literal(-7)))
        CFI (cfiCond253) R7 load(1, XDATA, add(CFA_XSP16, literal(-6)))
        CFI (cfiCond253) ?RET_LOW load(1, XDATA, add(CFA_XSP16, literal(-5)))
        CFI (cfiCond253) ?RET_HIGH load(1, XDATA, add(CFA_XSP16, literal(-4)))
        CFI (cfiCond253) ?BRET_EXT load(1, XDATA, add(CFA_XSP16, literal(-3)))
        CFI (cfiCond253) DPL0 load(1, XDATA, add(CFA_XSP16, literal(-2)))
        CFI (cfiCond253) DPH0 load(1, XDATA, add(CFA_XSP16, literal(-1)))
        CFI (cfiCond253) CFA_SP SP+0
        CFI (cfiCond253) CFA_XSP16 add(XSP16, 10)
        CFI Block cfiCond254 Using cfiCommon0
        CFI (cfiCond254) NoFunction
        CFI (cfiCond254) Conditional ??CrossCallReturnLabel_103
        CFI (cfiCond254) R6 load(1, XDATA, add(CFA_XSP16, literal(-10)))
        CFI (cfiCond254) VB load(1, XDATA, add(CFA_XSP16, literal(-9)))
        CFI (cfiCond254) V0 load(1, XDATA, add(CFA_XSP16, literal(-8)))
        CFI (cfiCond254) V1 load(1, XDATA, add(CFA_XSP16, literal(-7)))
        CFI (cfiCond254) R7 load(1, XDATA, add(CFA_XSP16, literal(-6)))
        CFI (cfiCond254) ?RET_LOW load(1, XDATA, add(CFA_XSP16, literal(-5)))
        CFI (cfiCond254) ?RET_HIGH load(1, XDATA, add(CFA_XSP16, literal(-4)))
        CFI (cfiCond254) ?BRET_EXT load(1, XDATA, add(CFA_XSP16, literal(-3)))
        CFI (cfiCond254) DPL0 load(1, XDATA, add(CFA_XSP16, literal(-2)))
        CFI (cfiCond254) DPH0 load(1, XDATA, add(CFA_XSP16, literal(-1)))
        CFI (cfiCond254) CFA_SP SP+-1
        CFI (cfiCond254) CFA_XSP16 add(XSP16, 10)
        CFI Block cfiCond255 Using cfiCommon0
        CFI (cfiCond255) NoFunction
        CFI (cfiCond255) Conditional ??CrossCallReturnLabel_104
        CFI (cfiCond255) R6 load(1, XDATA, add(CFA_XSP16, literal(-10)))
        CFI (cfiCond255) VB load(1, XDATA, add(CFA_XSP16, literal(-9)))
        CFI (cfiCond255) V0 load(1, XDATA, add(CFA_XSP16, literal(-8)))
        CFI (cfiCond255) V1 load(1, XDATA, add(CFA_XSP16, literal(-7)))
        CFI (cfiCond255) R7 load(1, XDATA, add(CFA_XSP16, literal(-6)))
        CFI (cfiCond255) ?RET_LOW load(1, XDATA, add(CFA_XSP16, literal(-5)))
        CFI (cfiCond255) ?RET_HIGH load(1, XDATA, add(CFA_XSP16, literal(-4)))
        CFI (cfiCond255) ?BRET_EXT load(1, XDATA, add(CFA_XSP16, literal(-3)))
        CFI (cfiCond255) DPL0 load(1, XDATA, add(CFA_XSP16, literal(-2)))
        CFI (cfiCond255) DPH0 load(1, XDATA, add(CFA_XSP16, literal(-1)))
        CFI (cfiCond255) CFA_SP SP+0
        CFI (cfiCond255) CFA_XSP16 add(XSP16, 10)
        CFI Block cfiCond256 Using cfiCommon0
        CFI (cfiCond256) NoFunction
        CFI (cfiCond256) Conditional ??CrossCallReturnLabel_105
        CFI (cfiCond256) R6 load(1, XDATA, add(CFA_XSP16, literal(-10)))
        CFI (cfiCond256) VB load(1, XDATA, add(CFA_XSP16, literal(-9)))
        CFI (cfiCond256) V0 load(1, XDATA, add(CFA_XSP16, literal(-8)))
        CFI (cfiCond256) V1 load(1, XDATA, add(CFA_XSP16, literal(-7)))
        CFI (cfiCond256) R7 load(1, XDATA, add(CFA_XSP16, literal(-6)))
        CFI (cfiCond256) ?RET_LOW load(1, XDATA, add(CFA_XSP16, literal(-5)))
        CFI (cfiCond256) ?RET_HIGH load(1, XDATA, add(CFA_XSP16, literal(-4)))
        CFI (cfiCond256) ?BRET_EXT load(1, XDATA, add(CFA_XSP16, literal(-3)))
        CFI (cfiCond256) DPL0 load(1, XDATA, add(CFA_XSP16, literal(-2)))
        CFI (cfiCond256) DPH0 load(1, XDATA, add(CFA_XSP16, literal(-1)))
        CFI (cfiCond256) CFA_SP SP+0
        CFI (cfiCond256) CFA_XSP16 add(XSP16, 10)
        CFI Block cfiCond257 Using cfiCommon0
        CFI (cfiCond257) NoFunction
        CFI (cfiCond257) Conditional ??CrossCallReturnLabel_106
        CFI (cfiCond257) R6 load(1, XDATA, add(CFA_XSP16, literal(-10)))
        CFI (cfiCond257) VB load(1, XDATA, add(CFA_XSP16, literal(-9)))
        CFI (cfiCond257) V0 load(1, XDATA, add(CFA_XSP16, literal(-8)))
        CFI (cfiCond257) V1 load(1, XDATA, add(CFA_XSP16, literal(-7)))
        CFI (cfiCond257) R7 load(1, XDATA, add(CFA_XSP16, literal(-6)))
        CFI (cfiCond257) ?RET_LOW load(1, XDATA, add(CFA_XSP16, literal(-5)))
        CFI (cfiCond257) ?RET_HIGH load(1, XDATA, add(CFA_XSP16, literal(-4)))
        CFI (cfiCond257) ?BRET_EXT load(1, XDATA, add(CFA_XSP16, literal(-3)))
        CFI (cfiCond257) DPL0 load(1, XDATA, add(CFA_XSP16, literal(-2)))
        CFI (cfiCond257) DPH0 load(1, XDATA, add(CFA_XSP16, literal(-1)))
        CFI (cfiCond257) CFA_SP SP+0
        CFI (cfiCond257) CFA_XSP16 add(XSP16, 10)
        CFI Block cfiCond258 Using cfiCommon0
        CFI (cfiCond258) NoFunction
        CFI (cfiCond258) Conditional ??CrossCallReturnLabel_107
        CFI (cfiCond258) R6 load(1, XDATA, add(CFA_XSP16, literal(-10)))
        CFI (cfiCond258) VB load(1, XDATA, add(CFA_XSP16, literal(-9)))
        CFI (cfiCond258) V0 load(1, XDATA, add(CFA_XSP16, literal(-8)))
        CFI (cfiCond258) V1 load(1, XDATA, add(CFA_XSP16, literal(-7)))
        CFI (cfiCond258) R7 load(1, XDATA, add(CFA_XSP16, literal(-6)))
        CFI (cfiCond258) ?RET_LOW load(1, XDATA, add(CFA_XSP16, literal(-5)))
        CFI (cfiCond258) ?RET_HIGH load(1, XDATA, add(CFA_XSP16, literal(-4)))
        CFI (cfiCond258) ?BRET_EXT load(1, XDATA, add(CFA_XSP16, literal(-3)))
        CFI (cfiCond258) DPL0 load(1, XDATA, add(CFA_XSP16, literal(-2)))
        CFI (cfiCond258) DPH0 load(1, XDATA, add(CFA_XSP16, literal(-1)))
        CFI (cfiCond258) CFA_SP SP+0
        CFI (cfiCond258) CFA_XSP16 add(XSP16, 10)
        CFI Block cfiCond259 Using cfiCommon0
        CFI (cfiCond259) NoFunction
        CFI (cfiCond259) Conditional ??CrossCallReturnLabel_108
        CFI (cfiCond259) R6 load(1, XDATA, add(CFA_XSP16, literal(-9)))
        CFI (cfiCond259) VB load(1, XDATA, add(CFA_XSP16, literal(-8)))
        CFI (cfiCond259) V0 load(1, XDATA, add(CFA_XSP16, literal(-7)))
        CFI (cfiCond259) R7 load(1, XDATA, add(CFA_XSP16, literal(-6)))
        CFI (cfiCond259) ?RET_LOW load(1, XDATA, add(CFA_XSP16, literal(-5)))
        CFI (cfiCond259) ?RET_HIGH load(1, XDATA, add(CFA_XSP16, literal(-4)))
        CFI (cfiCond259) ?BRET_EXT load(1, XDATA, add(CFA_XSP16, literal(-3)))
        CFI (cfiCond259) DPL0 load(1, XDATA, add(CFA_XSP16, literal(-2)))
        CFI (cfiCond259) DPH0 load(1, XDATA, add(CFA_XSP16, literal(-1)))
        CFI (cfiCond259) CFA_SP SP+0
        CFI (cfiCond259) CFA_XSP16 add(XSP16, 9)
        CFI Block cfiPicker260 Using cfiCommon1
        CFI (cfiPicker260) NoFunction
        CFI (cfiPicker260) Picker
        ADDC    A,#0x0
        MOV     DPH,A
        RET
        CFI EndBlock cfiCond248
        CFI EndBlock cfiCond249
        CFI EndBlock cfiCond250
        CFI EndBlock cfiCond251
        CFI EndBlock cfiCond252
        CFI EndBlock cfiCond253
        CFI EndBlock cfiCond254
        CFI EndBlock cfiCond255
        CFI EndBlock cfiCond256
        CFI EndBlock cfiCond257
        CFI EndBlock cfiCond258
        CFI EndBlock cfiCond259
        CFI EndBlock cfiPicker260

        RSEG BANKED_CODE:CODE:NOROOT(0)
?Subroutine14:
        CFI Block cfiCond261 Using cfiCommon0
        CFI NoFunction
        CFI Conditional ??CrossCallReturnLabel_14
        CFI R6 load(1, XDATA, add(CFA_XSP16, literal(-11)))
        CFI VB load(1, XDATA, add(CFA_XSP16, literal(-10)))
        CFI V0 load(1, XDATA, add(CFA_XSP16, literal(-9)))
        CFI V1 load(1, XDATA, add(CFA_XSP16, literal(-8)))
        CFI V2 load(1, XDATA, add(CFA_XSP16, literal(-7)))
        CFI R7 load(1, XDATA, add(CFA_XSP16, literal(-6)))
        CFI ?RET_LOW load(1, XDATA, add(CFA_XSP16, literal(-5)))
        CFI ?RET_HIGH load(1, XDATA, add(CFA_XSP16, literal(-4)))
        CFI ?BRET_EXT load(1, XDATA, add(CFA_XSP16, literal(-3)))
        CFI DPL0 load(1, XDATA, add(CFA_XSP16, literal(-2)))
        CFI DPH0 load(1, XDATA, add(CFA_XSP16, literal(-1)))
        CFI CFA_SP SP+0
        CFI CFA_XSP16 add(XSP16, 14)
        CFI Block cfiCond262 Using cfiCommon0
        CFI (cfiCond262) NoFunction
        CFI (cfiCond262) Conditional ??CrossCallReturnLabel_15
        CFI (cfiCond262) R6 load(1, XDATA, add(CFA_XSP16, literal(-11)))
        CFI (cfiCond262) VB load(1, XDATA, add(CFA_XSP16, literal(-10)))
        CFI (cfiCond262) V0 load(1, XDATA, add(CFA_XSP16, literal(-9)))
        CFI (cfiCond262) V1 load(1, XDATA, add(CFA_XSP16, literal(-8)))
        CFI (cfiCond262) V2 load(1, XDATA, add(CFA_XSP16, literal(-7)))
        CFI (cfiCond262) R7 load(1, XDATA, add(CFA_XSP16, literal(-6)))
        CFI (cfiCond262) ?RET_LOW load(1, XDATA, add(CFA_XSP16, literal(-5)))
        CFI (cfiCond262) ?RET_HIGH load(1, XDATA, add(CFA_XSP16, literal(-4)))
        CFI (cfiCond262) ?BRET_EXT load(1, XDATA, add(CFA_XSP16, literal(-3)))
        CFI (cfiCond262) DPL0 load(1, XDATA, add(CFA_XSP16, literal(-2)))
        CFI (cfiCond262) DPH0 load(1, XDATA, add(CFA_XSP16, literal(-1)))
        CFI (cfiCond262) CFA_SP SP+0
        CFI (cfiCond262) CFA_XSP16 add(XSP16, 14)
        CFI Block cfiPicker263 Using cfiCommon1
        CFI (cfiPicker263) NoFunction
        CFI (cfiPicker263) Picker
        MOV     A,R2
        MOV     R6,A
        MOV     A,R3
        MOV     R7,A
        ; Setup parameters for call to function osal_memset
        ; Setup parameters for call to function osal_memset
        MOV     R4,#0x3
        MOV     R5,#0x0
        MOV     R1,#0x0
        MOV     DPL,?XSP + 0
        MOV     DPH,?XSP + 1
        MOV     R2,DPL
        MOV     R3,DPH
        LCALL   ??osal_memset?relay
        ; Setup parameters for call to function osal_memcpy
        ; Setup parameters for call to function osal_memcpy
        MOV     A,R6
        ADD     A,#0x22
        MOV     DPL,A
        MOV     A,R7
        LCALL   ??Subroutine42_0 & 0xFFFF
??CrossCallReturnLabel_87:
        MOV     ?V0 + 0,A
        INC     DPTR
        MOVX    A,@DPTR
        MOV     ?V0 + 1,A
        MOV     ?V0 + 2,#0x0
        MOV     R0,#?V0 + 0
        RET
        CFI EndBlock cfiCond261
        CFI EndBlock cfiCond262
        CFI EndBlock cfiPicker263
//  811 

        RSEG BANKED_CODE:CODE:NOROOT(0)
//  812 void Delay_500us(void) //10 us延时
Delay_500us:
        CFI Block cfiBlock264 Using cfiCommon0
        CFI Function Delay_500us
        CODE
//  813 {
        FUNCALL Delay_500us, Onboard_wait
        LOCFRAME ISTACK, 2, STACK
        LOCFRAME PSTACK, 0, STACK
        LOCFRAME XSTACK, 0, STACK
        LOCFRAME IOVERLAY, 0, STATIC
        LOCFRAME DOVERLAY, 0, STATIC
        ARGFRAME ISTACK, 2, STACK
        ARGFRAME PSTACK, 0, STACK
        ARGFRAME XSTACK, 0, STACK
        ARGFRAME IOVERLAY, 0, STATIC
        ARGFRAME DOVERLAY, 0, STATIC
        PUSH    DPL
        CFI DPL0 Frame(CFA_SP, 4)
        CFI CFA_SP SP+-4
        PUSH    DPH
        CFI DPH0 Frame(CFA_SP, 5)
        CFI CFA_SP SP+-5
        ; Saved register size: 2
        ; Auto size: 0
//  814    MicroWait(200);
        ; Setup parameters for call to function Onboard_wait
        MOV     R2,#-0x38
        MOV     R3,#0x0
        LCALL   ??Onboard_wait?relay
//  815 }
        LJMP    ?Subroutine0 & 0xFFFF
        CFI EndBlock cfiBlock264

        RSEG XDATA_ID:CODE:NOROOT(0)
`?<Initializer for SrcShortAddr>`:
        DATA16
        DW 65535

        RSEG XDATA_ID:CODE:NOROOT(0)
`?<Initializer for topoBuffer>`:
        DATA8
        DB 2
        DB 0
        DB 0
        DB 0
        DB 0
        DB 0
        DB 0
        DB 0
        DB 0
        DATA16
        DW 0

        RSEG XDATA_ID:CODE:NOROOT(0)
`?<Initializer for commonClusterId>`:
        DATA16
        DW 1

        RSEG BANK_RELAYS:CODE:REORDER:NOROOT(0)
??osalInitTasks?relay:
        LCALL   ?BDISPATCH
        DATA
        DC24    osalInitTasks

        RSEG BANK_RELAYS:CODE:REORDER:NOROOT(0)
??taskInitProcess?relay:
        LCALL   ?BDISPATCH
        DATA
        DC24    taskInitProcess

        RSEG BANK_RELAYS:CODE:REORDER:NOROOT(0)
??createEndPoint?relay:
        LCALL   ?BDISPATCH
        DATA
        DC24    createEndPoint

        RSEG BANK_RELAYS:CODE:REORDER:NOROOT(0)
??controlEpProcess?relay:
        LCALL   ?BDISPATCH
        DATA
        DC24    controlEpProcess

        RSEG BANK_RELAYS:CODE:REORDER:NOROOT(0)
??functionEpProcess?relay:
        LCALL   ?BDISPATCH
        DATA
        DC24    functionEpProcess

        RSEG BANK_RELAYS:CODE:REORDER:NOROOT(0)
??uartMsgProcesser?relay:
        LCALL   ?BDISPATCH
        DATA
        DC24    uartMsgProcesser

        RSEG BANK_RELAYS:CODE:REORDER:NOROOT(0)
??SendData?relay:
        LCALL   ?BDISPATCH
        DATA
        DC24    SendData

        RSEG BANK_RELAYS:CODE:REORDER:NOROOT(0)
??CreateUserTimer?relay:
        LCALL   ?BDISPATCH
        DATA
        DC24    CreateUserTimer

        RSEG BANK_RELAYS:CODE:REORDER:NOROOT(0)
??DeleteUserTimer?relay:
        LCALL   ?BDISPATCH
        DATA
        DC24    DeleteUserTimer

        RSEG BANK_RELAYS:CODE:REORDER:NOROOT(0)
??ModifyRefreshCycle?relay:
        LCALL   ?BDISPATCH
        DATA
        DC24    ModifyRefreshCycle

        RSEG BANK_RELAYS:CODE:REORDER:NOROOT(0)
??CoordinatorIncomingRoutine?relay:
        LCALL   ?BDISPATCH
        DATA
        DC24    CoordinatorIncomingRoutine

        RSEG BANK_RELAYS:CODE:REORDER:NOROOT(0)
??Delay100us?relay:
        LCALL   ?BDISPATCH
        DATA
        DC24    Delay100us

        RSEG BANK_RELAYS:CODE:REORDER:NOROOT(0)
??SampleApp_MessageMSGCB?relay:
        LCALL   ?BDISPATCH
        DATA
        DC24    SampleApp_MessageMSGCB

        RSEG BANK_RELAYS:CODE:REORDER:NOROOT(0)
??SampleApp_MessageMSGCB2?relay:
        LCALL   ?BDISPATCH
        DATA
        DC24    SampleApp_MessageMSGCB2

        RSEG BANK_RELAYS:CODE:REORDER:NOROOT(0)
??Delay_500us?relay:
        LCALL   ?BDISPATCH
        DATA
        DC24    Delay_500us

        RSEG XDATA_ROM_C:CONST:REORDER:NOROOT(0)
        DATA8
`?<Constant "\\315\\370\\302\\347\\320\\255\\265\\367\\3`:
        DB "\315\370\302\347\320\255\265\367\306\367"

        RSEG XDATA_ROM_C:CONST:REORDER:NOROOT(0)
        DATA8
`?<Constant "---------------">`:
        DB "---------------"

        RSEG XDATA_ROM_C:CONST:REORDER:NOROOT(0)
        DATA8
`?<Constant "\\306\\364\\266\\257\\320\\302\\265\\304\\3`:
        DB "\306\364\266\257\320\302\265\304\315\370\302\347"

        RSEG XDATA_ROM_C:CONST:REORDER:NOROOT(0)
        DATA8
`?<Constant "\\325\\375\\324\\332\\306\\364\\266\\257..`:
        DB "\325\375\324\332\306\364\266\257..."

        RSEG XDATA_ROM_C:CONST:REORDER:NOROOT(0)
        DATA8
`?<Constant {3, 0, 0}>`:
        DB 3
        DB 0
        DB 0

        RSEG XDATA_ROM_C:CONST:REORDER:NOROOT(0)
        DATA8
`?<Constant "Send Power:">`:
        DB "Send Power:"

        RSEG XDATA_ROM_C:CONST:REORDER:NOROOT(0)
        DATA8
`?<Constant "Short Addr:">`:
        DB "Short Addr:"

        RSEG XDATA_ROM_C:CONST:REORDER:NOROOT(0)
        DATA8
`?<Constant "\\315\\370\\302\\347\\322\\321\\263\\311\\2`:
        DB "\315\370\302\347\322\321\263\311\271\246\275\250\301\242"

        RSEG XDATA_ROM_C:CONST:REORDER:NOROOT(0)
        DATA8
`?<Constant "\\277\\311\\275\\323\\312\\325\\275\\332\\2`:
        DB "\277\311\275\323\312\325\275\332\265\343\274\323\310\353"

        RSEG XDATA_ROM_C:CONST:REORDER:NOROOT(0)
        DATA8
`?<Constant "\\320\\302\\275\\332\\265\\343\\274\\323\\3`:
        DB "\320\302\275\332\265\343\274\323\310\353"

        END
// 
// 3 444 bytes in segment BANKED_CODE
//    90 bytes in segment BANK_RELAYS
//     7 bytes in segment SFR_AN
//    15 bytes in segment XDATA_I
//    15 bytes in segment XDATA_ID
//   141 bytes in segment XDATA_ROM_C
//    50 bytes in segment XDATA_Z
// 
// 3 549 bytes of CODE  memory
//   141 bytes of CONST memory
//     0 bytes of DATA  memory (+ 7 bytes shared)
//    65 bytes of XDATA memory
//
//Errors: none
//Warnings: none
